GAS LISTING C:\Users\cerru\AppData\Local\Temp\cc6ahwVN.s 			page 1


   1              		.file	"AEK_SNS_VL53L1X1.c"
   2              		.section	".text","axv"
   3              	.Ltext0:
   4              		.cfi_sections	.debug_frame
   5              		.globl methods_available
   6              		.section	.bss.methods_available,"aw",@nobits
   7              		.type	methods_available, @object
   8              		.size	methods_available, 1
   9              	methods_available:
  10 0000 00       		.zero	1
  11              		.globl AEK_TOF_METHODS
  12              		.section	.bss.AEK_TOF_METHODS,"aw",@nobits
  13              		.align 2
  14              		.type	AEK_TOF_METHODS, @object
  15              		.size	AEK_TOF_METHODS, 204
  16              	AEK_TOF_METHODS:
  17 0000 00000000 		.zero	204
  17      00000000 
  17      00000000 
  17      00000000 
  17      00000000 
  18              		.section	.text.fillMethodsStructULD,"axv",@progbits
  19              		.align 1
  20              		.p2align 4,,15
  21              		.globl fillMethodsStructULD
  22              		.type	fillMethodsStructULD, @function
  23              	fillMethodsStructULD:
  24              	.LFB2:
  25              		.file 1 "./components/aek_sns_vl53l1x1_component_rla/lib/src/AEK_SNS_VL53L1X1.c"
  26              		.loc 1 29 0
  27              		.cfi_startproc
  28 0000 182106F0 		e_stwu %r1,-16(%r1)
  29              	.LCFI0:
  30              		.cfi_def_cfa_offset 16
  31 0004 D231     		se_stw %r3,8(%r1)
  32              		.loc 1 30 0
  33 0006 C271     		se_lwz %r7,8(%r1)
  34 0008 70C0E000 		e_lis %r6,ULD_GetIRQSensorState@ha
  35 000c 1CC60000 		e_la %r6,ULD_GetIRQSensorState@l(%r6)
  36 0010 D267     		se_stw %r6,8(%r7)
  37              		.loc 1 31 0
  38 0012 C271     		se_lwz %r7,8(%r1)
  39 0014 70C0E000 		e_lis %r6,ULD_SetIRQSensorState@ha
  40 0018 1CC60000 		e_la %r6,ULD_SetIRQSensorState@l(%r6)
  41 001c D167     		se_stw %r6,4(%r7)
  42              		.loc 1 32 0
  43 001e C271     		se_lwz %r7,8(%r1)
  44 0020 70C0E000 		e_lis %r6,ULD_TurnOnSensor@ha
  45 0024 1CC60000 		e_la %r6,ULD_TurnOnSensor@l(%r6)
  46 0028 D367     		se_stw %r6,12(%r7)
  47              		.loc 1 33 0
  48 002a C271     		se_lwz %r7,8(%r1)
  49 002c 70C0E000 		e_lis %r6,ULD_TurnOffSensor@ha
  50 0030 1CC60000 		e_la %r6,ULD_TurnOffSensor@l(%r6)
  51 0034 D467     		se_stw %r6,16(%r7)
  52              		.loc 1 34 0
  53 0036 C271     		se_lwz %r7,8(%r1)
GAS LISTING C:\Users\cerru\AppData\Local\Temp\cc6ahwVN.s 			page 2


  54 0038 70C0E000 		e_lis %r6,ULD_TurnOffAllSensors@ha
  55 003c 1CC60000 		e_la %r6,ULD_TurnOffAllSensors@l(%r6)
  56 0040 D667     		se_stw %r6,24(%r7)
  57              		.loc 1 35 0
  58 0042 C271     		se_lwz %r7,8(%r1)
  59 0044 70C0E000 		e_lis %r6,ULD_TurnOnAllSensors@ha
  60 0048 1CC60000 		e_la %r6,ULD_TurnOnAllSensors@l(%r6)
  61 004c D567     		se_stw %r6,20(%r7)
  62              		.loc 1 36 0
  63 004e C271     		se_lwz %r7,8(%r1)
  64 0050 70C0E000 		e_lis %r6,ULD_GetSWVersion@ha
  65 0054 1CC60000 		e_la %r6,ULD_GetSWVersion@l(%r6)
  66 0058 D767     		se_stw %r6,28(%r7)
  67              		.loc 1 37 0
  68 005a C271     		se_lwz %r7,8(%r1)
  69 005c 70C0E000 		e_lis %r6,ULD_SetI2CAddress@ha
  70 0060 1CC60000 		e_la %r6,ULD_SetI2CAddress@l(%r6)
  71 0064 D867     		se_stw %r6,32(%r7)
  72              		.loc 1 38 0
  73 0066 C271     		se_lwz %r7,8(%r1)
  74 0068 70C0E000 		e_lis %r6,ULD_SensorInit@ha
  75 006c 1CC60000 		e_la %r6,ULD_SensorInit@l(%r6)
  76 0070 D967     		se_stw %r6,36(%r7)
  77              		.loc 1 39 0
  78 0072 C271     		se_lwz %r7,8(%r1)
  79 0074 70C0E000 		e_lis %r6,ULD_ClearInterrupt@ha
  80 0078 1CC60000 		e_la %r6,ULD_ClearInterrupt@l(%r6)
  81 007c DA67     		se_stw %r6,40(%r7)
  82              		.loc 1 40 0
  83 007e C271     		se_lwz %r7,8(%r1)
  84 0080 70C0E000 		e_lis %r6,ULD_SetInterruptPolarity@ha
  85 0084 1CC60000 		e_la %r6,ULD_SetInterruptPolarity@l(%r6)
  86 0088 DB67     		se_stw %r6,44(%r7)
  87              		.loc 1 41 0
  88 008a C271     		se_lwz %r7,8(%r1)
  89 008c 70C0E000 		e_lis %r6,ULD_GetInterruptPolarity@ha
  90 0090 1CC60000 		e_la %r6,ULD_GetInterruptPolarity@l(%r6)
  91 0094 DC67     		se_stw %r6,48(%r7)
  92              		.loc 1 42 0
  93 0096 C271     		se_lwz %r7,8(%r1)
  94 0098 70C0E000 		e_lis %r6,ULD_StartRanging@ha
  95 009c 1CC60000 		e_la %r6,ULD_StartRanging@l(%r6)
  96 00a0 DD67     		se_stw %r6,52(%r7)
  97              		.loc 1 43 0
  98 00a2 C271     		se_lwz %r7,8(%r1)
  99 00a4 70C0E000 		e_lis %r6,ULD_StopRanging@ha
 100 00a8 1CC60000 		e_la %r6,ULD_StopRanging@l(%r6)
 101 00ac DE67     		se_stw %r6,56(%r7)
 102              		.loc 1 44 0
 103 00ae C271     		se_lwz %r7,8(%r1)
 104 00b0 70C0E000 		e_lis %r6,ULD_CheckForDataReady@ha
 105 00b4 1CC60000 		e_la %r6,ULD_CheckForDataReady@l(%r6)
 106 00b8 DF67     		se_stw %r6,60(%r7)
 107              		.loc 1 45 0
 108 00ba C271     		se_lwz %r7,8(%r1)
 109 00bc 70C0E000 		e_lis %r6,ULD_SetTimingBudgetInMs@ha
 110 00c0 1CC60000 		e_la %r6,ULD_SetTimingBudgetInMs@l(%r6)
GAS LISTING C:\Users\cerru\AppData\Local\Temp\cc6ahwVN.s 			page 3


 111 00c4 54C70040 		e_stw %r6,64(%r7)
 112              		.loc 1 46 0
 113 00c8 C271     		se_lwz %r7,8(%r1)
 114 00ca 70C0E000 		e_lis %r6,ULD_GetTimingBudgetInMs@ha
 115 00ce 1CC60000 		e_la %r6,ULD_GetTimingBudgetInMs@l(%r6)
 116 00d2 54C70044 		e_stw %r6,68(%r7)
 117              		.loc 1 47 0
 118 00d6 C271     		se_lwz %r7,8(%r1)
 119 00d8 70C0E000 		e_lis %r6,ULD_SetDistanceMode@ha
 120 00dc 1CC60000 		e_la %r6,ULD_SetDistanceMode@l(%r6)
 121 00e0 54C70048 		e_stw %r6,72(%r7)
 122              		.loc 1 48 0
 123 00e4 C271     		se_lwz %r7,8(%r1)
 124 00e6 70C0E000 		e_lis %r6,ULD_GetDistanceMode@ha
 125 00ea 1CC60000 		e_la %r6,ULD_GetDistanceMode@l(%r6)
 126 00ee 54C7004C 		e_stw %r6,76(%r7)
 127              		.loc 1 49 0
 128 00f2 C271     		se_lwz %r7,8(%r1)
 129 00f4 70C0E000 		e_lis %r6,ULD_SetInterMeasurementInMs@ha
 130 00f8 1CC60000 		e_la %r6,ULD_SetInterMeasurementInMs@l(%r6)
 131 00fc 54C70050 		e_stw %r6,80(%r7)
 132              		.loc 1 50 0
 133 0100 C271     		se_lwz %r7,8(%r1)
 134 0102 70C0E000 		e_lis %r6,ULD_GetInterMeasurementInMs@ha
 135 0106 1CC60000 		e_la %r6,ULD_GetInterMeasurementInMs@l(%r6)
 136 010a 54C70054 		e_stw %r6,84(%r7)
 137              		.loc 1 51 0
 138 010e C271     		se_lwz %r7,8(%r1)
 139 0110 70C0E000 		e_lis %r6,ULD_BootState@ha
 140 0114 1CC60000 		e_la %r6,ULD_BootState@l(%r6)
 141 0118 54C70058 		e_stw %r6,88(%r7)
 142              		.loc 1 52 0
 143 011c C271     		se_lwz %r7,8(%r1)
 144 011e 70C0E000 		e_lis %r6,ULD_GetSensorId@ha
 145 0122 1CC60000 		e_la %r6,ULD_GetSensorId@l(%r6)
 146 0126 54C7005C 		e_stw %r6,92(%r7)
 147              		.loc 1 53 0
 148 012a C271     		se_lwz %r7,8(%r1)
 149 012c 70C0E000 		e_lis %r6,ULD_GetDistance@ha
 150 0130 1CC60000 		e_la %r6,ULD_GetDistance@l(%r6)
 151 0134 54C70060 		e_stw %r6,96(%r7)
 152              		.loc 1 54 0
 153 0138 C271     		se_lwz %r7,8(%r1)
 154 013a 70C0E000 		e_lis %r6,ULD_GetSignalPerSpad@ha
 155 013e 1CC60000 		e_la %r6,ULD_GetSignalPerSpad@l(%r6)
 156 0142 54C70064 		e_stw %r6,100(%r7)
 157              		.loc 1 55 0
 158 0146 C271     		se_lwz %r7,8(%r1)
 159 0148 70C0E000 		e_lis %r6,ULD_GetAmbientPerSpad@ha
 160 014c 1CC60000 		e_la %r6,ULD_GetAmbientPerSpad@l(%r6)
 161 0150 54C70068 		e_stw %r6,104(%r7)
 162              		.loc 1 56 0
 163 0154 C271     		se_lwz %r7,8(%r1)
 164 0156 70C0E000 		e_lis %r6,ULD_GetSignalRate@ha
 165 015a 1CC60000 		e_la %r6,ULD_GetSignalRate@l(%r6)
 166 015e 54C7006C 		e_stw %r6,108(%r7)
 167              		.loc 1 57 0
GAS LISTING C:\Users\cerru\AppData\Local\Temp\cc6ahwVN.s 			page 4


 168 0162 C271     		se_lwz %r7,8(%r1)
 169 0164 70C0E000 		e_lis %r6,ULD_GetSpadNb@ha
 170 0168 1CC60000 		e_la %r6,ULD_GetSpadNb@l(%r6)
 171 016c 54C70070 		e_stw %r6,112(%r7)
 172              		.loc 1 58 0
 173 0170 C271     		se_lwz %r7,8(%r1)
 174 0172 70C0E000 		e_lis %r6,ULD_GetAmbientRate@ha
 175 0176 1CC60000 		e_la %r6,ULD_GetAmbientRate@l(%r6)
 176 017a 54C70074 		e_stw %r6,116(%r7)
 177              		.loc 1 59 0
 178 017e C271     		se_lwz %r7,8(%r1)
 179 0180 70C0E000 		e_lis %r6,ULD_GetRangeStatus@ha
 180 0184 1CC60000 		e_la %r6,ULD_GetRangeStatus@l(%r6)
 181 0188 54C70078 		e_stw %r6,120(%r7)
 182              		.loc 1 60 0
 183 018c C271     		se_lwz %r7,8(%r1)
 184 018e 70C0E000 		e_lis %r6,ULD_GetResult@ha
 185 0192 1CC60000 		e_la %r6,ULD_GetResult@l(%r6)
 186 0196 54C7007C 		e_stw %r6,124(%r7)
 187              		.loc 1 61 0
 188 019a C271     		se_lwz %r7,8(%r1)
 189 019c 70C0E000 		e_lis %r6,ULD_SetOffset@ha
 190 01a0 1CC60000 		e_la %r6,ULD_SetOffset@l(%r6)
 191 01a4 54C70080 		e_stw %r6,128(%r7)
 192              		.loc 1 62 0
 193 01a8 C271     		se_lwz %r7,8(%r1)
 194 01aa 70C0E000 		e_lis %r6,ULD_GetOffset@ha
 195 01ae 1CC60000 		e_la %r6,ULD_GetOffset@l(%r6)
 196 01b2 54C70084 		e_stw %r6,132(%r7)
 197              		.loc 1 63 0
 198 01b6 C271     		se_lwz %r7,8(%r1)
 199 01b8 70C0E000 		e_lis %r6,ULD_SetXtalk@ha
 200 01bc 1CC60000 		e_la %r6,ULD_SetXtalk@l(%r6)
 201 01c0 54C70088 		e_stw %r6,136(%r7)
 202              		.loc 1 64 0
 203 01c4 C271     		se_lwz %r7,8(%r1)
 204 01c6 70C0E000 		e_lis %r6,ULD_GetXtalk@ha
 205 01ca 1CC60000 		e_la %r6,ULD_GetXtalk@l(%r6)
 206 01ce 54C7008C 		e_stw %r6,140(%r7)
 207              		.loc 1 65 0
 208 01d2 C271     		se_lwz %r7,8(%r1)
 209 01d4 70C0E000 		e_lis %r6,ULD_SetDistanceThreshold@ha
 210 01d8 1CC60000 		e_la %r6,ULD_SetDistanceThreshold@l(%r6)
 211 01dc 54C70090 		e_stw %r6,144(%r7)
 212              		.loc 1 66 0
 213 01e0 C271     		se_lwz %r7,8(%r1)
 214 01e2 70C0E000 		e_lis %r6,ULD_GetDistanceThresholdWindow@ha
 215 01e6 1CC60000 		e_la %r6,ULD_GetDistanceThresholdWindow@l(%r6)
 216 01ea 54C70094 		e_stw %r6,148(%r7)
 217              		.loc 1 67 0
 218 01ee C271     		se_lwz %r7,8(%r1)
 219 01f0 70C0E000 		e_lis %r6,ULD_GetDistanceThresholdLow@ha
 220 01f4 1CC60000 		e_la %r6,ULD_GetDistanceThresholdLow@l(%r6)
 221 01f8 54C70098 		e_stw %r6,152(%r7)
 222              		.loc 1 68 0
 223 01fc C271     		se_lwz %r7,8(%r1)
 224 01fe 70C0E000 		e_lis %r6,ULD_GetDistanceThresholdHigh@ha
GAS LISTING C:\Users\cerru\AppData\Local\Temp\cc6ahwVN.s 			page 5


 225 0202 1CC60000 		e_la %r6,ULD_GetDistanceThresholdHigh@l(%r6)
 226 0206 54C7009C 		e_stw %r6,156(%r7)
 227              		.loc 1 69 0
 228 020a C271     		se_lwz %r7,8(%r1)
 229 020c 70C0E000 		e_lis %r6,ULD_SetROI@ha
 230 0210 1CC60000 		e_la %r6,ULD_SetROI@l(%r6)
 231 0214 54C700A0 		e_stw %r6,160(%r7)
 232              		.loc 1 70 0
 233 0218 C271     		se_lwz %r7,8(%r1)
 234 021a 70C0E000 		e_lis %r6,ULD_GetROI_XY@ha
 235 021e 1CC60000 		e_la %r6,ULD_GetROI_XY@l(%r6)
 236 0222 54C700A4 		e_stw %r6,164(%r7)
 237              		.loc 1 71 0
 238 0226 C271     		se_lwz %r7,8(%r1)
 239 0228 70C0E000 		e_lis %r6,ULD_SetROICenter@ha
 240 022c 1CC60000 		e_la %r6,ULD_SetROICenter@l(%r6)
 241 0230 54C700A8 		e_stw %r6,168(%r7)
 242              		.loc 1 72 0
 243 0234 C271     		se_lwz %r7,8(%r1)
 244 0236 70C0E000 		e_lis %r6,ULD_GetROICenter@ha
 245 023a 1CC60000 		e_la %r6,ULD_GetROICenter@l(%r6)
 246 023e 54C700AC 		e_stw %r6,172(%r7)
 247              		.loc 1 73 0
 248 0242 C271     		se_lwz %r7,8(%r1)
 249 0244 70C0E000 		e_lis %r6,ULD_SetSignalThreshold@ha
 250 0248 1CC60000 		e_la %r6,ULD_SetSignalThreshold@l(%r6)
 251 024c 54C700B0 		e_stw %r6,176(%r7)
 252              		.loc 1 74 0
 253 0250 C271     		se_lwz %r7,8(%r1)
 254 0252 70C0E000 		e_lis %r6,ULD_GetSignalThreshold@ha
 255 0256 1CC60000 		e_la %r6,ULD_GetSignalThreshold@l(%r6)
 256 025a 54C700B4 		e_stw %r6,180(%r7)
 257              		.loc 1 75 0
 258 025e C271     		se_lwz %r7,8(%r1)
 259 0260 70C0E000 		e_lis %r6,ULD_SetSigmaThreshold@ha
 260 0264 1CC60000 		e_la %r6,ULD_SetSigmaThreshold@l(%r6)
 261 0268 54C700B8 		e_stw %r6,184(%r7)
 262              		.loc 1 76 0
 263 026c C271     		se_lwz %r7,8(%r1)
 264 026e 70C0E000 		e_lis %r6,ULD_GetSigmaThreshold@ha
 265 0272 1CC60000 		e_la %r6,ULD_GetSigmaThreshold@l(%r6)
 266 0276 54C700BC 		e_stw %r6,188(%r7)
 267              		.loc 1 77 0
 268 027a C271     		se_lwz %r7,8(%r1)
 269 027c 70C0E000 		e_lis %r6,ULD_StartTemperatureUpdate@ha
 270 0280 1CC60000 		e_la %r6,ULD_StartTemperatureUpdate@l(%r6)
 271 0284 54C700C0 		e_stw %r6,192(%r7)
 272              		.loc 1 78 0
 273 0288 C271     		se_lwz %r7,8(%r1)
 274 028a 70C0E000 		e_lis %r6,ULD_CalibrateOffset@ha
 275 028e 1CC60000 		e_la %r6,ULD_CalibrateOffset@l(%r6)
 276 0292 54C700C4 		e_stw %r6,196(%r7)
 277              		.loc 1 79 0
 278 0296 C271     		se_lwz %r7,8(%r1)
 279 0298 70C0E000 		e_lis %r6,ULD_CalibrateXtalk@ha
 280 029c 1CC60000 		e_la %r6,ULD_CalibrateXtalk@l(%r6)
 281 02a0 54C700C8 		e_stw %r6,200(%r7)
GAS LISTING C:\Users\cerru\AppData\Local\Temp\cc6ahwVN.s 			page 6


 282              		.loc 1 80 0
 283 02a4 20F1     		se_addi %r1,16
 284              	.LCFI1:
 285              		.cfi_def_cfa_offset 0
 286 02a6 0004     		se_blr
 287              		.cfi_endproc
 288              	.LFE2:
 289              		.size	fillMethodsStructULD, .-fillMethodsStructULD
 290              		.section	.text.AEK_TOF_CONFIG,"axv",@progbits
 291              		.align 1
 292              		.p2align 4,,15
 293              		.globl AEK_TOF_CONFIG
 294              		.type	AEK_TOF_CONFIG, @function
 295              	AEK_TOF_CONFIG:
 296              	.LFB3:
 297              		.loc 1 151 0
 298              		.cfi_startproc
 299 0000 182106E8 		e_stwu %r1,-24(%r1)
 300              	.LCFI2:
 301              		.cfi_def_cfa_offset 24
 302 0004 0080     		se_mflr %r0
 303 0006 D701     		se_stw %r0,28(%r1)
 304              		.cfi_offset 65, 4
 305              		.loc 1 152 0
 306 0008 4807     		se_li %r7,0
 307 000a D271     		se_stw %r7,8(%r1)
 308              		.loc 1 153 0
 309              	 # 153 "./components/aek_sns_vl53l1x1_component_rla/lib/src/AEK_SNS_VL53L1X1.c" 1
 310 000c 7C008146 		wrteei  1
 311              	 # 0 "" 2
 312              		.loc 1 154 0
 313 0010 70E0E000 		e_lis %r7,AEK_SNS_VL53L1X_I2C_ARRAY_DRIVER@ha
 314 0014 50C70000 		e_lwz %r6,AEK_SNS_VL53L1X_I2C_ARRAY_DRIVER@l(%r7)
 315 0018 70E0E000 		e_lis %r7,AEK_SNS_VL53L1X_I2C_ARRAY_CONFIGURATION@ha
 316 001c 50E70000 		e_lwz %r7,AEK_SNS_VL53L1X_I2C_ARRAY_CONFIGURATION@l(%r7)
 317 0020 0163     		se_mr %r3,%r6
 318 0022 0174     		se_mr %r4,%r7
 319 0024 78000001 		e_bl i2c_lld_start
 320              		.loc 1 156 0
 321 0028 70E0E000 		e_lis %r7,methods_available@ha
 322 002c 30E70000 		e_lbz %r7,methods_available@l(%r7)
 323 0030 00C7     		se_extzb %r7
 324 0032 2A07     		se_cmpi %r7,0
 325 0034 7F800020 		e_mcrf %cr7,%cr0
 326 0038 7CE00026 		mfcr %r7
 327 003c 74E7E007 		e_rlwinm %r7,%r7,28,0xf0000000
 328 0040 7CE80120 		mtcrf 128,%r7
 329 0044 7A020010 		e_bne %cr0,.L3
 330              		.loc 1 159 0
 331 0048 70E0E000 		e_lis %r7,AEK_TOF_METHODS@ha
 332 004c 1C670000 		e_la %r3,AEK_TOF_METHODS@l(%r7)
 333 0050 78000001 		e_bl fillMethodsStructULD
 334              	.L3:
 335              		.loc 1 164 0
 336 0054 4D27     		se_li %r7,82
 337 0056 9C71     		se_stb %r7,12(%r1)
 338              		.loc 1 167 0
GAS LISTING C:\Users\cerru\AppData\Local\Temp\cc6ahwVN.s 			page 7


 339 0058 4807     		se_li %r7,0
 340 005a D471     		se_stw %r7,16(%r1)
 341 005c 7800004E 		e_b .L4
 342              	.L5:
 343              		.loc 1 169 0 discriminator 3
 344 0060 8C71     		se_lbz %r7,12(%r1)
 345 0062 2017     		se_addi %r7,2
 346 0064 9C71     		se_stb %r7,12(%r1)
 347              		.loc 1 170 0 discriminator 3
 348 0066 C441     		se_lwz %r4,16(%r1)
 349 0068 70E0E000 		e_lis %r7,XshutMatrix@ha
 350 006c C461     		se_lwz %r6,16(%r1)
 351 006e 6C16     		se_slwi %r6, 1
 352 0070 1CE70000 		e_la %r7,XshutMatrix@l(%r7)
 353 0074 7CE63A14 		add %r7,%r6,%r7
 354 0078 8077     		se_lbz %r7,0(%r7)
 355 007a 74E5063F 		e_rlwinm %r5,%r7,0,0xff
 356 007e 70E0E000 		e_lis %r7,XshutMatrix@ha
 357 0082 C461     		se_lwz %r6,16(%r1)
 358 0084 6C16     		se_slwi %r6, 1
 359 0086 1CE70000 		e_la %r7,XshutMatrix@l(%r7)
 360 008a 7CE63A14 		add %r7,%r6,%r7
 361 008e 2007     		se_addi %r7,1
 362 0090 8077     		se_lbz %r7,0(%r7)
 363 0092 00C7     		se_extzb %r7
 364 0094 8C61     		se_lbz %r6,12(%r1)
 365 0096 00C6     		se_extzb %r6
 366 0098 0143     		se_mr %r3,%r4
 367 009a 0164     		se_mr %r4,%r6
 368 009c 0176     		se_mr %r6,%r7
 369 009e 78000001 		e_bl ULD_CreateSensor
 370 00a2 D231     		se_stw %r3,8(%r1)
 371              		.loc 1 167 0 discriminator 3
 372 00a4 C471     		se_lwz %r7,16(%r1)
 373 00a6 2007     		se_addi %r7,1
 374 00a8 D471     		se_stw %r7,16(%r1)
 375              	.L4:
 376              		.loc 1 167 0 is_stmt 0 discriminator 1
 377 00aa C471     		se_lwz %r7,16(%r1)
 378 00ac 2A07     		se_cmpi %r7,0
 379 00ae 7F800020 		e_mcrf %cr7,%cr0
 380 00b2 7CE00026 		mfcr %r7
 381 00b6 74E7E007 		e_rlwinm %r7,%r7,28,0xf0000000
 382 00ba 7CE80120 		mtcrf 128,%r7
 383 00be 7A01FFA2 		e_ble %cr0,.L5
 384              		.loc 1 172 0 is_stmt 1
 385 00c2 C271     		se_lwz %r7,8(%r1)
 386              		.loc 1 181 0
 387 00c4 0173     		se_mr %r3,%r7
 388 00c6 C701     		se_lwz %r0,28(%r1)
 389 00c8 0090     		se_mtlr %r0
 390 00ca 2171     		se_addi %r1,24
 391              	.LCFI3:
 392              		.cfi_def_cfa_offset 0
 393 00cc 0004     		se_blr
 394              		.cfi_endproc
 395              	.LFE3:
GAS LISTING C:\Users\cerru\AppData\Local\Temp\cc6ahwVN.s 			page 8


 396              		.size	AEK_TOF_CONFIG, .-AEK_TOF_CONFIG
 397              		.section	".text","axv"
 398              	.Letext0:
 399              		.file 2 "c:\\autodevkitstudio-2.1\\eclipse\\plugins\\com.st.tools.spc5.tools.gnu.gcc.ppcvle.win32_
 400              		.file 3 "c:\\autodevkitstudio-2.1\\eclipse\\plugins\\com.st.tools.spc5.tools.gnu.gcc.ppcvle.win32_
 401              		.file 4 "./components/spc582bxx_low_level_drivers_component_rla/lib/include/i2c_lld.h"
 402              		.file 5 "./components/aek_sns_vl53l1x1_component_rla/cfg/AEK_SNS_VL53L1X1_cfg.h"
 403              		.file 6 "./components/aek_sns_vl53l1x1_component_rla/lib/include/uld_include/VL53L1X_api.h"
 404              		.file 7 "./components/aek_sns_vl53l1x1_component_rla/lib/include/uld_include/uld_api.h"