GAS LISTING C:\Users\nascapro\AppData\Local\Temp\ccOkzjVz.s 			page 1


   1              		.file	"clock.c"
   2              		.section	".text","axv"
   3              	.Ltext0:
   4              		.cfi_sections	.debug_frame
   5              		.section	.text.spc_clear_fccu_rgm,"axv",@progbits
   6              		.align 1
   7              		.p2align 4,,15
   8              		.type	spc_clear_fccu_rgm, @function
   9              	spc_clear_fccu_rgm:
  10              	.LFB2:
  11              		.file 1 "./components/spc582bxx_clock_component_rla/lib/src/clock.c"
  12              		.loc 1 41 0
  13              		.cfi_startproc
  14              		.loc 1 44 0
  15 0000 70FFE3F5 		e_lis %r7,0xfbf5
  16 0004 6507     		se_bseti %r7,16
  17 0006 70D5E334 		e_lis %r6,0xab34
  18 000a 70D3C0FE 		e_or2i %r6,39166
  19 000e 54C70090 		e_stw %r6,144(%r7)
  20              		.loc 1 45 0
  21 0012 70FFE3F5 		e_lis %r7,0xfbf5
  22 0016 6507     		se_bseti %r7,16
  23 0018 2C06     		se_bmaski %r6,0
  24 001a 54C70080 		e_stw %r6,128(%r7)
  25              		.loc 1 46 0
  26 001e 4400     		se_nop
  27              	.L2:
  28              		.loc 1 46 0 is_stmt 0 discriminator 1
  29 0020 70FFE3F5 		e_lis %r7,0xfbf5
  30 0024 6507     		se_bseti %r7,16
  31 0026 C077     		se_lwz %r7,0(%r7)
  32 0028 6867     		se_srwi %r7,6
  33 002a 2E37     		se_andi %r7,3
  34 002c 00C7     		se_extzb %r7
  35 002e 2227     		se_cmpli %r7,3
  36 0030 7F800020 		e_mcrf %cr7,%cr0
  37 0034 7CE00026 		mfcr %r7
  38 0038 74E7E007 		e_rlwinm %r7,%r7,28,0xf0000000
  39 003c 7CE80120 		mtcrf 128,%r7
  40 0040 7A02FFE0 		e_bne %cr0,.L2
  41              		.loc 1 50 0 is_stmt 1
  42 0044 70FFE3F5 		e_lis %r7,0xfbf5
  43 0048 6507     		se_bseti %r7,16
  44 004a 70D5E334 		e_lis %r6,0xab34
  45 004e 70D3C0FE 		e_or2i %r6,39166
  46 0052 54C70090 		e_stw %r6,144(%r7)
  47              		.loc 1 51 0
  48 0056 70FFE3F5 		e_lis %r7,0xfbf5
  49 005a 6507     		se_bseti %r7,16
  50 005c 2C06     		se_bmaski %r6,0
  51 005e 54C70084 		e_stw %r6,132(%r7)
  52              		.loc 1 52 0
  53 0062 4400     		se_nop
  54              	.L3:
  55              		.loc 1 52 0 is_stmt 0 discriminator 1
  56 0064 70FFE3F5 		e_lis %r7,0xfbf5
  57 0068 6507     		se_bseti %r7,16
GAS LISTING C:\Users\nascapro\AppData\Local\Temp\ccOkzjVz.s 			page 2


  58 006a C077     		se_lwz %r7,0(%r7)
  59 006c 6867     		se_srwi %r7,6
  60 006e 2E37     		se_andi %r7,3
  61 0070 00C7     		se_extzb %r7
  62 0072 2227     		se_cmpli %r7,3
  63 0074 7F800020 		e_mcrf %cr7,%cr0
  64 0078 7CE00026 		mfcr %r7
  65 007c 74E7E007 		e_rlwinm %r7,%r7,28,0xf0000000
  66 0080 7CE80120 		mtcrf 128,%r7
  67 0084 7A02FFE0 		e_bne %cr0,.L3
  68              		.loc 1 56 0 is_stmt 1
  69 0088 70FFE3F5 		e_lis %r7,0xfbf5
  70 008c 6507     		se_bseti %r7,16
  71 008e 70D5E334 		e_lis %r6,0xab34
  72 0092 70D3C0FE 		e_or2i %r6,39166
  73 0096 54C70090 		e_stw %r6,144(%r7)
  74              		.loc 1 57 0
  75 009a 70FFE3F5 		e_lis %r7,0xfbf5
  76 009e 6507     		se_bseti %r7,16
  77 00a0 2C06     		se_bmaski %r6,0
  78 00a2 54C70088 		e_stw %r6,136(%r7)
  79              		.loc 1 58 0
  80 00a6 4400     		se_nop
  81              	.L4:
  82              		.loc 1 58 0 is_stmt 0 discriminator 1
  83 00a8 70FFE3F5 		e_lis %r7,0xfbf5
  84 00ac 6507     		se_bseti %r7,16
  85 00ae C077     		se_lwz %r7,0(%r7)
  86 00b0 6867     		se_srwi %r7,6
  87 00b2 2E37     		se_andi %r7,3
  88 00b4 00C7     		se_extzb %r7
  89 00b6 2227     		se_cmpli %r7,3
  90 00b8 7F800020 		e_mcrf %cr7,%cr0
  91 00bc 7CE00026 		mfcr %r7
  92 00c0 74E7E007 		e_rlwinm %r7,%r7,28,0xf0000000
  93 00c4 7CE80120 		mtcrf 128,%r7
  94 00c8 7A02FFE0 		e_bne %cr0,.L4
  95              		.loc 1 62 0 is_stmt 1
  96 00cc 70FFE3F5 		e_lis %r7,0xfbf5
  97 00d0 6507     		se_bseti %r7,16
  98 00d2 70D5E334 		e_lis %r6,0xab34
  99 00d6 70D3C0FE 		e_or2i %r6,39166
 100 00da 54C70090 		e_stw %r6,144(%r7)
 101              		.loc 1 63 0
 102 00de 70FFE3F5 		e_lis %r7,0xfbf5
 103 00e2 6507     		se_bseti %r7,16
 104 00e4 2C06     		se_bmaski %r6,0
 105 00e6 54C7008C 		e_stw %r6,140(%r7)
 106              		.loc 1 64 0
 107 00ea 4400     		se_nop
 108              	.L5:
 109              		.loc 1 64 0 is_stmt 0 discriminator 1
 110 00ec 70FFE3F5 		e_lis %r7,0xfbf5
 111 00f0 6507     		se_bseti %r7,16
 112 00f2 C077     		se_lwz %r7,0(%r7)
 113 00f4 6867     		se_srwi %r7,6
 114 00f6 2E37     		se_andi %r7,3
GAS LISTING C:\Users\nascapro\AppData\Local\Temp\ccOkzjVz.s 			page 3


 115 00f8 00C7     		se_extzb %r7
 116 00fa 2227     		se_cmpli %r7,3
 117 00fc 7F800020 		e_mcrf %cr7,%cr0
 118 0100 7CE00026 		mfcr %r7
 119 0104 74E7E007 		e_rlwinm %r7,%r7,28,0xf0000000
 120 0108 7CE80120 		mtcrf 128,%r7
 121 010c 7A02FFE0 		e_bne %cr0,.L5
 122              		.loc 1 68 0 is_stmt 1
 123 0110 70FEE7FA 		e_lis %r7,0xf7fa
 124 0114 6507     		se_bseti %r7,16
 125 0116 2D06     		se_bmaski %r6,16
 126 0118 54C70300 		e_stw %r6,768(%r7)
 127              		.loc 1 69 0
 128 011c 70FEE7FA 		e_lis %r7,0xf7fa
 129 0120 6507     		se_bseti %r7,16
 130 0122 2D06     		se_bmaski %r6,16
 131 0124 D067     		se_stw %r6,0(%r7)
 132              		.loc 1 70 0
 133 0126 0004     		se_blr
 134              		.cfi_endproc
 135              	.LFE2:
 136              		.size	spc_clear_fccu_rgm, .-spc_clear_fccu_rgm
 137              		.section	.text.SPCSetPFlashController,"axv",@progbits
 138              		.align 1
 139              		.p2align 4,,15
 140              		.type	SPCSetPFlashController, @function
 141              	SPCSetPFlashController:
 142              	.LFB3:
 143              		.loc 1 80 0
 144              		.cfi_startproc
 145 0000 182106F0 		e_stwu %r1,-16(%r1)
 146              	.LCFI0:
 147              		.cfi_def_cfa_offset 16
 148 0004 D231     		se_stw %r3,8(%r1)
 149              		.loc 1 82 0
 150 0006 C271     		se_lwz %r7,8(%r1)
 151 0008 2A07     		se_cmpi %r7,0
 152 000a 7F800020 		e_mcrf %cr7,%cr0
 153 000e 7CE00026 		mfcr %r7
 154 0012 74E7E007 		e_rlwinm %r7,%r7,28,0xf0000000
 155 0016 7CE80120 		mtcrf 128,%r7
 156 001a 7A1200E4 		e_beq %cr0,.L6
 157              		.loc 1 82 0 is_stmt 0 discriminator 1
 158 001e C261     		se_lwz %r6,8(%r1)
 159 0020 70E0E4C4 		e_lis %r7,0x4c4
 160 0024 18E7D1B4 		e_ori %r7,%r7,46080
 161 0028 7F863840 		cmpl %cr7,%r6,%r7
 162 002c 7CE00026 		mfcr %r7
 163 0030 74E7E007 		e_rlwinm %r7,%r7,28,0xf0000000
 164 0034 7CE80120 		mtcrf 128,%r7
 165 0038 7A1100C6 		e_bgt %cr0,.L6
 166              		.loc 1 83 0 is_stmt 1
 167 003c 70FEE403 		e_lis %r7,0xf403
 168 0040 18E6D140 		e_ori %r6,%r7,16384
 169 0044 C076     		se_lwz %r7,0(%r6)
 170 0046 4805     		se_li %r5,0
 171 0048 74A76C24 		e_rlwimi %r7,%r5,13,16,18
GAS LISTING C:\Users\nascapro\AppData\Local\Temp\ccOkzjVz.s 			page 4


 172 004c D076     		se_stw %r7,0(%r6)
 173              		.loc 1 84 0
 174 004e 70FEE403 		e_lis %r7,0xf403
 175 0052 18E6D140 		e_ori %r6,%r7,16384
 176 0056 C076     		se_lwz %r7,0(%r6)
 177 0058 4815     		se_li %r5,1
 178 005a 74A707FE 		e_rlwimi %r7,%r5,0,31,31
 179 005e D076     		se_stw %r7,0(%r6)
 180              		.loc 1 85 0
 181 0060 70FEE403 		e_lis %r7,0xf403
 182 0064 18E6D140 		e_ori %r6,%r7,16384
 183 0068 C176     		se_lwz %r7,4(%r6)
 184 006a 4815     		se_li %r5,1
 185 006c 74A707FE 		e_rlwimi %r7,%r5,0,31,31
 186 0070 D176     		se_stw %r7,4(%r6)
 187              		.loc 1 86 0
 188 0072 C261     		se_lwz %r6,8(%r1)
 189 0074 70E0E19B 		e_lis %r7,0x19b
 190 0078 70FFC4C0 		e_or2i %r7,64704
 191 007c 7F863840 		cmpl %cr7,%r6,%r7
 192 0080 7CE00026 		mfcr %r7
 193 0084 74E7E007 		e_rlwinm %r7,%r7,28,0xf0000000
 194 0088 7CE80120 		mtcrf 128,%r7
 195 008c 7A11001A 		e_bgt %cr0,.L8
 196              		.loc 1 88 0
 197 0090 70FEE403 		e_lis %r7,0xf403
 198 0094 18E6D140 		e_ori %r6,%r7,16384
 199 0098 C076     		se_lwz %r7,0(%r6)
 200 009a 4805     		se_li %r5,0
 201 009c 74A744EE 		e_rlwimi %r7,%r5,8,19,23
 202 00a0 D076     		se_stw %r7,0(%r6)
 203 00a2 7800004A 		e_b .L9
 204              	.L8:
 205              		.loc 1 89 0
 206 00a6 C261     		se_lwz %r6,8(%r1)
 207 00a8 70E0E337 		e_lis %r7,0x337
 208 00ac 70FFC180 		e_or2i %r7,63872
 209 00b0 7F863840 		cmpl %cr7,%r6,%r7
 210 00b4 7CE00026 		mfcr %r7
 211 00b8 74E7E007 		e_rlwinm %r7,%r7,28,0xf0000000
 212 00bc 7CE80120 		mtcrf 128,%r7
 213 00c0 7A11001A 		e_bgt %cr0,.L10
 214              		.loc 1 91 0
 215 00c4 70FEE403 		e_lis %r7,0xf403
 216 00c8 18E6D140 		e_ori %r6,%r7,16384
 217 00cc C076     		se_lwz %r7,0(%r6)
 218 00ce 4815     		se_li %r5,1
 219 00d0 74A744EE 		e_rlwimi %r7,%r5,8,19,23
 220 00d4 D076     		se_stw %r7,0(%r6)
 221 00d6 78000016 		e_b .L9
 222              	.L10:
 223              		.loc 1 94 0
 224 00da 70FEE403 		e_lis %r7,0xf403
 225 00de 18E6D140 		e_ori %r6,%r7,16384
 226 00e2 C076     		se_lwz %r7,0(%r6)
 227 00e4 4825     		se_li %r5,2
 228 00e6 74A744EE 		e_rlwimi %r7,%r5,8,19,23
GAS LISTING C:\Users\nascapro\AppData\Local\Temp\ccOkzjVz.s 			page 5


 229 00ea D076     		se_stw %r7,0(%r6)
 230              	.L9:
 231              		.loc 1 96 0
 232 00ec 70FEE403 		e_lis %r7,0xf403
 233 00f0 18E6D140 		e_ori %r6,%r7,16384
 234 00f4 C076     		se_lwz %r7,0(%r6)
 235 00f6 4845     		se_li %r5,4
 236 00f8 74A76C24 		e_rlwimi %r7,%r5,13,16,18
 237 00fc D076     		se_stw %r7,0(%r6)
 238              	.L6:
 239              		.loc 1 98 0
 240 00fe 20F1     		se_addi %r1,16
 241              	.LCFI1:
 242              		.cfi_def_cfa_offset 0
 243 0100 0004     		se_blr
 244              		.cfi_endproc
 245              	.LFE3:
 246              		.size	SPCSetPFlashController, .-SPCSetPFlashController
 247              		.section	.text.clockInit,"axv",@progbits
 248              		.align 1
 249              		.p2align 4,,15
 250              		.globl clockInit
 251              		.type	clockInit, @function
 252              	clockInit:
 253              	.LFB4:
 254              		.loc 1 113 0
 255              		.cfi_startproc
 256 0000 182106F8 		e_stwu %r1,-8(%r1)
 257              	.LCFI2:
 258              		.cfi_def_cfa_offset 8
 259 0004 0080     		se_mflr %r0
 260 0006 D301     		se_stw %r0,12(%r1)
 261              		.cfi_offset 65, 4
 262              		.loc 1 116 0
 263 0008 4843     		se_li %r3,4
 264 000a 78000001 		e_bl SPCSetRunMode
 265 000e 0137     		se_mr %r7,%r3
 266 0010 2207     		se_cmpli %r7,1
 267 0012 7F800020 		e_mcrf %cr7,%cr0
 268 0016 7CE00026 		mfcr %r7
 269 001a 74E7E007 		e_rlwinm %r7,%r7,28,0xf0000000
 270 001e 7CE80120 		mtcrf 128,%r7
 271 0022 7A020008 		e_bne %cr0,.L11
 272              		.loc 1 117 0
 273 0026 78000001 		e_bl irqSysHalt
 274              	.L11:
 275              		.loc 1 119 0
 276 002a C301     		se_lwz %r0,12(%r1)
 277 002c 0090     		se_mtlr %r0
 278 002e 2071     		se_addi %r1,8
 279              	.LCFI3:
 280              		.cfi_def_cfa_offset 0
 281 0030 0004     		se_blr
 282              		.cfi_endproc
 283              	.LFE4:
 284              		.size	clockInit, .-clockInit
 285              		.section	.text.spc_clock_init,"axv",@progbits
GAS LISTING C:\Users\nascapro\AppData\Local\Temp\ccOkzjVz.s 			page 6


 286              		.align 1
 287              		.p2align 4,,15
 288              		.globl spc_clock_init
 289              		.type	spc_clock_init, @function
 290              	spc_clock_init:
 291              	.LFB5:
 292              		.loc 1 128 0
 293              		.cfi_startproc
 294 0000 182106F8 		e_stwu %r1,-8(%r1)
 295              	.LCFI4:
 296              		.cfi_def_cfa_offset 8
 297 0004 0080     		se_mflr %r0
 298 0006 D301     		se_stw %r0,12(%r1)
 299              		.cfi_offset 65, 4
 300              		.loc 1 131 0
 301 0008 4400     		se_nop
 302              	.L14:
 303              		.loc 1 131 0 is_stmt 0 discriminator 1
 304 000a 70FEE7FB 		e_lis %r7,0xf7fb
 305 000e 6507     		se_bseti %r7,16
 306 0010 C077     		se_lwz %r7,0(%r7)
 307 0012 6847     		se_srwi %r7,4
 308 0014 2E17     		se_andi %r7,1
 309 0016 00C7     		se_extzb %r7
 310 0018 2A07     		se_cmpi %r7,0
 311 001a 7F800020 		e_mcrf %cr7,%cr0
 312 001e 7CE00026 		mfcr %r7
 313 0022 74E7E007 		e_rlwinm %r7,%r7,28,0xf0000000
 314 0026 7CE80120 		mtcrf 128,%r7
 315 002a 7A12FFE0 		e_beq %cr0,.L14
 316              		.loc 1 137 0 is_stmt 1
 317 002e 70FEE7FF 		e_lis %r7,0xf7ff
 318 0032 6507     		se_bseti %r7,16
 319 0034 4836     		se_li %r6,3
 320 0036 B367     		se_sth %r6,6(%r7)
 321              		.loc 1 142 0
 322 0038 78000001 		e_bl spc_clear_fccu_rgm
 323              		.loc 1 147 0
 324 003c 70FEE7FB 		e_lis %r7,0xf7fb
 325 0040 6507     		se_bseti %r7,16
 326 0042 C077     		se_lwz %r7,0(%r7)
 327 0044 69C7     		se_srwi %r7,28
 328 0046 00C7     		se_extzb %r7
 329 0048 2227     		se_cmpli %r7,3
 330 004a 7F800020 		e_mcrf %cr7,%cr0
 331 004e 7CE00026 		mfcr %r7
 332 0052 74E7E007 		e_rlwinm %r7,%r7,28,0xf0000000
 333 0056 7CE80120 		mtcrf 128,%r7
 334 005a 7A120008 		e_beq %cr0,.L15
 335              		.loc 1 148 0
 336 005e 78000001 		e_bl irqSysHalt
 337              	.L15:
 338              		.loc 1 161 0
 339 0062 70FEE7FB 		e_lis %r7,0xf7fb
 340 0066 18E6D102 		e_ori %r6,%r7,512
 341 006a C076     		se_lwz %r7,0(%r6)
 342 006c 4835     		se_li %r5,3
GAS LISTING C:\Users\nascapro\AppData\Local\Temp\ccOkzjVz.s 			page 7


 343 006e 74A70F7C 		e_rlwimi %r7,%r5,1,29,30
 344 0072 D076     		se_stw %r7,0(%r6)
 345              		.loc 1 164 0
 346 0074 70FEE7FB 		e_lis %r7,0xf7fb
 347 0078 18E7D106 		e_ori %r7,%r7,1536
 348 007c 6206     		se_bgeni %r6,0
 349 007e 54C701E8 		e_stw %r6,488(%r7)
 350              		.loc 1 165 0
 351 0082 70FEE7FB 		e_lis %r7,0xf7fb
 352 0086 18E7D106 		e_ori %r7,%r7,1536
 353 008a 70D0E001 		e_lis %r6,0x8001
 354 008e 54C701EC 		e_stw %r6,492(%r7)
 355              		.loc 1 166 0
 356 0092 70FEE7FB 		e_lis %r7,0xf7fb
 357 0096 18E7D106 		e_ori %r7,%r7,1536
 358 009a 70D0E001 		e_lis %r6,0x8001
 359 009e 54C701F0 		e_stw %r6,496(%r7)
 360              		.loc 1 167 0
 361 00a2 70FEE7FB 		e_lis %r7,0xf7fb
 362 00a6 18E7D106 		e_ori %r7,%r7,1536
 363 00aa 6206     		se_bgeni %r6,0
 364 00ac 54C701F4 		e_stw %r6,500(%r7)
 365              		.loc 1 168 0
 366 00b0 70FEE7FB 		e_lis %r7,0xf7fb
 367 00b4 18E7D106 		e_ori %r7,%r7,1536
 368 00b8 6206     		se_bgeni %r6,0
 369 00ba 54C701F8 		e_stw %r6,504(%r7)
 370              		.loc 1 171 0
 371 00be 70FEE7FB 		e_lis %r7,0xf7fb
 372 00c2 18E7D106 		e_ori %r7,%r7,1536
 373 00c6 70D0E013 		e_lis %r6,0x8013
 374 00ca 54C70208 		e_stw %r6,520(%r7)
 375              		.loc 1 172 0
 376 00ce 70FEE7FB 		e_lis %r7,0xf7fb
 377 00d2 18E7D106 		e_ori %r7,%r7,1536
 378 00d6 70D0E007 		e_lis %r6,0x8007
 379 00da 54C7020C 		e_stw %r6,524(%r7)
 380              		.loc 1 173 0
 381 00de 70FEE7FB 		e_lis %r7,0xf7fb
 382 00e2 18E7D106 		e_ori %r7,%r7,1536
 383 00e6 4806     		se_li %r6,0
 384 00e8 54C702C8 		e_stw %r6,712(%r7)
 385              		.loc 1 174 0
 386 00ec 70FEE7FB 		e_lis %r7,0xf7fb
 387 00f0 18E7D106 		e_ori %r7,%r7,1536
 388 00f4 6206     		se_bgeni %r6,0
 389 00f6 54C70308 		e_stw %r6,776(%r7)
 390              		.loc 1 175 0
 391 00fa 70FEE7FB 		e_lis %r7,0xf7fb
 392 00fe 18E7D106 		e_ori %r7,%r7,1536
 393 0102 6206     		se_bgeni %r6,0
 394 0104 54C70328 		e_stw %r6,808(%r7)
 395              		.loc 1 176 0
 396 0108 70FEE7FB 		e_lis %r7,0xf7fb
 397 010c 18E7D106 		e_ori %r7,%r7,1536
 398 0110 6206     		se_bgeni %r6,0
 399 0112 54C70368 		e_stw %r6,872(%r7)
GAS LISTING C:\Users\nascapro\AppData\Local\Temp\ccOkzjVz.s 			page 8


 400              		.loc 1 177 0
 401 0116 70FEE7FB 		e_lis %r7,0xf7fb
 402 011a 18E7D106 		e_ori %r7,%r7,1536
 403 011e 70D0E003 		e_lis %r6,0x8003
 404 0122 54C70388 		e_stw %r6,904(%r7)
 405              		.loc 1 178 0
 406 0126 70FEE7FB 		e_lis %r7,0xf7fb
 407 012a 18E7D106 		e_ori %r7,%r7,1536
 408 012e 70D0E003 		e_lis %r6,0x8003
 409 0132 54C7038C 		e_stw %r6,908(%r7)
 410              		.loc 1 179 0
 411 0136 70FEE7FB 		e_lis %r7,0xf7fb
 412 013a 18E7D106 		e_ori %r7,%r7,1536
 413 013e 70D0E003 		e_lis %r6,0x8003
 414 0142 54C70390 		e_stw %r6,912(%r7)
 415              		.loc 1 182 0
 416 0146 70FEE7FB 		e_lis %r7,0xf7fb
 417 014a 18E7D106 		e_ori %r7,%r7,1536
 418 014e 6266     		se_bgeni %r6,6
 419 0150 54C70200 		e_stw %r6,512(%r7)
 420              		.loc 1 183 0
 421 0154 70FEE7FB 		e_lis %r7,0xf7fb
 422 0158 18E7D106 		e_ori %r7,%r7,1536
 423 015c 6276     		se_bgeni %r6,7
 424 015e 54C70260 		e_stw %r6,608(%r7)
 425              		.loc 1 184 0
 426 0162 70FEE7FB 		e_lis %r7,0xf7fb
 427 0166 18E7D106 		e_ori %r7,%r7,1536
 428 016a 70C0E300 		e_lis %r6,0x300
 429 016e 54C70280 		e_stw %r6,640(%r7)
 430              		.loc 1 185 0
 431 0172 70FEE7F9 		e_lis %r7,0xf7f9
 432 0176 18E6D140 		e_ori %r6,%r7,16384
 433 017a C176     		se_lwz %r7,4(%r6)
 434 017c 4815     		se_li %r5,1
 435 017e 74A764A6 		e_rlwimi %r7,%r5,12,18,19
 436 0182 D176     		se_stw %r7,4(%r6)
 437              		.loc 1 186 0
 438 0184 70FEE7FB 		e_lis %r7,0xf7fb
 439 0188 18E7D106 		e_ori %r7,%r7,1536
 440 018c 6256     		se_bgeni %r6,5
 441 018e 54C702C0 		e_stw %r6,704(%r7)
 442              		.loc 1 187 0
 443 0192 70FEE7FB 		e_lis %r7,0xf7fb
 444 0196 18E7D106 		e_ori %r7,%r7,1536
 445 019a 6276     		se_bgeni %r6,7
 446 019c 54C70300 		e_stw %r6,768(%r7)
 447              		.loc 1 188 0
 448 01a0 70FEE7FB 		e_lis %r7,0xf7fb
 449 01a4 18E7D106 		e_ori %r7,%r7,1536
 450 01a8 6276     		se_bgeni %r6,7
 451 01aa 54C70320 		e_stw %r6,800(%r7)
 452              		.loc 1 189 0
 453 01ae 70FEE7FB 		e_lis %r7,0xf7fb
 454 01b2 18E7D106 		e_ori %r7,%r7,1536
 455 01b6 6276     		se_bgeni %r6,7
 456 01b8 54C70360 		e_stw %r6,864(%r7)
GAS LISTING C:\Users\nascapro\AppData\Local\Temp\ccOkzjVz.s 			page 9


 457              		.loc 1 190 0
 458 01bc 70FEE7FB 		e_lis %r7,0xf7fb
 459 01c0 18E7D106 		e_ori %r7,%r7,1536
 460 01c4 6266     		se_bgeni %r6,6
 461 01c6 54C70380 		e_stw %r6,896(%r7)
 462              		.loc 1 195 0
 463 01ca 70FEE7FB 		e_lis %r7,0xf7fb
 464 01ce 6507     		se_bseti %r7,16
 465 01d0 70C0E013 		e_lis %r6,0x13
 466 01d4 18C6D030 		e_ori %r6,%r6,48
 467 01d8 DB67     		se_stw %r6,44(%r7)
 468              		.loc 1 198 0
 469 01da 4833     		se_li %r3,3
 470 01dc 78000001 		e_bl SPCSetRunMode
 471 01e0 0137     		se_mr %r7,%r3
 472 01e2 2207     		se_cmpli %r7,1
 473 01e4 7F800020 		e_mcrf %cr7,%cr0
 474 01e8 7CE00026 		mfcr %r7
 475 01ec 74E7E007 		e_rlwinm %r7,%r7,28,0xf0000000
 476 01f0 7CE80120 		mtcrf 128,%r7
 477 01f4 7A020008 		e_bne %cr0,.L16
 478              		.loc 1 199 0
 479 01f8 78000001 		e_bl irqSysHalt
 480              	.L16:
 481              		.loc 1 204 0
 482 01fc 70FEE7FB 		e_lis %r7,0xf7fb
 483 0200 6577     		se_bseti %r7,23
 484 0202 4806     		se_li %r6,0
 485 0204 D067     		se_stw %r6,0(%r7)
 486              		.loc 1 205 0
 487 0206 70FEE7FB 		e_lis %r7,0xf7fb
 488 020a 6577     		se_bseti %r7,23
 489 020c 70C8E002 		e_lis %r6,0x4002
 490 0210 70C4C020 		e_or2i %r6,8224
 491 0214 D267     		se_stw %r6,8(%r7)
 492              		.loc 1 209 0
 493 0216 70FEE7FB 		e_lis %r7,0xf7fb
 494 021a 6577     		se_bseti %r7,23
 495 021c 4806     		se_li %r6,0
 496 021e D867     		se_stw %r6,32(%r7)
 497              		.loc 1 210 0
 498 0220 70FEE7FB 		e_lis %r7,0xf7fb
 499 0224 6577     		se_bseti %r7,23
 500 0226 62C6     		se_bgeni %r6,12
 501 0228 65B6     		se_bseti %r6,27
 502 022a DA67     		se_stw %r6,40(%r7)
 503              		.loc 1 216 0
 504 022c 70FEE7FB 		e_lis %r7,0xf7fb
 505 0230 6507     		se_bseti %r7,16
 506 0232 4886     		se_li %r6,8
 507 0234 D367     		se_stw %r6,12(%r7)
 508              		.loc 1 217 0
 509 0236 70FEE7FB 		e_lis %r7,0xf7fb
 510 023a 6507     		se_bseti %r7,16
 511 023c 70C405FD 		e_li %r6,9725
 512 0240 D267     		se_stw %r6,8(%r7)
 513              		.loc 1 218 0
GAS LISTING C:\Users\nascapro\AppData\Local\Temp\ccOkzjVz.s 			page 10


 514 0242 70FEE7FB 		e_lis %r7,0xf7fb
 515 0246 6507     		se_bseti %r7,16
 516 0248 70C0E093 		e_lis %r6,0x93
 517 024c 65B6     		se_bseti %r6,27
 518 024e DA67     		se_stw %r6,40(%r7)
 519              		.loc 1 219 0
 520 0250 70FEE7FB 		e_lis %r7,0xf7fb
 521 0254 6507     		se_bseti %r7,16
 522 0256 70C0E013 		e_lis %r6,0x13
 523 025a 18C6D0F4 		e_ori %r6,%r6,244
 524 025e DB67     		se_stw %r6,44(%r7)
 525              		.loc 1 220 0
 526 0260 70FEE7FB 		e_lis %r7,0xf7fb
 527 0264 6507     		se_bseti %r7,16
 528 0266 70C0E013 		e_lis %r6,0x13
 529 026a 18C6D0F4 		e_ori %r6,%r6,244
 530 026e DC67     		se_stw %r6,48(%r7)
 531              		.loc 1 221 0
 532 0270 70FEE7FB 		e_lis %r7,0xf7fb
 533 0274 6507     		se_bseti %r7,16
 534 0276 70C0E013 		e_lis %r6,0x13
 535 027a 65B6     		se_bseti %r6,27
 536 027c DD67     		se_stw %r6,52(%r7)
 537              		.loc 1 222 0
 538 027e 70FEE7FB 		e_lis %r7,0xf7fb
 539 0282 6507     		se_bseti %r7,16
 540 0284 70C0E013 		e_lis %r6,0x13
 541 0288 65B6     		se_bseti %r6,27
 542 028a DE67     		se_stw %r6,56(%r7)
 543              		.loc 1 223 0
 544 028c 70FEE7FB 		e_lis %r7,0xf7fb
 545 0290 6507     		se_bseti %r7,16
 546 0292 70C0E013 		e_lis %r6,0x13
 547 0296 65B6     		se_bseti %r6,27
 548 0298 DF67     		se_stw %r6,60(%r7)
 549              		.loc 1 224 0
 550 029a 70FEE7FB 		e_lis %r7,0xf7fb
 551 029e 6507     		se_bseti %r7,16
 552 02a0 70C0E012 		e_lis %r6,0x12
 553 02a4 65B6     		se_bseti %r6,27
 554 02a6 54C70040 		e_stw %r6,64(%r7)
 555              		.loc 1 225 0
 556 02aa 70FEE7FB 		e_lis %r7,0xf7fb
 557 02ae 6507     		se_bseti %r7,16
 558 02b0 70C0E011 		e_lis %r6,0x11
 559 02b4 65B6     		se_bseti %r6,27
 560 02b6 54C70048 		e_stw %r6,72(%r7)
 561              		.loc 1 226 0
 562 02ba 70FEE7FB 		e_lis %r7,0xf7fb
 563 02be 6507     		se_bseti %r7,16
 564 02c0 70C0E081 		e_lis %r6,0x81
 565 02c4 18C6D01F 		e_ori %r6,%r6,31
 566 02c8 54C70054 		e_stw %r6,84(%r7)
 567              		.loc 1 227 0
 568 02cc 70FEE7FB 		e_lis %r7,0xf7fb
 569 02d0 6507     		se_bseti %r7,16
 570 02d2 C377     		se_lwz %r7,12(%r7)
GAS LISTING C:\Users\nascapro\AppData\Local\Temp\ccOkzjVz.s 			page 11


 571 02d4 6837     		se_srwi %r7,3
 572 02d6 2E17     		se_andi %r7,1
 573 02d8 00C7     		se_extzb %r7
 574 02da 2207     		se_cmpli %r7,1
 575 02dc 7F800020 		e_mcrf %cr7,%cr0
 576 02e0 7CE00026 		mfcr %r7
 577 02e4 74E7E007 		e_rlwinm %r7,%r7,28,0xf0000000
 578 02e8 7CE80120 		mtcrf 128,%r7
 579 02ec 7A020008 		e_bne %cr0,.L17
 580              		.loc 1 229 0
 581 02f0 78000001 		e_bl irqSysHalt
 582              	.L17:
 583              		.loc 1 233 0
 584 02f4 70FEE7FB 		e_lis %r7,0xf7fb
 585 02f8 6507     		se_bseti %r7,16
 586 02fa 4806     		se_li %r6,0
 587 02fc 54C70080 		e_stw %r6,128(%r7)
 588              		.loc 1 234 0
 589 0300 70FEE7FB 		e_lis %r7,0xf7fb
 590 0304 6507     		se_bseti %r7,16
 591 0306 70C000FC 		e_li %r6,252
 592 030a 54C70084 		e_stw %r6,132(%r7)
 593              		.loc 1 235 0
 594 030e 70FEE7FB 		e_lis %r7,0xf7fb
 595 0312 6507     		se_bseti %r7,16
 596 0314 70C000F8 		e_li %r6,248
 597 0318 54C70088 		e_stw %r6,136(%r7)
 598              		.loc 1 236 0
 599 031c 70FEE7FB 		e_lis %r7,0xf7fb
 600 0320 6507     		se_bseti %r7,16
 601 0322 4806     		se_li %r6,0
 602 0324 54C7008C 		e_stw %r6,140(%r7)
 603              		.loc 1 237 0
 604 0328 70FEE7FB 		e_lis %r7,0xf7fb
 605 032c 6507     		se_bseti %r7,16
 606 032e 4806     		se_li %r6,0
 607 0330 54C70090 		e_stw %r6,144(%r7)
 608              		.loc 1 238 0
 609 0334 70FEE7FB 		e_lis %r7,0xf7fb
 610 0338 6507     		se_bseti %r7,16
 611 033a 4806     		se_li %r6,0
 612 033c 54C70094 		e_stw %r6,148(%r7)
 613              		.loc 1 239 0
 614 0340 70FEE7FB 		e_lis %r7,0xf7fb
 615 0344 6507     		se_bseti %r7,16
 616 0346 4806     		se_li %r6,0
 617 0348 54C70098 		e_stw %r6,152(%r7)
 618              		.loc 1 240 0
 619 034c 70FEE7FB 		e_lis %r7,0xf7fb
 620 0350 6507     		se_bseti %r7,16
 621 0352 4806     		se_li %r6,0
 622 0354 54C7009C 		e_stw %r6,156(%r7)
 623              		.loc 1 241 0
 624 0358 70FEE7FB 		e_lis %r7,0xf7fb
 625 035c 6507     		se_bseti %r7,16
 626 035e 4806     		se_li %r6,0
 627 0360 54C700A0 		e_stw %r6,160(%r7)
GAS LISTING C:\Users\nascapro\AppData\Local\Temp\ccOkzjVz.s 			page 12


 628              		.loc 1 242 0
 629 0364 70FEE7FB 		e_lis %r7,0xf7fb
 630 0368 6507     		se_bseti %r7,16
 631 036a 70C40500 		e_li %r6,9472
 632 036e 54C700A4 		e_stw %r6,164(%r7)
 633              		.loc 1 243 0
 634 0372 70FEE7FB 		e_lis %r7,0xf7fb
 635 0376 6507     		se_bseti %r7,16
 636 0378 6376     		se_bgeni %r6,23
 637 037a 54C700A8 		e_stw %r6,168(%r7)
 638              		.loc 1 244 0
 639 037e 70FEE7FB 		e_lis %r7,0xf7fb
 640 0382 6507     		se_bseti %r7,16
 641 0384 6356     		se_bgeni %r6,21
 642 0386 54C700AC 		e_stw %r6,172(%r7)
 643              		.loc 1 245 0
 644 038a 70FEE7FB 		e_lis %r7,0xf7fb
 645 038e 6507     		se_bseti %r7,16
 646 0390 4806     		se_li %r6,0
 647 0392 54C700B0 		e_stw %r6,176(%r7)
 648              		.loc 1 246 0
 649 0396 70FEE7FB 		e_lis %r7,0xf7fb
 650 039a 6507     		se_bseti %r7,16
 651 039c 4806     		se_li %r6,0
 652 039e 54C700B4 		e_stw %r6,180(%r7)
 653              		.loc 1 247 0
 654 03a2 70FEE7FB 		e_lis %r7,0xf7fb
 655 03a6 6507     		se_bseti %r7,16
 656 03a8 4806     		se_li %r6,0
 657 03aa 54C700B8 		e_stw %r6,184(%r7)
 658              		.loc 1 248 0
 659 03ae 70FEE7FB 		e_lis %r7,0xf7fb
 660 03b2 6507     		se_bseti %r7,16
 661 03b4 4806     		se_li %r6,0
 662 03b6 54C700BC 		e_stw %r6,188(%r7)
 663              		.loc 1 251 0
 664 03ba 70E0E4C4 		e_lis %r7,0x4c4
 665 03be 18E3D1B4 		e_ori %r3,%r7,46080
 666 03c2 78000001 		e_bl SPCSetPFlashController
 667              		.loc 1 255 0
 668 03c6 4833     		se_li %r3,3
 669 03c8 78000001 		e_bl SPCSetRunMode
 670 03cc 0137     		se_mr %r7,%r3
 671 03ce 2207     		se_cmpli %r7,1
 672 03d0 7F800020 		e_mcrf %cr7,%cr0
 673 03d4 7CE00026 		mfcr %r7
 674 03d8 74E7E007 		e_rlwinm %r7,%r7,28,0xf0000000
 675 03dc 7CE80120 		mtcrf 128,%r7
 676 03e0 7A020008 		e_bne %cr0,.L13
 677              		.loc 1 256 0
 678 03e4 78000001 		e_bl irqSysHalt
 679              	.L13:
 680              		.loc 1 260 0
 681 03e8 C301     		se_lwz %r0,12(%r1)
 682 03ea 0090     		se_mtlr %r0
 683 03ec 2071     		se_addi %r1,8
 684              	.LCFI5:
GAS LISTING C:\Users\nascapro\AppData\Local\Temp\ccOkzjVz.s 			page 13


 685              		.cfi_def_cfa_offset 0
 686 03ee 0004     		se_blr
 687              		.cfi_endproc
 688              	.LFE5:
 689              		.size	spc_clock_init, .-spc_clock_init
 690              		.section	.text.__early_init,"axv",@progbits
 691              		.align 1
 692              		.p2align 4,,15
 693              		.globl __early_init
 694              		.type	__early_init, @function
 695              	__early_init:
 696              	.LFB6:
 697              		.loc 1 269 0
 698              		.cfi_startproc
 699 0000 182106F8 		e_stwu %r1,-8(%r1)
 700              	.LCFI6:
 701              		.cfi_def_cfa_offset 8
 702 0004 0080     		se_mflr %r0
 703 0006 D301     		se_stw %r0,12(%r1)
 704              		.cfi_offset 65, 4
 705              		.loc 1 271 0
 706 0008 78000001 		e_bl spc_clock_init
 707              		.loc 1 272 0
 708 000c C301     		se_lwz %r0,12(%r1)
 709 000e 0090     		se_mtlr %r0
 710 0010 2071     		se_addi %r1,8
 711              	.LCFI7:
 712              		.cfi_def_cfa_offset 0
 713 0012 0004     		se_blr
 714              		.cfi_endproc
 715              	.LFE6:
 716              		.size	__early_init, .-__early_init
 717              		.section	.text.SPCSetRunMode,"axv",@progbits
 718              		.align 1
 719              		.p2align 4,,15
 720              		.globl SPCSetRunMode
 721              		.type	SPCSetRunMode, @function
 722              	SPCSetRunMode:
 723              	.LFB7:
 724              		.loc 1 283 0
 725              		.cfi_startproc
 726 0000 182106F0 		e_stwu %r1,-16(%r1)
 727              	.LCFI8:
 728              		.cfi_def_cfa_offset 16
 729 0004 0137     		se_mr %r7,%r3
 730 0006 9871     		se_stb %r7,8(%r1)
 731              		.loc 1 286 0
 732 0008 70FEE7FB 		e_lis %r7,0xf7fb
 733 000c 6507     		se_bseti %r7,16
 734 000e 4BF6     		se_li %r6,63
 735 0010 D367     		se_stw %r6,12(%r7)
 736              		.loc 1 289 0
 737 0012 70FEE7FB 		e_lis %r7,0xf7fb
 738 0016 6507     		se_bseti %r7,16
 739 0018 8861     		se_lbz %r6,8(%r1)
 740 001a 00C6     		se_extzb %r6
 741 001c 6DC6     		se_slwi %r6, 28
GAS LISTING C:\Users\nascapro\AppData\Local\Temp\ccOkzjVz.s 			page 14


 742 001e 70CBC2F0 		e_or2i %r6,23280
 743 0022 D167     		se_stw %r6,4(%r7)
 744              		.loc 1 290 0
 745 0024 70FEE7FB 		e_lis %r7,0xf7fb
 746 0028 6507     		se_bseti %r7,16
 747 002a 8861     		se_lbz %r6,8(%r1)
 748 002c 00C6     		se_extzb %r6
 749 002e 6DC6     		se_slwi %r6, 28
 750 0030 70D4C50F 		e_or2i %r6,42255
 751 0034 D167     		se_stw %r6,4(%r7)
 752              		.loc 1 293 0
 753 0036 4400     		se_nop
 754              	.L21:
 755              		.loc 1 293 0 is_stmt 0 discriminator 1
 756 0038 70FEE7FB 		e_lis %r7,0xf7fb
 757 003c 6507     		se_bseti %r7,16
 758 003e C377     		se_lwz %r7,12(%r7)
 759 0040 2A07     		se_cmpi %r7,0
 760 0042 7F800020 		e_mcrf %cr7,%cr0
 761 0046 7CE00026 		mfcr %r7
 762 004a 74E7E007 		e_rlwinm %r7,%r7,28,0xf0000000
 763 004e 7CE80120 		mtcrf 128,%r7
 764 0052 7A12FFE6 		e_beq %cr0,.L21
 765              		.loc 1 297 0 is_stmt 1
 766 0056 70FEE7FB 		e_lis %r7,0xf7fb
 767 005a 6507     		se_bseti %r7,16
 768 005c C377     		se_lwz %r7,12(%r7)
 769 005e 2E17     		se_andi %r7,1
 770 0060 00C7     		se_extzb %r7
 771 0062 2207     		se_cmpli %r7,1
 772 0064 7F800020 		e_mcrf %cr7,%cr0
 773 0068 7CE00026 		mfcr %r7
 774 006c 74E7E007 		e_rlwinm %r7,%r7,28,0xf0000000
 775 0070 7CE80120 		mtcrf 128,%r7
 776 0074 7A02000A 		e_bne %cr0,.L22
 777              		.loc 1 298 0
 778 0078 4807     		se_li %r7,0
 779 007a 78000006 		e_b .L23
 780              	.L22:
 781              		.loc 1 300 0
 782 007e 4817     		se_li %r7,1
 783              	.L23:
 784              		.loc 1 302 0
 785 0080 0173     		se_mr %r3,%r7
 786 0082 20F1     		se_addi %r1,16
 787              	.LCFI9:
 788              		.cfi_def_cfa_offset 0
 789 0084 0004     		se_blr
 790              		.cfi_endproc
 791              	.LFE7:
 792              		.size	SPCSetRunMode, .-SPCSetRunMode
 793              		.section	.text.SPCSetPeripheralClockMode,"axv",@progbits
 794              		.align 1
 795              		.p2align 4,,15
 796              		.globl SPCSetPeripheralClockMode
 797              		.type	SPCSetPeripheralClockMode, @function
 798              	SPCSetPeripheralClockMode:
GAS LISTING C:\Users\nascapro\AppData\Local\Temp\ccOkzjVz.s 			page 15


 799              	.LFB8:
 800              		.loc 1 312 0
 801              		.cfi_startproc
 802 0000 182106E0 		e_stwu %r1,-32(%r1)
 803              	.LCFI10:
 804              		.cfi_def_cfa_offset 32
 805 0004 0080     		se_mflr %r0
 806 0006 D901     		se_stw %r0,36(%r1)
 807              		.cfi_offset 65, 4
 808 0008 D631     		se_stw %r3,24(%r1)
 809 000a D741     		se_stw %r4,28(%r1)
 810              		.loc 1 315 0
 811 000c 70FEE7FB 		e_lis %r7,0xf7fb
 812 0010 18E5D180 		e_ori %r5,%r7,32768
 813 0014 C771     		se_lwz %r7,28(%r1)
 814 0016 74E6063F 		e_rlwinm %r6,%r7,0,0xff
 815 001a C671     		se_lwz %r7,24(%r1)
 816 001c 7CE53A14 		add %r7,%r5,%r7
 817 0020 18E780C0 		e_addi %r7,%r7,192
 818 0024 9067     		se_stb %r6,0(%r7)
 819              		.loc 1 316 0
 820 0026 70FEE7FB 		e_lis %r7,0xf7fb
 821 002a 6507     		se_bseti %r7,16
 822 002c C177     		se_lwz %r7,4(%r7)
 823 002e 69C7     		se_srwi %r7,28
 824 0030 00C7     		se_extzb %r7
 825 0032 9871     		se_stb %r7,8(%r1)
 826              		.loc 1 317 0
 827 0034 8871     		se_lbz %r7,8(%r1)
 828 0036 00C7     		se_extzb %r7
 829 0038 0173     		se_mr %r3,%r7
 830 003a 78000001 		e_bl SPCSetRunMode
 831 003e 0137     		se_mr %r7,%r3
 832 0040 2207     		se_cmpli %r7,1
 833 0042 7F800020 		e_mcrf %cr7,%cr0
 834 0046 7CE00026 		mfcr %r7
 835 004a 74E7E007 		e_rlwinm %r7,%r7,28,0xf0000000
 836 004e 7CE80120 		mtcrf 128,%r7
 837 0052 7A020008 		e_bne %cr0,.L24
 838              		.loc 1 318 0
 839 0056 78000001 		e_bl irqSysHalt
 840              	.L24:
 841              		.loc 1 320 0
 842 005a C901     		se_lwz %r0,36(%r1)
 843 005c 0090     		se_mtlr %r0
 844 005e 21F1     		se_addi %r1,32
 845              	.LCFI11:
 846              		.cfi_def_cfa_offset 0
 847 0060 0004     		se_blr
 848              		.cfi_endproc
 849              	.LFE8:
 850              		.size	SPCSetPeripheralClockMode, .-SPCSetPeripheralClockMode
 851              		.section	.text.SPCGetSystemClock,"axv",@progbits
 852              		.align 1
 853              		.p2align 4,,15
 854              		.globl SPCGetSystemClock
 855              		.type	SPCGetSystemClock, @function
GAS LISTING C:\Users\nascapro\AppData\Local\Temp\ccOkzjVz.s 			page 16


 856              	SPCGetSystemClock:
 857              	.LFB9:
 858              		.loc 1 328 0
 859              		.cfi_startproc
 860 0000 182106E8 		e_stwu %r1,-24(%r1)
 861              	.LCFI12:
 862              		.cfi_def_cfa_offset 24
 863              		.loc 1 332 0
 864 0004 70FEE7FB 		e_lis %r7,0xf7fb
 865 0008 18E7D106 		e_ori %r7,%r7,1536
 866 000c 50E701E8 		e_lwz %r7,488(%r7)
 867 0010 69F7     		se_srwi %r7,31
 868 0012 00C7     		se_extzb %r7
 869 0014 2A07     		se_cmpi %r7,0
 870 0016 7F800020 		e_mcrf %cr7,%cr0
 871 001a 7CE00026 		mfcr %r7
 872 001e 74E7E007 		e_rlwinm %r7,%r7,28,0xf0000000
 873 0022 7CE80120 		mtcrf 128,%r7
 874 0026 7A02000C 		e_bne %cr0,.L27
 875              		.loc 1 333 0
 876 002a 4817     		se_li %r7,1
 877 002c D271     		se_stw %r7,8(%r1)
 878 002e 7800001C 		e_b .L28
 879              	.L27:
 880              		.loc 1 335 0
 881 0032 70FEE7FB 		e_lis %r7,0xf7fb
 882 0036 18E7D106 		e_ori %r7,%r7,1536
 883 003a 50E701E8 		e_lwz %r7,488(%r7)
 884 003e 6907     		se_srwi %r7,16
 885 0040 18E7C03F 		e_andi %r7,%r7,63
 886 0044 00C7     		se_extzb %r7
 887 0046 2007     		se_addi %r7,1
 888 0048 D271     		se_stw %r7,8(%r1)
 889              	.L28:
 890              		.loc 1 338 0
 891 004a 70FEE7FB 		e_lis %r7,0xf7fb
 892 004e 6507     		se_bseti %r7,16
 893 0050 C077     		se_lwz %r7,0(%r7)
 894 0052 2EF7     		se_andi %r7,15
 895 0054 00C7     		se_extzb %r7
 896 0056 D371     		se_stw %r7,12(%r1)
 897              		.loc 1 339 0
 898 0058 C371     		se_lwz %r7,12(%r1)
 899 005a 2237     		se_cmpli %r7,4
 900 005c 7F800020 		e_mcrf %cr7,%cr0
 901 0060 7CE00026 		mfcr %r7
 902 0064 74E7E007 		e_rlwinm %r7,%r7,28,0xf0000000
 903 0068 7CE80120 		mtcrf 128,%r7
 904 006c 7A110070 		e_bgt %cr0,.L29
 905 0070 C371     		se_lwz %r7,12(%r1)
 906 0072 7CE61070 		e_slwi %r6,%r7,2
 907 0076 70E0E000 		e_lis %r7,.L31@ha
 908 007a 1CE70000 		e_la %r7,.L31@l(%r7)
 909 007e 7CE63A14 		add %r7,%r6,%r7
 910 0082 C067     		se_lwz %r6,0(%r7)
 911 0084 70E0E000 		e_lis %r7,.L31@ha
 912 0088 1CE70000 		e_la %r7,.L31@l(%r7)
GAS LISTING C:\Users\nascapro\AppData\Local\Temp\ccOkzjVz.s 			page 17


 913 008c 7CE63A14 		add %r7,%r6,%r7
 914 0090 00B7     		se_mtctr %r7
 915 0092 0006     		se_bctr
 916              		.section	.rodata.SPCGetSystemClock,"a",@progbits
 917              		.align 2
 918              		.align 2
 919              	.L31:
 920 0000 00000000 		.long .L30-.L31
 921 0004 00000000 		.long .L32-.L31
 922 0008 00000000 		.long .L33-.L31
 923 000c 00000000 		.long .L29-.L31
 924 0010 00000000 		.long .L34-.L31
 925              		.section	.text.SPCGetSystemClock
 926              	.L30:
 927              		.loc 1 341 0
 928 0094 70E0E0F4 		e_lis %r7,0xf4
 929 0098 18E6D124 		e_ori %r6,%r7,9216
 930 009c C271     		se_lwz %r7,8(%r1)
 931 009e 7CE63B96 		divwu %r7,%r6,%r7
 932 00a2 7800003C 		e_b .L35
 933              	.L32:
 934              		.loc 1 343 0
 935 00a6 70E0E262 		e_lis %r7,0x262
 936 00aa 18E6D15A 		e_ori %r6,%r7,23040
 937 00ae C271     		se_lwz %r7,8(%r1)
 938 00b0 7CE63B96 		divwu %r7,%r6,%r7
 939 00b4 7800002A 		e_b .L35
 940              	.L33:
 941              		.loc 1 345 0
 942 00b8 70E2E312 		e_lis %r7,0x1312
 943 00bc 18E6D1D0 		e_ori %r6,%r7,53248
 944 00c0 C271     		se_lwz %r7,8(%r1)
 945 00c2 7CE63B96 		divwu %r7,%r6,%r7
 946 00c6 78000018 		e_b .L35
 947              	.L34:
 948              		.loc 1 347 0
 949 00ca 70E0E4C4 		e_lis %r7,0x4c4
 950 00ce 18E6D1B4 		e_ori %r6,%r7,46080
 951 00d2 C271     		se_lwz %r7,8(%r1)
 952 00d4 7CE63B96 		divwu %r7,%r6,%r7
 953 00d8 78000006 		e_b .L35
 954              	.L29:
 955              		.loc 1 349 0
 956 00dc 4807     		se_li %r7,0
 957              	.L35:
 958              		.loc 1 351 0
 959 00de 0173     		se_mr %r3,%r7
 960 00e0 2171     		se_addi %r1,24
 961              	.LCFI13:
 962              		.cfi_def_cfa_offset 0
 963 00e2 0004     		se_blr
 964              		.cfi_endproc
 965              	.LFE9:
 966              		.size	SPCGetSystemClock, .-SPCGetSystemClock
 967              		.section	".text","axv"
 968              	.Letext0:
 969              		.file 2 "c:\\autodevkitstudio-2.1\\eclipse\\plugins\\com.st.tools.spc5.tools.gnu.gcc.ppcvle.win32_
GAS LISTING C:\Users\nascapro\AppData\Local\Temp\ccOkzjVz.s 			page 18


 970              		.file 3 "c:\\autodevkitstudio-2.1\\eclipse\\plugins\\com.st.tools.spc5.tools.gnu.gcc.ppcvle.win32_
 971              		.file 4 "./components/spc582bxx_platform_component_rla/lib/include/typedefs.h"
 972              		.file 5 "./components/spc582bxx_platform_component_rla/lib/include/spc582b.h"