GAS LISTING C:\Users\cerru\AppData\Local\Temp\ccw0PoOE.s 			page 1


   1              		.file	"EV_VNHx7xxx.c"
   2              		.section	".text","axv"
   3              	.Ltext0:
   4              		.cfi_sections	.debug_frame
   5              		.globl PrevpwmStart
   6              		.section	.bss.PrevpwmStart,"aw",@nobits
   7              		.align 2
   8              		.type	PrevpwmStart, @object
   9              		.size	PrevpwmStart, 4
  10              	PrevpwmStart:
  11 0000 00000000 		.zero	4
  12              		.globl INA
  13              		.section	.bss.INA,"aw",@nobits
  14              		.type	INA, @object
  15              		.size	INA, 1
  16              	INA:
  17 0000 00       		.zero	1
  18              		.globl INB
  19              		.section	.bss.INB,"aw",@nobits
  20              		.type	INB, @object
  21              		.size	INB, 1
  22              	INB:
  23 0000 00       		.zero	1
  24              		.globl SEL0
  25              		.section	.bss.SEL0,"aw",@nobits
  26              		.type	SEL0, @object
  27              		.size	SEL0, 1
  28              	SEL0:
  29 0000 00       		.zero	1
  30              		.globl ADCstart
  31              		.section	.bss.ADCstart,"aw",@nobits
  32              		.type	ADCstart, @object
  33              		.size	ADCstart, 1
  34              	ADCstart:
  35 0000 00       		.zero	1
  36              		.globl STATUS_SENSING_VNH
  37              		.section	.bss.STATUS_SENSING_VNH,"aw",@nobits
  38              		.align 2
  39              		.type	STATUS_SENSING_VNH, @object
  40              		.size	STATUS_SENSING_VNH, 4
  41              	STATUS_SENSING_VNH:
  42 0000 00000000 		.zero	4
  43              		.section	.text.delay,"axv",@progbits
  44              		.align 1
  45              		.p2align 4,,15
  46              		.globl delay
  47              		.type	delay, @function
  48              	delay:
  49              	.LFB2:
  50              		.file 1 "./components/aek_ev_vnhx7xxx_component_rla/lib/src/EV_VNHx7xxx.c"
  51              		.loc 1 48 0
  52              		.cfi_startproc
  53 0000 182106F0 		e_stwu %r1,-16(%r1)
  54              	.LCFI0:
  55              		.cfi_def_cfa_offset 16
  56 0004 0080     		se_mflr %r0
  57 0006 D501     		se_stw %r0,20(%r1)
GAS LISTING C:\Users\cerru\AppData\Local\Temp\ccw0PoOE.s 			page 2


  58              		.cfi_offset 65, 4
  59 0008 0137     		se_mr %r7,%r3
  60 000a 9871     		se_stb %r7,8(%r1)
  61              		.loc 1 49 0
  62 000c 8871     		se_lbz %r7,8(%r1)
  63 000e 00C7     		se_extzb %r7
  64 0010 7007A3E8 		e_mull2i %r7,1000
  65 0014 0173     		se_mr %r3,%r7
  66 0016 78000001 		e_bl osalThreadDelayMilliseconds
  67              		.loc 1 50 0
  68 001a C501     		se_lwz %r0,20(%r1)
  69 001c 0090     		se_mtlr %r0
  70 001e 20F1     		se_addi %r1,16
  71              	.LCFI1:
  72              		.cfi_def_cfa_offset 0
  73 0020 0004     		se_blr
  74              		.cfi_endproc
  75              	.LFE2:
  76              		.size	delay, .-delay
  77              		.section	.text.EV_VNHx7xxx_PWMSetting,"axv",@progbits
  78              		.align 1
  79              		.p2align 4,,15
  80              		.globl EV_VNHx7xxx_PWMSetting
  81              		.type	EV_VNHx7xxx_PWMSetting, @function
  82              	EV_VNHx7xxx_PWMSetting:
  83              	.LFB3:
  84              		.loc 1 61 0
  85              		.cfi_startproc
  86 0000 182106F0 		e_stwu %r1,-16(%r1)
  87              	.LCFI2:
  88              		.cfi_def_cfa_offset 16
  89 0004 0080     		se_mflr %r0
  90 0006 D501     		se_stw %r0,20(%r1)
  91              		.cfi_offset 65, 4
  92 0008 D231     		se_stw %r3,8(%r1)
  93 000a 0147     		se_mr %r7,%r4
  94 000c 9C71     		se_stb %r7,12(%r1)
  95              		.loc 1 62 0
  96 000e 70E0E000 		e_lis %r7,EV_VNH_ARRAY_PWM@ha
  97 0012 1CC70000 		e_la %r6,EV_VNH_ARRAY_PWM@l(%r7)
  98 0016 C271     		se_lwz %r7,8(%r1)
  99 0018 6C27     		se_slwi %r7, 2
 100 001a 7CE63A14 		add %r7,%r6,%r7
 101 001e C067     		se_lwz %r6,0(%r7)
 102 0020 70E0E000 		e_lis %r7,PrevpwmStart@ha
 103 0024 50E70000 		e_lwz %r7,PrevpwmStart@l(%r7)
 104 0028 7F863840 		cmpl %cr7,%r6,%r7
 105 002c 7CE00026 		mfcr %r7
 106 0030 74E7E007 		e_rlwinm %r7,%r7,28,0xf0000000
 107 0034 7CE80120 		mtcrf 128,%r7
 108 0038 7A12004A 		e_beq %cr0,.L3
 109              		.loc 1 63 0
 110 003c 70E0E000 		e_lis %r7,EV_VNH_ARRAY_PWM@ha
 111 0040 1CC70000 		e_la %r6,EV_VNH_ARRAY_PWM@l(%r7)
 112 0044 C271     		se_lwz %r7,8(%r1)
 113 0046 6C27     		se_slwi %r7, 2
 114 0048 7CE63A14 		add %r7,%r6,%r7
GAS LISTING C:\Users\cerru\AppData\Local\Temp\ccw0PoOE.s 			page 3


 115 004c C067     		se_lwz %r6,0(%r7)
 116 004e 70E0E000 		e_lis %r7,PrevpwmStart@ha
 117 0052 54C70000 		e_stw %r6,PrevpwmStart@l(%r7)
 118              		.loc 1 64 0
 119 0056 70E0E000 		e_lis %r7,EV_VNH_ARRAY_PWM@ha
 120 005a 1CC70000 		e_la %r6,EV_VNH_ARRAY_PWM@l(%r7)
 121 005e C271     		se_lwz %r7,8(%r1)
 122 0060 6C27     		se_slwi %r7, 2
 123 0062 7CE63A14 		add %r7,%r6,%r7
 124 0066 C057     		se_lwz %r5,0(%r7)
 125 0068 70E0E000 		e_lis %r7,EV_VNH_ARRAY_PWM_CONFIGURATION@ha
 126 006c 1CC70000 		e_la %r6,EV_VNH_ARRAY_PWM_CONFIGURATION@l(%r7)
 127 0070 C271     		se_lwz %r7,8(%r1)
 128 0072 6C27     		se_slwi %r7, 2
 129 0074 7CE63A14 		add %r7,%r6,%r7
 130 0078 C077     		se_lwz %r7,0(%r7)
 131 007a 0153     		se_mr %r3,%r5
 132 007c 0174     		se_mr %r4,%r7
 133 007e 78000001 		e_bl pwm_lld_start
 134              	.L3:
 135              		.loc 1 67 0
 136 0082 70E0E000 		e_lis %r7,EV_VNH_ARRAY_PWM@ha
 137 0086 1CC70000 		e_la %r6,EV_VNH_ARRAY_PWM@l(%r7)
 138 008a C271     		se_lwz %r7,8(%r1)
 139 008c 6C27     		se_slwi %r7, 2
 140 008e 7CE63A14 		add %r7,%r6,%r7
 141 0092 C047     		se_lwz %r4,0(%r7)
 142 0094 70E0E000 		e_lis %r7,PWMCHANNELS@ha
 143 0098 1CC70000 		e_la %r6,PWMCHANNELS@l(%r7)
 144 009c C271     		se_lwz %r7,8(%r1)
 145 009e 6C27     		se_slwi %r7, 2
 146 00a0 7CE63A14 		add %r7,%r6,%r7
 147 00a4 C077     		se_lwz %r7,0(%r7)
 148 00a6 74E5063F 		e_rlwinm %r5,%r7,0,0xff
 149 00aa 70E0E000 		e_lis %r7,EV_VNH_ARRAY_PWM@ha
 150 00ae 1CC70000 		e_la %r6,EV_VNH_ARRAY_PWM@l(%r7)
 151 00b2 C271     		se_lwz %r7,8(%r1)
 152 00b4 6C27     		se_slwi %r7, 2
 153 00b6 7CE63A14 		add %r7,%r6,%r7
 154 00ba C077     		se_lwz %r7,0(%r7)
 155 00bc C267     		se_lwz %r6,8(%r7)
 156 00be 8C71     		se_lbz %r7,12(%r1)
 157 00c0 00C7     		se_extzb %r7
 158 00c2 0567     		se_mullw %r7,%r6
 159 00c4 18C7A064 		e_mulli %r6,%r7,100
 160 00c8 70FAE1B7 		e_lis %r7,0xd1b7
 161 00cc 70E2C759 		e_or2i %r7,5977
 162 00d0 7CE63816 		mulhwu %r7,%r6,%r7
 163 00d4 68D7     		se_srwi %r7,13
 164 00d6 0143     		se_mr %r3,%r4
 165 00d8 0154     		se_mr %r4,%r5
 166 00da 0175     		se_mr %r5,%r7
 167 00dc 4806     		se_li %r6,0
 168 00de 4807     		se_li %r7,0
 169 00e0 71000000 		e_li %r8,0
 170 00e4 78000001 		e_bl pwm_lld_enable_channel
 171              		.loc 1 72 0
GAS LISTING C:\Users\cerru\AppData\Local\Temp\ccw0PoOE.s 			page 4


 172 00e8 C501     		se_lwz %r0,20(%r1)
 173 00ea 0090     		se_mtlr %r0
 174 00ec 20F1     		se_addi %r1,16
 175              	.LCFI3:
 176              		.cfi_def_cfa_offset 0
 177 00ee 0004     		se_blr
 178              		.cfi_endproc
 179              	.LFE3:
 180              		.size	EV_VNHx7xxx_PWMSetting, .-EV_VNHx7xxx_PWMSetting
 181              		.section	.text.EV_VNHx7xxx_IN,"axv",@progbits
 182              		.align 1
 183              		.p2align 4,,15
 184              		.globl EV_VNHx7xxx_IN
 185              		.type	EV_VNHx7xxx_IN, @function
 186              	EV_VNHx7xxx_IN:
 187              	.LFB4:
 188              		.loc 1 85 0
 189              		.cfi_startproc
 190 0000 182106D8 		e_stwu %r1,-40(%r1)
 191              	.LCFI4:
 192              		.cfi_def_cfa_offset 40
 193 0004 D631     		se_stw %r3,24(%r1)
 194 0006 D741     		se_stw %r4,28(%r1)
 195 0008 D851     		se_stw %r5,32(%r1)
 196              		.loc 1 86 0
 197 000a 70E0E000 		e_lis %r7,EV_VNH_ARRAY_IN_TOT_GPIO_PORT@ha
 198 000e 1CC70000 		e_la %r6,EV_VNH_ARRAY_IN_TOT_GPIO_PORT@l(%r7)
 199 0012 C671     		se_lwz %r7,24(%r1)
 200 0014 6C27     		se_slwi %r7, 2
 201 0016 7CE63A14 		add %r7,%r6,%r7
 202 001a C077     		se_lwz %r7,0(%r7)
 203 001c D271     		se_stw %r7,8(%r1)
 204              		.loc 1 87 0
 205 001e 70E0E000 		e_lis %r7,EV_VNH_ARRAY_IN_TOT_GPIO_PORT_NUMBER@ha
 206 0022 1CC70000 		e_la %r6,EV_VNH_ARRAY_IN_TOT_GPIO_PORT_NUMBER@l(%r7)
 207 0026 C671     		se_lwz %r7,24(%r1)
 208 0028 6C27     		se_slwi %r7, 2
 209 002a 7CE63A14 		add %r7,%r6,%r7
 210 002e C077     		se_lwz %r7,0(%r7)
 211 0030 D371     		se_stw %r7,12(%r1)
 212              		.loc 1 88 0
 213 0032 C871     		se_lwz %r7,32(%r1)
 214 0034 2A07     		se_cmpi %r7,0
 215 0036 7F800020 		e_mcrf %cr7,%cr0
 216 003a 7CE00026 		mfcr %r7
 217 003e 74E7E007 		e_rlwinm %r7,%r7,28,0xf0000000
 218 0042 7CE80120 		mtcrf 128,%r7
 219 0046 7A020062 		e_bne %cr0,.L5
 220              		.loc 1 89 0
 221 004a C771     		se_lwz %r7,28(%r1)
 222 004c 2A07     		se_cmpi %r7,0
 223 004e 7F800020 		e_mcrf %cr7,%cr0
 224 0052 7CE00026 		mfcr %r7
 225 0056 74E7E007 		e_rlwinm %r7,%r7,28,0xf0000000
 226 005a 7CE80120 		mtcrf 128,%r7
 227 005e 7A020012 		e_bne %cr0,.L6
 228              		.loc 1 90 0
GAS LISTING C:\Users\cerru\AppData\Local\Temp\ccw0PoOE.s 			page 5


 229 0062 70E0E000 		e_lis %r7,INA@ha
 230 0066 4816     		se_li %r6,1
 231 0068 34C70000 		e_stb %r6,INA@l(%r7)
 232 006c 7800000E 		e_b .L7
 233              	.L6:
 234              		.loc 1 92 0
 235 0070 70E0E000 		e_lis %r7,INB@ha
 236 0074 4816     		se_li %r6,1
 237 0076 34C70000 		e_stb %r6,INB@l(%r7)
 238              	.L7:
 239              		.loc 1 93 0
 240 007a 70DEE7FC 		e_lis %r6,0xf7fc
 241 007e C771     		se_lwz %r7,28(%r1)
 242 0080 6C27     		se_slwi %r7, 2
 243 0082 C251     		se_lwz %r5,8(%r1)
 244 0084 7CE53A14 		add %r7,%r5,%r7
 245 0088 C077     		se_lwz %r7,0(%r7)
 246 008a 6C47     		se_slwi %r7, 4
 247 008c C751     		se_lwz %r5,28(%r1)
 248 008e 6C25     		se_slwi %r5, 2
 249 0090 C341     		se_lwz %r4,12(%r1)
 250 0092 7CA42A14 		add %r5,%r4,%r5
 251 0096 C055     		se_lwz %r5,0(%r5)
 252 0098 0457     		se_add %r7,%r5
 253 009a 7CE63A14 		add %r7,%r6,%r7
 254 009e 4816     		se_li %r6,1
 255 00a0 34C71300 		e_stb %r6,4864(%r7)
 256 00a4 7800005E 		e_b .L4
 257              	.L5:
 258              		.loc 1 95 0
 259 00a8 C771     		se_lwz %r7,28(%r1)
 260 00aa 2A17     		se_cmpi %r7,1
 261 00ac 7F800020 		e_mcrf %cr7,%cr0
 262 00b0 7CE00026 		mfcr %r7
 263 00b4 74E7E007 		e_rlwinm %r7,%r7,28,0xf0000000
 264 00b8 7CE80120 		mtcrf 128,%r7
 265 00bc 7A020012 		e_bne %cr0,.L9
 266              		.loc 1 96 0
 267 00c0 70E0E000 		e_lis %r7,INA@ha
 268 00c4 4806     		se_li %r6,0
 269 00c6 34C70000 		e_stb %r6,INA@l(%r7)
 270 00ca 7800000E 		e_b .L10
 271              	.L9:
 272              		.loc 1 98 0
 273 00ce 70E0E000 		e_lis %r7,INB@ha
 274 00d2 4806     		se_li %r6,0
 275 00d4 34C70000 		e_stb %r6,INB@l(%r7)
 276              	.L10:
 277              		.loc 1 99 0
 278 00d8 70DEE7FC 		e_lis %r6,0xf7fc
 279 00dc C771     		se_lwz %r7,28(%r1)
 280 00de 6C27     		se_slwi %r7, 2
 281 00e0 C251     		se_lwz %r5,8(%r1)
 282 00e2 7CE53A14 		add %r7,%r5,%r7
 283 00e6 C077     		se_lwz %r7,0(%r7)
 284 00e8 6C47     		se_slwi %r7, 4
 285 00ea C751     		se_lwz %r5,28(%r1)
GAS LISTING C:\Users\cerru\AppData\Local\Temp\ccw0PoOE.s 			page 6


 286 00ec 6C25     		se_slwi %r5, 2
 287 00ee C341     		se_lwz %r4,12(%r1)
 288 00f0 7CA42A14 		add %r5,%r4,%r5
 289 00f4 C055     		se_lwz %r5,0(%r5)
 290 00f6 0457     		se_add %r7,%r5
 291 00f8 7CE63A14 		add %r7,%r6,%r7
 292 00fc 4806     		se_li %r6,0
 293 00fe 34C71300 		e_stb %r6,4864(%r7)
 294              	.L4:
 295              		.loc 1 101 0
 296 0102 18218028 		e_addi %r1,%r1,40
 297              	.LCFI5:
 298              		.cfi_def_cfa_offset 0
 299 0106 0004     		se_blr
 300              		.cfi_endproc
 301              	.LFE4:
 302              		.size	EV_VNHx7xxx_IN, .-EV_VNHx7xxx_IN
 303              		.section	.text.EV_VNHx7xxx_SEL,"axv",@progbits
 304              		.align 1
 305              		.p2align 4,,15
 306              		.globl EV_VNHx7xxx_SEL
 307              		.type	EV_VNHx7xxx_SEL, @function
 308              	EV_VNHx7xxx_SEL:
 309              	.LFB5:
 310              		.loc 1 112 0
 311              		.cfi_startproc
 312 0000 182106E0 		e_stwu %r1,-32(%r1)
 313              	.LCFI6:
 314              		.cfi_def_cfa_offset 32
 315 0004 D631     		se_stw %r3,24(%r1)
 316 0006 D741     		se_stw %r4,28(%r1)
 317              		.loc 1 113 0
 318 0008 70E0E000 		e_lis %r7,EV_VNH_ARRAY_SEL_TOT_GPIO_PORT@ha
 319 000c 1CC70000 		e_la %r6,EV_VNH_ARRAY_SEL_TOT_GPIO_PORT@l(%r7)
 320 0010 C671     		se_lwz %r7,24(%r1)
 321 0012 6C27     		se_slwi %r7, 2
 322 0014 7CE63A14 		add %r7,%r6,%r7
 323 0018 C077     		se_lwz %r7,0(%r7)
 324 001a D271     		se_stw %r7,8(%r1)
 325              		.loc 1 114 0
 326 001c 70E0E000 		e_lis %r7,EV_VNH_ARRAY_SEL_TOT_GPIO_PORT_NUMBER@ha
 327 0020 1CC70000 		e_la %r6,EV_VNH_ARRAY_SEL_TOT_GPIO_PORT_NUMBER@l(%r7)
 328 0024 C671     		se_lwz %r7,24(%r1)
 329 0026 6C27     		se_slwi %r7, 2
 330 0028 7CE63A14 		add %r7,%r6,%r7
 331 002c C077     		se_lwz %r7,0(%r7)
 332 002e D371     		se_stw %r7,12(%r1)
 333              		.loc 1 115 0
 334 0030 C771     		se_lwz %r7,28(%r1)
 335 0032 2A07     		se_cmpi %r7,0
 336 0034 7F800020 		e_mcrf %cr7,%cr0
 337 0038 7CE00026 		mfcr %r7
 338 003c 74E7E007 		e_rlwinm %r7,%r7,28,0xf0000000
 339 0040 7CE80120 		mtcrf 128,%r7
 340 0044 7A02002C 		e_bne %cr0,.L12
 341              		.loc 1 116 0
 342 0048 70E0E000 		e_lis %r7,SEL0@ha
GAS LISTING C:\Users\cerru\AppData\Local\Temp\ccw0PoOE.s 			page 7


 343 004c 4816     		se_li %r6,1
 344 004e 34C70000 		e_stb %r6,SEL0@l(%r7)
 345              		.loc 1 117 0
 346 0052 70DEE7FC 		e_lis %r6,0xf7fc
 347 0056 C271     		se_lwz %r7,8(%r1)
 348 0058 C077     		se_lwz %r7,0(%r7)
 349 005a 6C47     		se_slwi %r7, 4
 350 005c C351     		se_lwz %r5,12(%r1)
 351 005e C055     		se_lwz %r5,0(%r5)
 352 0060 0457     		se_add %r7,%r5
 353 0062 7CE63A14 		add %r7,%r6,%r7
 354 0066 4816     		se_li %r6,1
 355 0068 34C71300 		e_stb %r6,4864(%r7)
 356 006c 78000028 		e_b .L11
 357              	.L12:
 358              		.loc 1 119 0
 359 0070 70E0E000 		e_lis %r7,SEL0@ha
 360 0074 4806     		se_li %r6,0
 361 0076 34C70000 		e_stb %r6,SEL0@l(%r7)
 362              		.loc 1 120 0
 363 007a 70DEE7FC 		e_lis %r6,0xf7fc
 364 007e C271     		se_lwz %r7,8(%r1)
 365 0080 C077     		se_lwz %r7,0(%r7)
 366 0082 6C47     		se_slwi %r7, 4
 367 0084 C351     		se_lwz %r5,12(%r1)
 368 0086 C055     		se_lwz %r5,0(%r5)
 369 0088 0457     		se_add %r7,%r5
 370 008a 7CE63A14 		add %r7,%r6,%r7
 371 008e 4806     		se_li %r6,0
 372 0090 34C71300 		e_stb %r6,4864(%r7)
 373              	.L11:
 374              		.loc 1 122 0
 375 0094 21F1     		se_addi %r1,32
 376              	.LCFI7:
 377              		.cfi_def_cfa_offset 0
 378 0096 0004     		se_blr
 379              		.cfi_endproc
 380              	.LFE5:
 381              		.size	EV_VNHx7xxx_SEL, .-EV_VNHx7xxx_SEL
 382              		.section	.text.initMotor,"axv",@progbits
 383              		.align 1
 384              		.p2align 4,,15
 385              		.globl initMotor
 386              		.type	initMotor, @function
 387              	initMotor:
 388              	.LFB6:
 389              		.loc 1 131 0
 390              		.cfi_startproc
 391 0000 182106F0 		e_stwu %r1,-16(%r1)
 392              	.LCFI8:
 393              		.cfi_def_cfa_offset 16
 394 0004 0080     		se_mflr %r0
 395 0006 D501     		se_stw %r0,20(%r1)
 396              		.cfi_offset 65, 4
 397 0008 D231     		se_stw %r3,8(%r1)
 398              		.loc 1 132 0
 399 000a C231     		se_lwz %r3,8(%r1)
GAS LISTING C:\Users\cerru\AppData\Local\Temp\ccw0PoOE.s 			page 8


 400 000c 4804     		se_li %r4,0
 401 000e 78000001 		e_bl EV_VNHx7xxx_PWMSetting
 402              		.loc 1 133 0
 403 0012 C231     		se_lwz %r3,8(%r1)
 404 0014 78000001 		e_bl brakeMotor
 405              		.loc 1 134 0
 406 0018 C501     		se_lwz %r0,20(%r1)
 407 001a 0090     		se_mtlr %r0
 408 001c 20F1     		se_addi %r1,16
 409              	.LCFI9:
 410              		.cfi_def_cfa_offset 0
 411 001e 0004     		se_blr
 412              		.cfi_endproc
 413              	.LFE6:
 414              		.size	initMotor, .-initMotor
 415              		.section	.text.standByMotor,"axv",@progbits
 416              		.align 1
 417              		.p2align 4,,15
 418              		.globl standByMotor
 419              		.type	standByMotor, @function
 420              	standByMotor:
 421              	.LFB7:
 422              		.loc 1 143 0
 423              		.cfi_startproc
 424 0000 182106F0 		e_stwu %r1,-16(%r1)
 425              	.LCFI10:
 426              		.cfi_def_cfa_offset 16
 427 0004 0080     		se_mflr %r0
 428 0006 D501     		se_stw %r0,20(%r1)
 429              		.cfi_offset 65, 4
 430 0008 D231     		se_stw %r3,8(%r1)
 431              		.loc 1 144 0
 432 000a C231     		se_lwz %r3,8(%r1)
 433 000c 4804     		se_li %r4,0
 434 000e 78000001 		e_bl EV_VNHx7xxx_PWMSetting
 435              		.loc 1 145 0
 436 0012 C231     		se_lwz %r3,8(%r1)
 437 0014 4804     		se_li %r4,0
 438 0016 4815     		se_li %r5,1
 439 0018 78000001 		e_bl EV_VNHx7xxx_IN
 440              		.loc 1 146 0
 441 001c C231     		se_lwz %r3,8(%r1)
 442 001e 4814     		se_li %r4,1
 443 0020 4815     		se_li %r5,1
 444 0022 78000001 		e_bl EV_VNHx7xxx_IN
 445              		.loc 1 147 0
 446 0026 C231     		se_lwz %r3,8(%r1)
 447 0028 4814     		se_li %r4,1
 448 002a 78000001 		e_bl EV_VNHx7xxx_SEL
 449              		.loc 1 151 0
 450 002e 70600226 		e_li %r3,550
 451 0032 78000001 		e_bl osalThreadDelayMicroseconds
 452              		.loc 1 152 0
 453 0036 C501     		se_lwz %r0,20(%r1)
 454 0038 0090     		se_mtlr %r0
 455 003a 20F1     		se_addi %r1,16
 456              	.LCFI11:
GAS LISTING C:\Users\cerru\AppData\Local\Temp\ccw0PoOE.s 			page 9


 457              		.cfi_def_cfa_offset 0
 458 003c 0004     		se_blr
 459              		.cfi_endproc
 460              	.LFE7:
 461              		.size	standByMotor, .-standByMotor
 462              		.section	.text.brakeMotor,"axv",@progbits
 463              		.align 1
 464              		.p2align 4,,15
 465              		.globl brakeMotor
 466              		.type	brakeMotor, @function
 467              	brakeMotor:
 468              	.LFB8:
 469              		.loc 1 161 0
 470              		.cfi_startproc
 471 0000 182106E0 		e_stwu %r1,-32(%r1)
 472              	.LCFI12:
 473              		.cfi_def_cfa_offset 32
 474 0004 0080     		se_mflr %r0
 475 0006 D901     		se_stw %r0,36(%r1)
 476              		.cfi_offset 65, 4
 477 0008 D631     		se_stw %r3,24(%r1)
 478              		.loc 1 162 0
 479 000a 48A7     		se_li %r7,10
 480 000c 9871     		se_stb %r7,8(%r1)
 481              		.loc 1 163 0
 482 000e 8871     		se_lbz %r7,8(%r1)
 483 0010 00C7     		se_extzb %r7
 484 0012 C631     		se_lwz %r3,24(%r1)
 485 0014 0174     		se_mr %r4,%r7
 486 0016 78000001 		e_bl EV_VNHx7xxx_PWMSetting
 487              		.loc 1 164 0
 488 001a C631     		se_lwz %r3,24(%r1)
 489 001c 4804     		se_li %r4,0
 490 001e 4805     		se_li %r5,0
 491 0020 78000001 		e_bl EV_VNHx7xxx_IN
 492              		.loc 1 165 0
 493 0024 C631     		se_lwz %r3,24(%r1)
 494 0026 4814     		se_li %r4,1
 495 0028 4805     		se_li %r5,0
 496 002a 78000001 		e_bl EV_VNHx7xxx_IN
 497              		.loc 1 166 0
 498 002e C901     		se_lwz %r0,36(%r1)
 499 0030 0090     		se_mtlr %r0
 500 0032 21F1     		se_addi %r1,32
 501              	.LCFI13:
 502              		.cfi_def_cfa_offset 0
 503 0034 0004     		se_blr
 504              		.cfi_endproc
 505              	.LFE8:
 506              		.size	brakeMotor, .-brakeMotor
 507              		.section	.text.setSpeedMotor,"axv",@progbits
 508              		.align 1
 509              		.p2align 4,,15
 510              		.globl setSpeedMotor
 511              		.type	setSpeedMotor, @function
 512              	setSpeedMotor:
 513              	.LFB9:
GAS LISTING C:\Users\cerru\AppData\Local\Temp\ccw0PoOE.s 			page 10


 514              		.loc 1 180 0
 515              		.cfi_startproc
 516 0000 182106E0 		e_stwu %r1,-32(%r1)
 517              	.LCFI14:
 518              		.cfi_def_cfa_offset 32
 519 0004 0080     		se_mflr %r0
 520 0006 D901     		se_stw %r0,36(%r1)
 521              		.cfi_offset 65, 4
 522 0008 D631     		se_stw %r3,24(%r1)
 523 000a 0146     		se_mr %r6,%r4
 524 000c 0157     		se_mr %r7,%r5
 525 000e 34C1001C 		e_stb %r6,28(%r1)
 526 0012 34E1001D 		e_stb %r7,29(%r1)
 527              		.loc 1 181 0
 528 0016 4807     		se_li %r7,0
 529 0018 9871     		se_stb %r7,8(%r1)
 530              		.loc 1 182 0
 531 001a 30E1001D 		e_lbz %r7,29(%r1)
 532 001e 00C7     		se_extzb %r7
 533 0020 C631     		se_lwz %r3,24(%r1)
 534 0022 0174     		se_mr %r4,%r7
 535 0024 78000001 		e_bl EV_VNHx7xxx_PWMSetting
 536              		.loc 1 183 0
 537 0028 30E1001C 		e_lbz %r7,28(%r1)
 538 002c 00C7     		se_extzb %r7
 539 002e 2A07     		se_cmpi %r7,0
 540 0030 7F800020 		e_mcrf %cr7,%cr0
 541 0034 7CE00026 		mfcr %r7
 542 0038 74E7E007 		e_rlwinm %r7,%r7,28,0xf0000000
 543 003c 7CE80120 		mtcrf 128,%r7
 544 0040 7A020020 		e_bne %cr0,.L18
 545              		.loc 1 184 0
 546 0044 C631     		se_lwz %r3,24(%r1)
 547 0046 4804     		se_li %r4,0
 548 0048 4815     		se_li %r5,1
 549 004a 78000001 		e_bl EV_VNHx7xxx_IN
 550              		.loc 1 185 0
 551 004e C631     		se_lwz %r3,24(%r1)
 552 0050 4814     		se_li %r4,1
 553 0052 4805     		se_li %r5,0
 554 0054 78000001 		e_bl EV_VNHx7xxx_IN
 555              		.loc 1 186 0
 556 0058 4817     		se_li %r7,1
 557 005a 9871     		se_stb %r7,8(%r1)
 558 005c 78000042 		e_b .L19
 559              	.L18:
 560              		.loc 1 187 0
 561 0060 30E1001C 		e_lbz %r7,28(%r1)
 562 0064 00C7     		se_extzb %r7
 563 0066 2A17     		se_cmpi %r7,1
 564 0068 7F800020 		e_mcrf %cr7,%cr0
 565 006c 7CE00026 		mfcr %r7
 566 0070 74E7E007 		e_rlwinm %r7,%r7,28,0xf0000000
 567 0074 7CE80120 		mtcrf 128,%r7
 568 0078 7A020020 		e_bne %cr0,.L20
 569              		.loc 1 188 0
 570 007c C631     		se_lwz %r3,24(%r1)
GAS LISTING C:\Users\cerru\AppData\Local\Temp\ccw0PoOE.s 			page 11


 571 007e 4804     		se_li %r4,0
 572 0080 4805     		se_li %r5,0
 573 0082 78000001 		e_bl EV_VNHx7xxx_IN
 574              		.loc 1 189 0
 575 0086 C631     		se_lwz %r3,24(%r1)
 576 0088 4814     		se_li %r4,1
 577 008a 4815     		se_li %r5,1
 578 008c 78000001 		e_bl EV_VNHx7xxx_IN
 579              		.loc 1 190 0
 580 0090 4817     		se_li %r7,1
 581 0092 9871     		se_stb %r7,8(%r1)
 582 0094 7800000A 		e_b .L19
 583              	.L20:
 584              		.loc 1 192 0
 585 0098 C631     		se_lwz %r3,24(%r1)
 586 009a 78000001 		e_bl brakeMotor
 587              	.L19:
 588              		.loc 1 194 0
 589 009e 8871     		se_lbz %r7,8(%r1)
 590 00a0 00C7     		se_extzb %r7
 591              		.loc 1 195 0
 592 00a2 0173     		se_mr %r3,%r7
 593 00a4 C901     		se_lwz %r0,36(%r1)
 594 00a6 0090     		se_mtlr %r0
 595 00a8 21F1     		se_addi %r1,32
 596              	.LCFI15:
 597              		.cfi_def_cfa_offset 0
 598 00aa 0004     		se_blr
 599              		.cfi_endproc
 600              	.LFE9:
 601              		.size	setSpeedMotor, .-setSpeedMotor
 602              		.section	.text.readPwmState,"axv",@progbits
 603              		.align 1
 604              		.p2align 4,,15
 605              		.globl readPwmState
 606              		.type	readPwmState, @function
 607              	readPwmState:
 608              	.LFB10:
 609              		.loc 1 205 0
 610              		.cfi_startproc
 611 0000 182106E0 		e_stwu %r1,-32(%r1)
 612              	.LCFI16:
 613              		.cfi_def_cfa_offset 32
 614 0004 D631     		se_stw %r3,24(%r1)
 615              		.loc 1 207 0
 616 0006 70DEE7FC 		e_lis %r6,0xf7fc
 617 000a 70E0E000 		e_lis %r7,EV_VNH_ARRAY_PWM_GPIO_PORT@ha
 618 000e 1CA70000 		e_la %r5,EV_VNH_ARRAY_PWM_GPIO_PORT@l(%r7)
 619 0012 C671     		se_lwz %r7,24(%r1)
 620 0014 6C27     		se_slwi %r7, 2
 621 0016 7CE53A14 		add %r7,%r5,%r7
 622 001a C077     		se_lwz %r7,0(%r7)
 623 001c 6C47     		se_slwi %r7, 4
 624 001e 70A0E000 		e_lis %r5,EV_VNH_ARRAY_PWM_GPIO_PORT_NUMBER@ha
 625 0022 1C850000 		e_la %r4,EV_VNH_ARRAY_PWM_GPIO_PORT_NUMBER@l(%r5)
 626 0026 C651     		se_lwz %r5,24(%r1)
 627 0028 6C25     		se_slwi %r5, 2
GAS LISTING C:\Users\cerru\AppData\Local\Temp\ccw0PoOE.s 			page 12


 628 002a 7CA42A14 		add %r5,%r4,%r5
 629 002e C055     		se_lwz %r5,0(%r5)
 630 0030 0457     		se_add %r7,%r5
 631 0032 7CE63A14 		add %r7,%r6,%r7
 632 0036 30E71500 		e_lbz %r7,5376(%r7)
 633 003a 9871     		se_stb %r7,8(%r1)
 634              		.loc 1 208 0
 635 003c 8871     		se_lbz %r7,8(%r1)
 636 003e 00C7     		se_extzb %r7
 637              		.loc 1 209 0
 638 0040 0173     		se_mr %r3,%r7
 639 0042 21F1     		se_addi %r1,32
 640              	.LCFI17:
 641              		.cfi_def_cfa_offset 0
 642 0044 0004     		se_blr
 643              		.cfi_endproc
 644              	.LFE10:
 645              		.size	readPwmState, .-readPwmState
 646              		.section	".text","axv"
 647              	.Letext0:
 648              		.file 2 "c:\\autodevkitstudio-2.1\\eclipse\\plugins\\com.st.tools.spc5.tools.gnu.gcc.ppcvle.win32_
 649              		.file 3 "c:\\autodevkitstudio-2.1\\eclipse\\plugins\\com.st.tools.spc5.tools.gnu.gcc.ppcvle.win32_
 650              		.file 4 "./components/spc582bxx_platform_component_rla/lib/include/typedefs.h"
 651              		.file 5 "./components/spc582bxx_platform_component_rla/lib/include/spc582b.h"
 652              		.file 6 "./components/spc582bxx_low_level_drivers_component_rla/lib/include/spc5_emios.h"
 653              		.file 7 "./components/spc582bxx_low_level_drivers_component_rla/lib/include/pwm_lld.h"
 654              		.file 8 "./components/aek_ev_vnhx7xxx_component_rla/cfg/EV_VNHx7xxx_cfg.h"
 655              		.file 9 "./components/aek_ev_vnhx7xxx_component_rla/lib/include/EV_VNHx7xxx.h"