GAS LISTING C:\Users\nascapro\AppData\Local\Temp\ccb4eRoZ.s 			page 1


   1              		.file	"i2c_sw.c"
   2              		.section	".text","axv"
   3              	.Ltext0:
   4              		.cfi_sections	.debug_frame
   5              		.section	.bss.i2c_sw,"aw",@nobits
   6              		.align 2
   7              		.type	i2c_sw, @object
   8              		.size	i2c_sw, 64
   9              	i2c_sw:
  10 0000 00000000 		.zero	64
  10      00000000 
  10      00000000 
  10      00000000 
  10      00000000 
  11              		.section	.text.i2c_sw_delay,"axv",@progbits
  12              		.align 1
  13              		.p2align 4,,15
  14              		.type	i2c_sw_delay, @function
  15              	i2c_sw_delay:
  16              	.LFB2:
  17              		.file 1 "./components/spc582bxx_low_level_drivers_component_rla/lib/src/i2c_sw.c"
  18              		.loc 1 124 0
  19              		.cfi_startproc
  20 0000 182106E0 		e_stwu %r1,-32(%r1)
  21              	.LCFI0:
  22              		.cfi_def_cfa_offset 32
  23 0004 0137     		se_mr %r7,%r3
  24 0006 BC71     		se_sth %r7,24(%r1)
  25              		.loc 1 126 0
  26 0008 4807     		se_li %r7,0
  27 000a B471     		se_sth %r7,8(%r1)
  28 000c 78000010 		e_b .L2
  29              	.L3:
  30              		.loc 1 127 0 discriminator 3
  31              	 # 127 "./components/spc582bxx_low_level_drivers_component_rla/lib/src/i2c_sw.c" 1
  32 0010 1800D000 		e_ori  0, 0, 0	
  33              	
  34              	 # 0 "" 2
  35              		.loc 1 126 0 discriminator 3
  36 0014 A471     		se_lhz %r7,8(%r1)
  37 0016 00E7     		se_extzh %r7
  38 0018 2007     		se_addi %r7,1
  39 001a B471     		se_sth %r7,8(%r1)
  40              	.L2:
  41              		.loc 1 126 0 is_stmt 0 discriminator 1
  42 001c A471     		se_lhz %r7,8(%r1)
  43 001e 74E6043F 		e_rlwinm %r6,%r7,0,0xffff
  44 0022 AC71     		se_lhz %r7,24(%r1)
  45 0024 00E7     		se_extzh %r7
  46 0026 7F863840 		cmpl %cr7,%r6,%r7
  47 002a 7CE00026 		mfcr %r7
  48 002e 74E7E007 		e_rlwinm %r7,%r7,28,0xf0000000
  49 0032 7CE80120 		mtcrf 128,%r7
  50 0036 7A10FFDA 		e_blt %cr0,.L3
  51              		.loc 1 129 0 is_stmt 1
  52 003a 21F1     		se_addi %r1,32
  53              	.LCFI1:
GAS LISTING C:\Users\nascapro\AppData\Local\Temp\ccb4eRoZ.s 			page 2


  54              		.cfi_def_cfa_offset 0
  55 003c 0004     		se_blr
  56              		.cfi_endproc
  57              	.LFE2:
  58              		.size	i2c_sw_delay, .-i2c_sw_delay
  59              		.section	.text.i2c_sw_wait,"axv",@progbits
  60              		.align 1
  61              		.p2align 4,,15
  62              		.type	i2c_sw_wait, @function
  63              	i2c_sw_wait:
  64              	.LFB3:
  65              		.loc 1 133 0
  66              		.cfi_startproc
  67 0000 182106E0 		e_stwu %r1,-32(%r1)
  68              	.LCFI2:
  69              		.cfi_def_cfa_offset 32
  70 0004 0080     		se_mflr %r0
  71 0006 D901     		se_stw %r0,36(%r1)
  72              		.cfi_offset 65, 4
  73 0008 D631     		se_stw %r3,24(%r1)
  74 000a D741     		se_stw %r4,28(%r1)
  75              		.loc 1 136 0
  76 000c 4807     		se_li %r7,0
  77 000e D271     		se_stw %r7,8(%r1)
  78              	.L7:
  79              		.loc 1 138 0
  80 0010 4A83     		se_li %r3,40
  81 0012 78000001 		e_bl i2c_sw_delay
  82              		.loc 1 139 0
  83 0016 C271     		se_lwz %r7,8(%r1)
  84 0018 2007     		se_addi %r7,1
  85 001a D271     		se_stw %r7,8(%r1)
  86              		.loc 1 140 0
  87 001c C271     		se_lwz %r7,8(%r1)
  88 001e 7007AFD0 		e_cmpl16i %r7,2000
  89 0022 7F800020 		e_mcrf %cr7,%cr0
  90 0026 7CE00026 		mfcr %r7
  91 002a 74E7E007 		e_rlwinm %r7,%r7,28,0xf0000000
  92 002e 7CE80120 		mtcrf 128,%r7
  93 0032 7A010008 		e_ble %cr0,.L5
  94              		.loc 1 141 0
  95 0036 7800003A 		e_b .L4
  96              	.L5:
  97              		.loc 1 143 0
  98 003a 70DEE7FC 		e_lis %r6,0xf7fc
  99 003e C671     		se_lwz %r7,24(%r1)
 100 0040 C077     		se_lwz %r7,0(%r7)
 101 0042 7CE52070 		e_slwi %r5,%r7,4
 102 0046 C671     		se_lwz %r7,24(%r1)
 103 0048 C177     		se_lwz %r7,4(%r7)
 104 004a 7CE53A14 		add %r7,%r5,%r7
 105 004e 7CE63A14 		add %r7,%r6,%r7
 106 0052 30E71500 		e_lbz %r7,5376(%r7)
 107 0056 00C7     		se_extzb %r7
 108 0058 0176     		se_mr %r6,%r7
 109 005a C771     		se_lwz %r7,28(%r1)
 110 005c 7F863800 		cmp %cr7,%r6,%r7
GAS LISTING C:\Users\nascapro\AppData\Local\Temp\ccb4eRoZ.s 			page 3


 111 0060 7CE00026 		mfcr %r7
 112 0064 74E7E007 		e_rlwinm %r7,%r7,28,0xf0000000
 113 0068 7CE80120 		mtcrf 128,%r7
 114 006c 7A12FFA4 		e_beq %cr0,.L7
 115              	.L4:
 116              		.loc 1 144 0
 117 0070 C901     		se_lwz %r0,36(%r1)
 118 0072 0090     		se_mtlr %r0
 119 0074 21F1     		se_addi %r1,32
 120              	.LCFI3:
 121              		.cfi_def_cfa_offset 0
 122 0076 0004     		se_blr
 123              		.cfi_endproc
 124              	.LFE3:
 125              		.size	i2c_sw_wait, .-i2c_sw_wait
 126              		.section	.text.i2c_sw_start_condition,"axv",@progbits
 127              		.align 1
 128              		.p2align 4,,15
 129              		.type	i2c_sw_start_condition, @function
 130              	i2c_sw_start_condition:
 131              	.LFB4:
 132              		.loc 1 148 0
 133              		.cfi_startproc
 134 0000 182106F0 		e_stwu %r1,-16(%r1)
 135              	.LCFI4:
 136              		.cfi_def_cfa_offset 16
 137 0004 0080     		se_mflr %r0
 138 0006 D501     		se_stw %r0,20(%r1)
 139              		.cfi_offset 65, 4
 140 0008 D231     		se_stw %r3,8(%r1)
 141              		.loc 1 150 0
 142 000a 70DEE7FC 		e_lis %r6,0xf7fc
 143 000e C271     		se_lwz %r7,8(%r1)
 144 0010 C077     		se_lwz %r7,0(%r7)
 145 0012 7CE52070 		e_slwi %r5,%r7,4
 146 0016 C271     		se_lwz %r7,8(%r1)
 147 0018 C177     		se_lwz %r7,4(%r7)
 148 001a 7CE53A14 		add %r7,%r5,%r7
 149 001e 7CE63A14 		add %r7,%r6,%r7
 150 0022 4806     		se_li %r6,0
 151 0024 34C71300 		e_stb %r6,4864(%r7)
 152              		.loc 1 151 0
 153 0028 4A83     		se_li %r3,40
 154 002a 78000001 		e_bl i2c_sw_delay
 155              		.loc 1 153 0
 156 002e 70DEE7FC 		e_lis %r6,0xf7fc
 157 0032 C271     		se_lwz %r7,8(%r1)
 158 0034 C277     		se_lwz %r7,8(%r7)
 159 0036 7CE52070 		e_slwi %r5,%r7,4
 160 003a C271     		se_lwz %r7,8(%r1)
 161 003c C377     		se_lwz %r7,12(%r7)
 162 003e 7CE53A14 		add %r7,%r5,%r7
 163 0042 7CE63A14 		add %r7,%r6,%r7
 164 0046 4816     		se_li %r6,1
 165 0048 34C71300 		e_stb %r6,4864(%r7)
 166              		.loc 1 154 0
 167 004c 70DEE7FC 		e_lis %r6,0xf7fc
GAS LISTING C:\Users\nascapro\AppData\Local\Temp\ccb4eRoZ.s 			page 4


 168 0050 C271     		se_lwz %r7,8(%r1)
 169 0052 C077     		se_lwz %r7,0(%r7)
 170 0054 7CE52070 		e_slwi %r5,%r7,4
 171 0058 C271     		se_lwz %r7,8(%r1)
 172 005a C177     		se_lwz %r7,4(%r7)
 173 005c 7CE53A14 		add %r7,%r5,%r7
 174 0060 7CE63A14 		add %r7,%r6,%r7
 175 0064 4816     		se_li %r6,1
 176 0066 34C71300 		e_stb %r6,4864(%r7)
 177              		.loc 1 155 0
 178 006a 4A83     		se_li %r3,40
 179 006c 78000001 		e_bl i2c_sw_delay
 180              		.loc 1 157 0
 181 0070 70DEE7FC 		e_lis %r6,0xf7fc
 182 0074 C271     		se_lwz %r7,8(%r1)
 183 0076 C277     		se_lwz %r7,8(%r7)
 184 0078 7CE52070 		e_slwi %r5,%r7,4
 185 007c C271     		se_lwz %r7,8(%r1)
 186 007e C377     		se_lwz %r7,12(%r7)
 187 0080 7CE53A14 		add %r7,%r5,%r7
 188 0084 7CE63A14 		add %r7,%r6,%r7
 189 0088 4806     		se_li %r6,0
 190 008a 34C71300 		e_stb %r6,4864(%r7)
 191              		.loc 1 158 0
 192 008e 4A83     		se_li %r3,40
 193 0090 78000001 		e_bl i2c_sw_delay
 194              		.loc 1 160 0
 195 0094 70DEE7FC 		e_lis %r6,0xf7fc
 196 0098 C271     		se_lwz %r7,8(%r1)
 197 009a C077     		se_lwz %r7,0(%r7)
 198 009c 7CE52070 		e_slwi %r5,%r7,4
 199 00a0 C271     		se_lwz %r7,8(%r1)
 200 00a2 C177     		se_lwz %r7,4(%r7)
 201 00a4 7CE53A14 		add %r7,%r5,%r7
 202 00a8 7CE63A14 		add %r7,%r6,%r7
 203 00ac 4806     		se_li %r6,0
 204 00ae 34C71300 		e_stb %r6,4864(%r7)
 205              		.loc 1 161 0
 206 00b2 4A83     		se_li %r3,40
 207 00b4 78000001 		e_bl i2c_sw_delay
 208              		.loc 1 162 0
 209 00b8 C501     		se_lwz %r0,20(%r1)
 210 00ba 0090     		se_mtlr %r0
 211 00bc 20F1     		se_addi %r1,16
 212              	.LCFI5:
 213              		.cfi_def_cfa_offset 0
 214 00be 0004     		se_blr
 215              		.cfi_endproc
 216              	.LFE4:
 217              		.size	i2c_sw_start_condition, .-i2c_sw_start_condition
 218              		.section	.text.i2c_sw_stop_condition,"axv",@progbits
 219              		.align 1
 220              		.p2align 4,,15
 221              		.type	i2c_sw_stop_condition, @function
 222              	i2c_sw_stop_condition:
 223              	.LFB5:
 224              		.loc 1 166 0
GAS LISTING C:\Users\nascapro\AppData\Local\Temp\ccb4eRoZ.s 			page 5


 225              		.cfi_startproc
 226 0000 182106F0 		e_stwu %r1,-16(%r1)
 227              	.LCFI6:
 228              		.cfi_def_cfa_offset 16
 229 0004 0080     		se_mflr %r0
 230 0006 D501     		se_stw %r0,20(%r1)
 231              		.cfi_offset 65, 4
 232 0008 D231     		se_stw %r3,8(%r1)
 233              		.loc 1 168 0
 234 000a 70DEE7FC 		e_lis %r6,0xf7fc
 235 000e C271     		se_lwz %r7,8(%r1)
 236 0010 C077     		se_lwz %r7,0(%r7)
 237 0012 7CE52070 		e_slwi %r5,%r7,4
 238 0016 C271     		se_lwz %r7,8(%r1)
 239 0018 C177     		se_lwz %r7,4(%r7)
 240 001a 7CE53A14 		add %r7,%r5,%r7
 241 001e 7CE63A14 		add %r7,%r6,%r7
 242 0022 4806     		se_li %r6,0
 243 0024 34C71300 		e_stb %r6,4864(%r7)
 244              		.loc 1 169 0
 245 0028 70DEE7FC 		e_lis %r6,0xf7fc
 246 002c C271     		se_lwz %r7,8(%r1)
 247 002e C277     		se_lwz %r7,8(%r7)
 248 0030 7CE52070 		e_slwi %r5,%r7,4
 249 0034 C271     		se_lwz %r7,8(%r1)
 250 0036 C377     		se_lwz %r7,12(%r7)
 251 0038 7CE53A14 		add %r7,%r5,%r7
 252 003c 7CE63A14 		add %r7,%r6,%r7
 253 0040 4806     		se_li %r6,0
 254 0042 34C71300 		e_stb %r6,4864(%r7)
 255              		.loc 1 170 0
 256 0046 4A83     		se_li %r3,40
 257 0048 78000001 		e_bl i2c_sw_delay
 258              		.loc 1 172 0
 259 004c 70DEE7FC 		e_lis %r6,0xf7fc
 260 0050 C271     		se_lwz %r7,8(%r1)
 261 0052 C077     		se_lwz %r7,0(%r7)
 262 0054 7CE52070 		e_slwi %r5,%r7,4
 263 0058 C271     		se_lwz %r7,8(%r1)
 264 005a C177     		se_lwz %r7,4(%r7)
 265 005c 7CE53A14 		add %r7,%r5,%r7
 266 0060 7CE63A14 		add %r7,%r6,%r7
 267 0064 4816     		se_li %r6,1
 268 0066 34C71300 		e_stb %r6,4864(%r7)
 269              		.loc 1 173 0
 270 006a 4A83     		se_li %r3,40
 271 006c 78000001 		e_bl i2c_sw_delay
 272              		.loc 1 175 0
 273 0070 70DEE7FC 		e_lis %r6,0xf7fc
 274 0074 C271     		se_lwz %r7,8(%r1)
 275 0076 C277     		se_lwz %r7,8(%r7)
 276 0078 7CE52070 		e_slwi %r5,%r7,4
 277 007c C271     		se_lwz %r7,8(%r1)
 278 007e C377     		se_lwz %r7,12(%r7)
 279 0080 7CE53A14 		add %r7,%r5,%r7
 280 0084 7CE63A14 		add %r7,%r6,%r7
 281 0088 4816     		se_li %r6,1
GAS LISTING C:\Users\nascapro\AppData\Local\Temp\ccb4eRoZ.s 			page 6


 282 008a 34C71300 		e_stb %r6,4864(%r7)
 283              		.loc 1 176 0
 284 008e 4A83     		se_li %r3,40
 285 0090 78000001 		e_bl i2c_sw_delay
 286              		.loc 1 177 0
 287 0094 C501     		se_lwz %r0,20(%r1)
 288 0096 0090     		se_mtlr %r0
 289 0098 20F1     		se_addi %r1,16
 290              	.LCFI7:
 291              		.cfi_def_cfa_offset 0
 292 009a 0004     		se_blr
 293              		.cfi_endproc
 294              	.LFE5:
 295              		.size	i2c_sw_stop_condition, .-i2c_sw_stop_condition
 296              		.section	.text.i2c_sw_write8,"axv",@progbits
 297              		.align 1
 298              		.p2align 4,,15
 299              		.type	i2c_sw_write8, @function
 300              	i2c_sw_write8:
 301              	.LFB6:
 302              		.loc 1 180 0
 303              		.cfi_startproc
 304 0000 182106E0 		e_stwu %r1,-32(%r1)
 305              	.LCFI8:
 306              		.cfi_def_cfa_offset 32
 307 0004 0080     		se_mflr %r0
 308 0006 D901     		se_stw %r0,36(%r1)
 309              		.cfi_offset 65, 4
 310 0008 D631     		se_stw %r3,24(%r1)
 311 000a 0147     		se_mr %r7,%r4
 312 000c 34E1001C 		e_stb %r7,28(%r1)
 313              		.loc 1 183 0
 314 0010 4887     		se_li %r7,8
 315 0012 9871     		se_stb %r7,8(%r1)
 316 0014 780000BE 		e_b .L11
 317              	.L14:
 318              		.loc 1 184 0
 319 0018 70DEE7FC 		e_lis %r6,0xf7fc
 320 001c C671     		se_lwz %r7,24(%r1)
 321 001e C077     		se_lwz %r7,0(%r7)
 322 0020 7CE52070 		e_slwi %r5,%r7,4
 323 0024 C671     		se_lwz %r7,24(%r1)
 324 0026 C177     		se_lwz %r7,4(%r7)
 325 0028 7CE53A14 		add %r7,%r5,%r7
 326 002c 7CE63A14 		add %r7,%r6,%r7
 327 0030 4806     		se_li %r6,0
 328 0032 34C71300 		e_stb %r6,4864(%r7)
 329              		.loc 1 185 0
 330 0036 30E1001C 		e_lbz %r7,28(%r1)
 331 003a 00D7     		se_extsb %r7
 332 003c 2A07     		se_cmpi %r7,0
 333 003e 7F800020 		e_mcrf %cr7,%cr0
 334 0042 7CE00026 		mfcr %r7
 335 0046 74E7E007 		e_rlwinm %r7,%r7,28,0xf0000000
 336 004a 7CE80120 		mtcrf 128,%r7
 337 004e 7A000026 		e_bge %cr0,.L12
 338              		.loc 1 186 0
GAS LISTING C:\Users\nascapro\AppData\Local\Temp\ccb4eRoZ.s 			page 7


 339 0052 70DEE7FC 		e_lis %r6,0xf7fc
 340 0056 C671     		se_lwz %r7,24(%r1)
 341 0058 C277     		se_lwz %r7,8(%r7)
 342 005a 7CE52070 		e_slwi %r5,%r7,4
 343 005e C671     		se_lwz %r7,24(%r1)
 344 0060 C377     		se_lwz %r7,12(%r7)
 345 0062 7CE53A14 		add %r7,%r5,%r7
 346 0066 7CE63A14 		add %r7,%r6,%r7
 347 006a 4816     		se_li %r6,1
 348 006c 34C71300 		e_stb %r6,4864(%r7)
 349 0070 78000022 		e_b .L13
 350              	.L12:
 351              		.loc 1 188 0
 352 0074 70DEE7FC 		e_lis %r6,0xf7fc
 353 0078 C671     		se_lwz %r7,24(%r1)
 354 007a C277     		se_lwz %r7,8(%r7)
 355 007c 7CE52070 		e_slwi %r5,%r7,4
 356 0080 C671     		se_lwz %r7,24(%r1)
 357 0082 C377     		se_lwz %r7,12(%r7)
 358 0084 7CE53A14 		add %r7,%r5,%r7
 359 0088 7CE63A14 		add %r7,%r6,%r7
 360 008c 4806     		se_li %r6,0
 361 008e 34C71300 		e_stb %r6,4864(%r7)
 362              	.L13:
 363              		.loc 1 190 0 discriminator 2
 364 0092 4A83     		se_li %r3,40
 365 0094 78000001 		e_bl i2c_sw_delay
 366              		.loc 1 191 0 discriminator 2
 367 0098 70DEE7FC 		e_lis %r6,0xf7fc
 368 009c C671     		se_lwz %r7,24(%r1)
 369 009e C077     		se_lwz %r7,0(%r7)
 370 00a0 7CE52070 		e_slwi %r5,%r7,4
 371 00a4 C671     		se_lwz %r7,24(%r1)
 372 00a6 C177     		se_lwz %r7,4(%r7)
 373 00a8 7CE53A14 		add %r7,%r5,%r7
 374 00ac 7CE63A14 		add %r7,%r6,%r7
 375 00b0 4816     		se_li %r6,1
 376 00b2 34C71300 		e_stb %r6,4864(%r7)
 377              		.loc 1 194 0 discriminator 2
 378 00b6 C631     		se_lwz %r3,24(%r1)
 379 00b8 4804     		se_li %r4,0
 380 00ba 78000001 		e_bl i2c_sw_wait
 381              		.loc 1 196 0 discriminator 2
 382 00be 30E1001C 		e_lbz %r7,28(%r1)
 383 00c2 6C17     		se_slwi %r7, 1
 384 00c4 34E1001C 		e_stb %r7,28(%r1)
 385              		.loc 1 183 0 discriminator 2
 386 00c8 8871     		se_lbz %r7,8(%r1)
 387 00ca 00C7     		se_extzb %r7
 388 00cc 18E784FF 		e_addi %r7,%r7,-1
 389 00d0 9871     		se_stb %r7,8(%r1)
 390              	.L11:
 391              		.loc 1 183 0 is_stmt 0 discriminator 1
 392 00d2 8871     		se_lbz %r7,8(%r1)
 393 00d4 00C7     		se_extzb %r7
 394 00d6 2A07     		se_cmpi %r7,0
 395 00d8 7F800020 		e_mcrf %cr7,%cr0
GAS LISTING C:\Users\nascapro\AppData\Local\Temp\ccb4eRoZ.s 			page 8


 396 00dc 7CE00026 		mfcr %r7
 397 00e0 74E7E007 		e_rlwinm %r7,%r7,28,0xf0000000
 398 00e4 7CE80120 		mtcrf 128,%r7
 399 00e8 7A02FF30 		e_bne %cr0,.L14
 400              		.loc 1 199 0 is_stmt 1
 401 00ec 70DEE7FC 		e_lis %r6,0xf7fc
 402 00f0 C671     		se_lwz %r7,24(%r1)
 403 00f2 C077     		se_lwz %r7,0(%r7)
 404 00f4 7CE52070 		e_slwi %r5,%r7,4
 405 00f8 C671     		se_lwz %r7,24(%r1)
 406 00fa C177     		se_lwz %r7,4(%r7)
 407 00fc 7CE53A14 		add %r7,%r5,%r7
 408 0100 7CE63A14 		add %r7,%r6,%r7
 409 0104 4806     		se_li %r6,0
 410 0106 34C71300 		e_stb %r6,4864(%r7)
 411              		.loc 1 200 0
 412 010a 70DEE7FC 		e_lis %r6,0xf7fc
 413 010e C671     		se_lwz %r7,24(%r1)
 414 0110 C277     		se_lwz %r7,8(%r7)
 415 0112 7CE52070 		e_slwi %r5,%r7,4
 416 0116 C671     		se_lwz %r7,24(%r1)
 417 0118 C377     		se_lwz %r7,12(%r7)
 418 011a 7CE53A14 		add %r7,%r5,%r7
 419 011e 7CE63A14 		add %r7,%r6,%r7
 420 0122 4816     		se_li %r6,1
 421 0124 34C71300 		e_stb %r6,4864(%r7)
 422              		.loc 1 201 0
 423 0128 4A83     		se_li %r3,40
 424 012a 78000001 		e_bl i2c_sw_delay
 425              		.loc 1 204 0
 426 012e 70DEE7FC 		e_lis %r6,0xf7fc
 427 0132 C671     		se_lwz %r7,24(%r1)
 428 0134 C077     		se_lwz %r7,0(%r7)
 429 0136 7CE52070 		e_slwi %r5,%r7,4
 430 013a C671     		se_lwz %r7,24(%r1)
 431 013c C177     		se_lwz %r7,4(%r7)
 432 013e 7CE53A14 		add %r7,%r5,%r7
 433 0142 7CE63A14 		add %r7,%r6,%r7
 434 0146 4816     		se_li %r6,1
 435 0148 34C71300 		e_stb %r6,4864(%r7)
 436              		.loc 1 207 0
 437 014c C631     		se_lwz %r3,24(%r1)
 438 014e 4804     		se_li %r4,0
 439 0150 78000001 		e_bl i2c_sw_wait
 440              		.loc 1 209 0
 441 0154 70DEE7FC 		e_lis %r6,0xf7fc
 442 0158 C671     		se_lwz %r7,24(%r1)
 443 015a C277     		se_lwz %r7,8(%r7)
 444 015c 7CE52070 		e_slwi %r5,%r7,4
 445 0160 C671     		se_lwz %r7,24(%r1)
 446 0162 C377     		se_lwz %r7,12(%r7)
 447 0164 7CE53A14 		add %r7,%r5,%r7
 448 0168 7CE63A14 		add %r7,%r6,%r7
 449 016c 30E71500 		e_lbz %r7,5376(%r7)
 450 0170 9971     		se_stb %r7,9(%r1)
 451              		.loc 1 211 0
 452 0172 8971     		se_lbz %r7,9(%r1)
GAS LISTING C:\Users\nascapro\AppData\Local\Temp\ccb4eRoZ.s 			page 9


 453 0174 00C7     		se_extzb %r7
 454 0176 2A07     		se_cmpi %r7,0
 455 0178 7F800020 		e_mcrf %cr7,%cr0
 456 017c 7CE00026 		mfcr %r7
 457 0180 74E7E007 		e_rlwinm %r7,%r7,28,0xf0000000
 458 0184 7CE80120 		mtcrf 128,%r7
 459 0188 7A12000A 		e_beq %cr0,.L15
 460              		.loc 1 212 0
 461 018c 4A83     		se_li %r3,40
 462 018e 78000001 		e_bl i2c_sw_delay
 463              	.L15:
 464              		.loc 1 216 0
 465 0192 4A83     		se_li %r3,40
 466 0194 78000001 		e_bl i2c_sw_delay
 467              		.loc 1 217 0
 468 0198 70DEE7FC 		e_lis %r6,0xf7fc
 469 019c C671     		se_lwz %r7,24(%r1)
 470 019e C277     		se_lwz %r7,8(%r7)
 471 01a0 7CE52070 		e_slwi %r5,%r7,4
 472 01a4 C671     		se_lwz %r7,24(%r1)
 473 01a6 C377     		se_lwz %r7,12(%r7)
 474 01a8 7CE53A14 		add %r7,%r5,%r7
 475 01ac 7CE63A14 		add %r7,%r6,%r7
 476 01b0 4806     		se_li %r6,0
 477 01b2 34C71300 		e_stb %r6,4864(%r7)
 478              		.loc 1 218 0
 479 01b6 4A83     		se_li %r3,40
 480 01b8 78000001 		e_bl i2c_sw_delay
 481              		.loc 1 220 0
 482 01bc 8971     		se_lbz %r7,9(%r1)
 483 01be 00C7     		se_extzb %r7
 484              		.loc 1 221 0
 485 01c0 0173     		se_mr %r3,%r7
 486 01c2 C901     		se_lwz %r0,36(%r1)
 487 01c4 0090     		se_mtlr %r0
 488 01c6 21F1     		se_addi %r1,32
 489              	.LCFI9:
 490              		.cfi_def_cfa_offset 0
 491 01c8 0004     		se_blr
 492              		.cfi_endproc
 493              	.LFE6:
 494              		.size	i2c_sw_write8, .-i2c_sw_write8
 495              		.section	.text.i2c_sw_read8,"axv",@progbits
 496              		.align 1
 497              		.p2align 4,,15
 498              		.type	i2c_sw_read8, @function
 499              	i2c_sw_read8:
 500              	.LFB7:
 501              		.loc 1 225 0
 502              		.cfi_startproc
 503 0000 182106D8 		e_stwu %r1,-40(%r1)
 504              	.LCFI10:
 505              		.cfi_def_cfa_offset 40
 506 0004 0080     		se_mflr %r0
 507 0006 DB01     		se_stw %r0,44(%r1)
 508              		.cfi_offset 65, 4
 509 0008 D631     		se_stw %r3,24(%r1)
GAS LISTING C:\Users\nascapro\AppData\Local\Temp\ccb4eRoZ.s 			page 10


 510 000a D741     		se_stw %r4,28(%r1)
 511 000c 0157     		se_mr %r7,%r5
 512 000e 34E10020 		e_stb %r7,32(%r1)
 513              		.loc 1 228 0
 514 0012 70DEE7FC 		e_lis %r6,0xf7fc
 515 0016 C671     		se_lwz %r7,24(%r1)
 516 0018 C077     		se_lwz %r7,0(%r7)
 517 001a 7CE52070 		e_slwi %r5,%r7,4
 518 001e C671     		se_lwz %r7,24(%r1)
 519 0020 C177     		se_lwz %r7,4(%r7)
 520 0022 7CE53A14 		add %r7,%r5,%r7
 521 0026 7CE63A14 		add %r7,%r6,%r7
 522 002a 4806     		se_li %r6,0
 523 002c 34C71300 		e_stb %r6,4864(%r7)
 524              		.loc 1 229 0
 525 0030 4A83     		se_li %r3,40
 526 0032 78000001 		e_bl i2c_sw_delay
 527              		.loc 1 230 0
 528 0036 70DEE7FC 		e_lis %r6,0xf7fc
 529 003a C671     		se_lwz %r7,24(%r1)
 530 003c C277     		se_lwz %r7,8(%r7)
 531 003e 7CE52070 		e_slwi %r5,%r7,4
 532 0042 C671     		se_lwz %r7,24(%r1)
 533 0044 C377     		se_lwz %r7,12(%r7)
 534 0046 7CE53A14 		add %r7,%r5,%r7
 535 004a 7CE63A14 		add %r7,%r6,%r7
 536 004e 4816     		se_li %r6,1
 537 0050 34C71300 		e_stb %r6,4864(%r7)
 538              		.loc 1 232 0
 539 0054 4807     		se_li %r7,0
 540 0056 9971     		se_stb %r7,9(%r1)
 541              		.loc 1 233 0
 542 0058 4807     		se_li %r7,0
 543 005a 9871     		se_stb %r7,8(%r1)
 544 005c 780000BA 		e_b .L18
 545              	.L20:
 546              		.loc 1 234 0
 547 0060 70DEE7FC 		e_lis %r6,0xf7fc
 548 0064 C671     		se_lwz %r7,24(%r1)
 549 0066 C077     		se_lwz %r7,0(%r7)
 550 0068 7CE52070 		e_slwi %r5,%r7,4
 551 006c C671     		se_lwz %r7,24(%r1)
 552 006e C177     		se_lwz %r7,4(%r7)
 553 0070 7CE53A14 		add %r7,%r5,%r7
 554 0074 7CE63A14 		add %r7,%r6,%r7
 555 0078 4806     		se_li %r6,0
 556 007a 34C71300 		e_stb %r6,4864(%r7)
 557              		.loc 1 235 0
 558 007e 70DEE7FC 		e_lis %r6,0xf7fc
 559 0082 C671     		se_lwz %r7,24(%r1)
 560 0084 C277     		se_lwz %r7,8(%r7)
 561 0086 7CE52070 		e_slwi %r5,%r7,4
 562 008a C671     		se_lwz %r7,24(%r1)
 563 008c C377     		se_lwz %r7,12(%r7)
 564 008e 7CE53A14 		add %r7,%r5,%r7
 565 0092 7CE63A14 		add %r7,%r6,%r7
 566 0096 4816     		se_li %r6,1
GAS LISTING C:\Users\nascapro\AppData\Local\Temp\ccb4eRoZ.s 			page 11


 567 0098 34C71300 		e_stb %r6,4864(%r7)
 568              		.loc 1 236 0
 569 009c 4A83     		se_li %r3,40
 570 009e 78000001 		e_bl i2c_sw_delay
 571              		.loc 1 237 0
 572 00a2 70DEE7FC 		e_lis %r6,0xf7fc
 573 00a6 C671     		se_lwz %r7,24(%r1)
 574 00a8 C077     		se_lwz %r7,0(%r7)
 575 00aa 7CE52070 		e_slwi %r5,%r7,4
 576 00ae C671     		se_lwz %r7,24(%r1)
 577 00b0 C177     		se_lwz %r7,4(%r7)
 578 00b2 7CE53A14 		add %r7,%r5,%r7
 579 00b6 7CE63A14 		add %r7,%r6,%r7
 580 00ba 4816     		se_li %r6,1
 581 00bc 34C71300 		e_stb %r6,4864(%r7)
 582              		.loc 1 240 0
 583 00c0 C631     		se_lwz %r3,24(%r1)
 584 00c2 4804     		se_li %r4,0
 585 00c4 78000001 		e_bl i2c_sw_wait
 586              		.loc 1 242 0
 587 00c8 4A83     		se_li %r3,40
 588 00ca 78000001 		e_bl i2c_sw_delay
 589              		.loc 1 244 0
 590 00ce 8971     		se_lbz %r7,9(%r1)
 591 00d0 6C17     		se_slwi %r7, 1
 592 00d2 9971     		se_stb %r7,9(%r1)
 593              		.loc 1 245 0
 594 00d4 70DEE7FC 		e_lis %r6,0xf7fc
 595 00d8 C671     		se_lwz %r7,24(%r1)
 596 00da C277     		se_lwz %r7,8(%r7)
 597 00dc 7CE52070 		e_slwi %r5,%r7,4
 598 00e0 C671     		se_lwz %r7,24(%r1)
 599 00e2 C377     		se_lwz %r7,12(%r7)
 600 00e4 7CE53A14 		add %r7,%r5,%r7
 601 00e8 7CE63A14 		add %r7,%r6,%r7
 602 00ec 30E71500 		e_lbz %r7,5376(%r7)
 603 00f0 00C7     		se_extzb %r7
 604 00f2 2207     		se_cmpli %r7,1
 605 00f4 7F800020 		e_mcrf %cr7,%cr0
 606 00f8 7CE00026 		mfcr %r7
 607 00fc 74E7E007 		e_rlwinm %r7,%r7,28,0xf0000000
 608 0100 7CE80120 		mtcrf 128,%r7
 609 0104 7A02000A 		e_bne %cr0,.L19
 610              		.loc 1 246 0
 611 0108 8971     		se_lbz %r7,9(%r1)
 612 010a 65F7     		se_bseti %r7,31
 613 010c 9971     		se_stb %r7,9(%r1)
 614              	.L19:
 615              		.loc 1 233 0 discriminator 2
 616 010e 8871     		se_lbz %r7,8(%r1)
 617 0110 00C7     		se_extzb %r7
 618 0112 2007     		se_addi %r7,1
 619 0114 9871     		se_stb %r7,8(%r1)
 620              	.L18:
 621              		.loc 1 233 0 is_stmt 0 discriminator 1
 622 0116 8871     		se_lbz %r7,8(%r1)
 623 0118 00C7     		se_extzb %r7
GAS LISTING C:\Users\nascapro\AppData\Local\Temp\ccb4eRoZ.s 			page 12


 624 011a 2267     		se_cmpli %r7,7
 625 011c 7F800020 		e_mcrf %cr7,%cr0
 626 0120 7CE00026 		mfcr %r7
 627 0124 74E7E007 		e_rlwinm %r7,%r7,28,0xf0000000
 628 0128 7CE80120 		mtcrf 128,%r7
 629 012c 7A01FF34 		e_ble %cr0,.L20
 630              		.loc 1 250 0 is_stmt 1
 631 0130 70DEE7FC 		e_lis %r6,0xf7fc
 632 0134 C671     		se_lwz %r7,24(%r1)
 633 0136 C077     		se_lwz %r7,0(%r7)
 634 0138 7CE52070 		e_slwi %r5,%r7,4
 635 013c C671     		se_lwz %r7,24(%r1)
 636 013e C177     		se_lwz %r7,4(%r7)
 637 0140 7CE53A14 		add %r7,%r5,%r7
 638 0144 7CE63A14 		add %r7,%r6,%r7
 639 0148 4806     		se_li %r6,0
 640 014a 34C71300 		e_stb %r6,4864(%r7)
 641              		.loc 1 251 0
 642 014e 4A83     		se_li %r3,40
 643 0150 78000001 		e_bl i2c_sw_delay
 644              		.loc 1 254 0
 645 0154 30E10020 		e_lbz %r7,32(%r1)
 646 0158 00C7     		se_extzb %r7
 647 015a 2A17     		se_cmpi %r7,1
 648 015c 7F800020 		e_mcrf %cr7,%cr0
 649 0160 7CE00026 		mfcr %r7
 650 0164 74E7E007 		e_rlwinm %r7,%r7,28,0xf0000000
 651 0168 7CE80120 		mtcrf 128,%r7
 652 016c 7A020026 		e_bne %cr0,.L21
 653              		.loc 1 256 0
 654 0170 70DEE7FC 		e_lis %r6,0xf7fc
 655 0174 C671     		se_lwz %r7,24(%r1)
 656 0176 C277     		se_lwz %r7,8(%r7)
 657 0178 7CE52070 		e_slwi %r5,%r7,4
 658 017c C671     		se_lwz %r7,24(%r1)
 659 017e C377     		se_lwz %r7,12(%r7)
 660 0180 7CE53A14 		add %r7,%r5,%r7
 661 0184 7CE63A14 		add %r7,%r6,%r7
 662 0188 4816     		se_li %r6,1
 663 018a 34C71300 		e_stb %r6,4864(%r7)
 664 018e 78000022 		e_b .L22
 665              	.L21:
 666              		.loc 1 259 0
 667 0192 70DEE7FC 		e_lis %r6,0xf7fc
 668 0196 C671     		se_lwz %r7,24(%r1)
 669 0198 C277     		se_lwz %r7,8(%r7)
 670 019a 7CE52070 		e_slwi %r5,%r7,4
 671 019e C671     		se_lwz %r7,24(%r1)
 672 01a0 C377     		se_lwz %r7,12(%r7)
 673 01a2 7CE53A14 		add %r7,%r5,%r7
 674 01a6 7CE63A14 		add %r7,%r6,%r7
 675 01aa 4806     		se_li %r6,0
 676 01ac 34C71300 		e_stb %r6,4864(%r7)
 677              	.L22:
 678              		.loc 1 262 0
 679 01b0 4A83     		se_li %r3,40
 680 01b2 78000001 		e_bl i2c_sw_delay
GAS LISTING C:\Users\nascapro\AppData\Local\Temp\ccb4eRoZ.s 			page 13


 681              		.loc 1 263 0
 682 01b6 70DEE7FC 		e_lis %r6,0xf7fc
 683 01ba C671     		se_lwz %r7,24(%r1)
 684 01bc C077     		se_lwz %r7,0(%r7)
 685 01be 7CE52070 		e_slwi %r5,%r7,4
 686 01c2 C671     		se_lwz %r7,24(%r1)
 687 01c4 C177     		se_lwz %r7,4(%r7)
 688 01c6 7CE53A14 		add %r7,%r5,%r7
 689 01ca 7CE63A14 		add %r7,%r6,%r7
 690 01ce 4816     		se_li %r6,1
 691 01d0 34C71300 		e_stb %r6,4864(%r7)
 692              	.L23:
 693              		.loc 1 267 0 discriminator 1
 694 01d4 4A83     		se_li %r3,40
 695 01d6 78000001 		e_bl i2c_sw_delay
 696              		.loc 1 268 0 discriminator 1
 697 01da 70DEE7FC 		e_lis %r6,0xf7fc
 698 01de C671     		se_lwz %r7,24(%r1)
 699 01e0 C077     		se_lwz %r7,0(%r7)
 700 01e2 7CE52070 		e_slwi %r5,%r7,4
 701 01e6 C671     		se_lwz %r7,24(%r1)
 702 01e8 C177     		se_lwz %r7,4(%r7)
 703 01ea 7CE53A14 		add %r7,%r5,%r7
 704 01ee 7CE63A14 		add %r7,%r6,%r7
 705 01f2 30E71500 		e_lbz %r7,5376(%r7)
 706 01f6 00C7     		se_extzb %r7
 707 01f8 2A07     		se_cmpi %r7,0
 708 01fa 7F800020 		e_mcrf %cr7,%cr0
 709 01fe 7CE00026 		mfcr %r7
 710 0202 74E7E007 		e_rlwinm %r7,%r7,28,0xf0000000
 711 0206 7CE80120 		mtcrf 128,%r7
 712 020a 7A12FFCA 		e_beq %cr0,.L23
 713              		.loc 1 271 0
 714 020e 70DEE7FC 		e_lis %r6,0xf7fc
 715 0212 C671     		se_lwz %r7,24(%r1)
 716 0214 C077     		se_lwz %r7,0(%r7)
 717 0216 7CE52070 		e_slwi %r5,%r7,4
 718 021a C671     		se_lwz %r7,24(%r1)
 719 021c C177     		se_lwz %r7,4(%r7)
 720 021e 7CE53A14 		add %r7,%r5,%r7
 721 0222 7CE63A14 		add %r7,%r6,%r7
 722 0226 4806     		se_li %r6,0
 723 0228 34C71300 		e_stb %r6,4864(%r7)
 724              		.loc 1 272 0
 725 022c 4A83     		se_li %r3,40
 726 022e 78000001 		e_bl i2c_sw_delay
 727              		.loc 1 274 0
 728 0232 C771     		se_lwz %r7,28(%r1)
 729 0234 8961     		se_lbz %r6,9(%r1)
 730 0236 9067     		se_stb %r6,0(%r7)
 731              		.loc 1 276 0
 732 0238 4807     		se_li %r7,0
 733              		.loc 1 277 0
 734 023a 0173     		se_mr %r3,%r7
 735 023c CB01     		se_lwz %r0,44(%r1)
 736 023e 0090     		se_mtlr %r0
 737 0240 18218028 		e_addi %r1,%r1,40
GAS LISTING C:\Users\nascapro\AppData\Local\Temp\ccb4eRoZ.s 			page 14


 738              	.LCFI11:
 739              		.cfi_def_cfa_offset 0
 740 0244 0004     		se_blr
 741              		.cfi_endproc
 742              	.LFE7:
 743              		.size	i2c_sw_read8, .-i2c_sw_read8
 744              		.section	.text.i2c_sw_start,"axv",@progbits
 745              		.align 1
 746              		.p2align 4,,15
 747              		.type	i2c_sw_start, @function
 748              	i2c_sw_start:
 749              	.LFB8:
 750              		.loc 1 294 0
 751              		.cfi_startproc
 752 0000 182106E0 		e_stwu %r1,-32(%r1)
 753              	.LCFI12:
 754              		.cfi_def_cfa_offset 32
 755 0004 D631     		se_stw %r3,24(%r1)
 756 0006 D741     		se_stw %r4,28(%r1)
 757              		.loc 1 296 0
 758 0008 C671     		se_lwz %r7,24(%r1)
 759 000a D271     		se_stw %r7,8(%r1)
 760              		.loc 1 297 0
 761 000c C771     		se_lwz %r7,28(%r1)
 762 000e D371     		se_stw %r7,12(%r1)
 763              		.loc 1 300 0
 764 0010 C371     		se_lwz %r7,12(%r1)
 765 0012 C367     		se_lwz %r6,12(%r7)
 766 0014 C271     		se_lwz %r7,8(%r1)
 767 0016 D067     		se_stw %r6,0(%r7)
 768              		.loc 1 301 0
 769 0018 C371     		se_lwz %r7,12(%r1)
 770 001a C467     		se_lwz %r6,16(%r7)
 771 001c C271     		se_lwz %r7,8(%r1)
 772 001e D167     		se_stw %r6,4(%r7)
 773              		.loc 1 304 0
 774 0020 C371     		se_lwz %r7,12(%r1)
 775 0022 C567     		se_lwz %r6,20(%r7)
 776 0024 C271     		se_lwz %r7,8(%r1)
 777 0026 D267     		se_stw %r6,8(%r7)
 778              		.loc 1 305 0
 779 0028 C371     		se_lwz %r7,12(%r1)
 780 002a C667     		se_lwz %r6,24(%r7)
 781 002c C271     		se_lwz %r7,8(%r1)
 782 002e D367     		se_stw %r6,12(%r7)
 783              		.loc 1 307 0
 784 0030 4807     		se_li %r7,0
 785              		.loc 1 308 0
 786 0032 0173     		se_mr %r3,%r7
 787 0034 21F1     		se_addi %r1,32
 788              	.LCFI13:
 789              		.cfi_def_cfa_offset 0
 790 0036 0004     		se_blr
 791              		.cfi_endproc
 792              	.LFE8:
 793              		.size	i2c_sw_start, .-i2c_sw_start
 794              		.section	.text.i2c_sw_stop,"axv",@progbits
GAS LISTING C:\Users\nascapro\AppData\Local\Temp\ccb4eRoZ.s 			page 15


 795              		.align 1
 796              		.p2align 4,,15
 797              		.type	i2c_sw_stop, @function
 798              	i2c_sw_stop:
 799              	.LFB9:
 800              		.loc 1 319 0
 801              		.cfi_startproc
 802 0000 182106F0 		e_stwu %r1,-16(%r1)
 803              	.LCFI14:
 804              		.cfi_def_cfa_offset 16
 805 0004 D231     		se_stw %r3,8(%r1)
 806              		.loc 1 323 0
 807 0006 4807     		se_li %r7,0
 808              		.loc 1 324 0
 809 0008 0173     		se_mr %r3,%r7
 810 000a 20F1     		se_addi %r1,16
 811              	.LCFI15:
 812              		.cfi_def_cfa_offset 0
 813 000c 0004     		se_blr
 814              		.cfi_endproc
 815              	.LFE9:
 816              		.size	i2c_sw_stop, .-i2c_sw_stop
 817              		.section	.text.i2c_sw_write,"axv",@progbits
 818              		.align 1
 819              		.p2align 4,,15
 820              		.type	i2c_sw_write, @function
 821              	i2c_sw_write:
 822              	.LFB10:
 823              		.loc 1 339 0
 824              		.cfi_startproc
 825 0000 182106D8 		e_stwu %r1,-40(%r1)
 826              	.LCFI16:
 827              		.cfi_def_cfa_offset 40
 828 0004 0080     		se_mflr %r0
 829 0006 DB01     		se_stw %r0,44(%r1)
 830              		.cfi_offset 65, 4
 831 0008 D631     		se_stw %r3,24(%r1)
 832 000a D871     		se_stw %r7,32(%r1)
 833 000c 55010024 		e_stw %r8,36(%r1)
 834 0010 3481001C 		e_stb %r4,28(%r1)
 835 0014 BF51     		se_sth %r5,30(%r1)
 836 0016 34C1001D 		e_stb %r6,29(%r1)
 837              		.loc 1 343 0
 838 001a C671     		se_lwz %r7,24(%r1)
 839 001c D471     		se_stw %r7,16(%r1)
 840              		.loc 1 346 0
 841 001e C431     		se_lwz %r3,16(%r1)
 842 0020 78000001 		e_bl i2c_sw_start_condition
 843              		.loc 1 349 0
 844 0024 30E1001C 		e_lbz %r7,28(%r1)
 845 0028 00C7     		se_extzb %r7
 846 002a C431     		se_lwz %r3,16(%r1)
 847 002c 0174     		se_mr %r4,%r7
 848 002e 78000001 		e_bl i2c_sw_write8
 849 0032 0137     		se_mr %r7,%r3
 850 0034 D371     		se_stw %r7,12(%r1)
 851              		.loc 1 351 0
GAS LISTING C:\Users\nascapro\AppData\Local\Temp\ccb4eRoZ.s 			page 16


 852 0036 C371     		se_lwz %r7,12(%r1)
 853 0038 2A07     		se_cmpi %r7,0
 854 003a 7F800020 		e_mcrf %cr7,%cr0
 855 003e 7CE00026 		mfcr %r7
 856 0042 74E7E007 		e_rlwinm %r7,%r7,28,0xf0000000
 857 0046 7CE80120 		mtcrf 128,%r7
 858 004a 7A02005E 		e_bne %cr0,.L30
 859              		.loc 1 353 0
 860 004e 30E1001D 		e_lbz %r7,29(%r1)
 861 0052 00C7     		se_extzb %r7
 862 0054 2A27     		se_cmpi %r7,2
 863 0056 7F800020 		e_mcrf %cr7,%cr0
 864 005a 7CE00026 		mfcr %r7
 865 005e 74E7E007 		e_rlwinm %r7,%r7,28,0xf0000000
 866 0062 7CE80120 		mtcrf 128,%r7
 867 0066 7A02001A 		e_bne %cr0,.L31
 868              		.loc 1 355 0
 869 006a AF71     		se_lhz %r7,30(%r1)
 870 006c 00E7     		se_extzh %r7
 871 006e 6887     		se_srwi %r7,8
 872 0070 00E7     		se_extzh %r7
 873 0072 00C7     		se_extzb %r7
 874 0074 C431     		se_lwz %r3,16(%r1)
 875 0076 0174     		se_mr %r4,%r7
 876 0078 78000001 		e_bl i2c_sw_write8
 877 007c 0137     		se_mr %r7,%r3
 878 007e D371     		se_stw %r7,12(%r1)
 879              	.L31:
 880              		.loc 1 357 0
 881 0080 C371     		se_lwz %r7,12(%r1)
 882 0082 2A07     		se_cmpi %r7,0
 883 0084 7F800020 		e_mcrf %cr7,%cr0
 884 0088 7CE00026 		mfcr %r7
 885 008c 74E7E007 		e_rlwinm %r7,%r7,28,0xf0000000
 886 0090 7CE80120 		mtcrf 128,%r7
 887 0094 7A020014 		e_bne %cr0,.L30
 888              		.loc 1 359 0
 889 0098 AF71     		se_lhz %r7,30(%r1)
 890 009a 00C7     		se_extzb %r7
 891 009c C431     		se_lwz %r3,16(%r1)
 892 009e 0174     		se_mr %r4,%r7
 893 00a0 78000001 		e_bl i2c_sw_write8
 894 00a4 0137     		se_mr %r7,%r3
 895 00a6 D371     		se_stw %r7,12(%r1)
 896              	.L30:
 897              		.loc 1 365 0
 898 00a8 4807     		se_li %r7,0
 899 00aa D271     		se_stw %r7,8(%r1)
 900 00ac 78000022 		e_b .L32
 901              	.L34:
 902              		.loc 1 367 0 discriminator 4
 903 00b0 C871     		se_lwz %r7,32(%r1)
 904 00b2 18C78001 		e_addi %r6,%r7,1
 905 00b6 D861     		se_stw %r6,32(%r1)
 906 00b8 8077     		se_lbz %r7,0(%r7)
 907 00ba 00C7     		se_extzb %r7
 908 00bc C431     		se_lwz %r3,16(%r1)
GAS LISTING C:\Users\nascapro\AppData\Local\Temp\ccb4eRoZ.s 			page 17


 909 00be 0174     		se_mr %r4,%r7
 910 00c0 78000001 		e_bl i2c_sw_write8
 911 00c4 0137     		se_mr %r7,%r3
 912 00c6 D371     		se_stw %r7,12(%r1)
 913              		.loc 1 365 0 discriminator 4
 914 00c8 C271     		se_lwz %r7,8(%r1)
 915 00ca 2007     		se_addi %r7,1
 916 00cc D271     		se_stw %r7,8(%r1)
 917              	.L32:
 918              		.loc 1 365 0 is_stmt 0 discriminator 1
 919 00ce C371     		se_lwz %r7,12(%r1)
 920 00d0 2A07     		se_cmpi %r7,0
 921 00d2 7F800020 		e_mcrf %cr7,%cr0
 922 00d6 7CE00026 		mfcr %r7
 923 00da 74E7E007 		e_rlwinm %r7,%r7,28,0xf0000000
 924 00de 7CE80120 		mtcrf 128,%r7
 925 00e2 7A02001C 		e_bne %cr0,.L33
 926              		.loc 1 365 0 discriminator 3
 927 00e6 C261     		se_lwz %r6,8(%r1)
 928 00e8 C971     		se_lwz %r7,36(%r1)
 929 00ea 7F863840 		cmpl %cr7,%r6,%r7
 930 00ee 7CE00026 		mfcr %r7
 931 00f2 74E7E007 		e_rlwinm %r7,%r7,28,0xf0000000
 932 00f6 7CE80120 		mtcrf 128,%r7
 933 00fa 7A10FFB6 		e_blt %cr0,.L34
 934              	.L33:
 935              		.loc 1 371 0 is_stmt 1
 936 00fe C431     		se_lwz %r3,16(%r1)
 937 0100 78000001 		e_bl i2c_sw_stop_condition
 938              		.loc 1 373 0
 939 0104 C371     		se_lwz %r7,12(%r1)
 940 0106 2A07     		se_cmpi %r7,0
 941 0108 7F800020 		e_mcrf %cr7,%cr0
 942 010c 7CE00026 		mfcr %r7
 943 0110 74E7E007 		e_rlwinm %r7,%r7,28,0xf0000000
 944 0114 7CE80120 		mtcrf 128,%r7
 945 0118 7A02000A 		e_bne %cr0,.L35
 946              		.loc 1 373 0 is_stmt 0 discriminator 1
 947 011c 4807     		se_li %r7,0
 948 011e 78000008 		e_b .L36
 949              	.L35:
 950              		.loc 1 373 0 discriminator 2
 951 0122 70FF7FFE 		e_li %r7,-2
 952              	.L36:
 953              		.loc 1 374 0 is_stmt 1 discriminator 4
 954 0126 0173     		se_mr %r3,%r7
 955 0128 CB01     		se_lwz %r0,44(%r1)
 956 012a 0090     		se_mtlr %r0
 957 012c 18218028 		e_addi %r1,%r1,40
 958              	.LCFI17:
 959              		.cfi_def_cfa_offset 0
 960 0130 0004     		se_blr
 961              		.cfi_endproc
 962              	.LFE10:
 963              		.size	i2c_sw_write, .-i2c_sw_write
 964              		.section	.text.i2c_sw_read,"axv",@progbits
 965              		.align 1
GAS LISTING C:\Users\nascapro\AppData\Local\Temp\ccb4eRoZ.s 			page 18


 966              		.p2align 4,,15
 967              		.type	i2c_sw_read, @function
 968              	i2c_sw_read:
 969              	.LFB11:
 970              		.loc 1 389 0
 971              		.cfi_startproc
 972 0000 182106D8 		e_stwu %r1,-40(%r1)
 973              	.LCFI18:
 974              		.cfi_def_cfa_offset 40
 975 0004 0080     		se_mflr %r0
 976 0006 DB01     		se_stw %r0,44(%r1)
 977              		.cfi_offset 65, 4
 978 0008 D631     		se_stw %r3,24(%r1)
 979 000a D871     		se_stw %r7,32(%r1)
 980 000c 55010024 		e_stw %r8,36(%r1)
 981 0010 3481001C 		e_stb %r4,28(%r1)
 982 0014 BF51     		se_sth %r5,30(%r1)
 983 0016 34C1001D 		e_stb %r6,29(%r1)
 984              		.loc 1 393 0
 985 001a C671     		se_lwz %r7,24(%r1)
 986 001c D471     		se_stw %r7,16(%r1)
 987              		.loc 1 396 0
 988 001e C431     		se_lwz %r3,16(%r1)
 989 0020 78000001 		e_bl i2c_sw_start_condition
 990              		.loc 1 399 0
 991 0024 30E1001C 		e_lbz %r7,28(%r1)
 992 0028 00C7     		se_extzb %r7
 993 002a C431     		se_lwz %r3,16(%r1)
 994 002c 0174     		se_mr %r4,%r7
 995 002e 78000001 		e_bl i2c_sw_write8
 996 0032 0137     		se_mr %r7,%r3
 997 0034 D371     		se_stw %r7,12(%r1)
 998              		.loc 1 401 0
 999 0036 C371     		se_lwz %r7,12(%r1)
 1000 0038 2A07     		se_cmpi %r7,0
 1001 003a 7F800020 		e_mcrf %cr7,%cr0
 1002 003e 7CE00026 		mfcr %r7
 1003 0042 74E7E007 		e_rlwinm %r7,%r7,28,0xf0000000
 1004 0046 7CE80120 		mtcrf 128,%r7
 1005 004a 7A02005E 		e_bne %cr0,.L39
 1006              		.loc 1 403 0
 1007 004e 30E1001D 		e_lbz %r7,29(%r1)
 1008 0052 00C7     		se_extzb %r7
 1009 0054 2A27     		se_cmpi %r7,2
 1010 0056 7F800020 		e_mcrf %cr7,%cr0
 1011 005a 7CE00026 		mfcr %r7
 1012 005e 74E7E007 		e_rlwinm %r7,%r7,28,0xf0000000
 1013 0062 7CE80120 		mtcrf 128,%r7
 1014 0066 7A02001A 		e_bne %cr0,.L40
 1015              		.loc 1 405 0
 1016 006a AF71     		se_lhz %r7,30(%r1)
 1017 006c 00E7     		se_extzh %r7
 1018 006e 6887     		se_srwi %r7,8
 1019 0070 00E7     		se_extzh %r7
 1020 0072 00C7     		se_extzb %r7
 1021 0074 C431     		se_lwz %r3,16(%r1)
 1022 0076 0174     		se_mr %r4,%r7
GAS LISTING C:\Users\nascapro\AppData\Local\Temp\ccb4eRoZ.s 			page 19


 1023 0078 78000001 		e_bl i2c_sw_write8
 1024 007c 0137     		se_mr %r7,%r3
 1025 007e D371     		se_stw %r7,12(%r1)
 1026              	.L40:
 1027              		.loc 1 407 0
 1028 0080 C371     		se_lwz %r7,12(%r1)
 1029 0082 2A07     		se_cmpi %r7,0
 1030 0084 7F800020 		e_mcrf %cr7,%cr0
 1031 0088 7CE00026 		mfcr %r7
 1032 008c 74E7E007 		e_rlwinm %r7,%r7,28,0xf0000000
 1033 0090 7CE80120 		mtcrf 128,%r7
 1034 0094 7A020014 		e_bne %cr0,.L39
 1035              		.loc 1 409 0
 1036 0098 AF71     		se_lhz %r7,30(%r1)
 1037 009a 00C7     		se_extzb %r7
 1038 009c C431     		se_lwz %r3,16(%r1)
 1039 009e 0174     		se_mr %r4,%r7
 1040 00a0 78000001 		e_bl i2c_sw_write8
 1041 00a4 0137     		se_mr %r7,%r3
 1042 00a6 D371     		se_stw %r7,12(%r1)
 1043              	.L39:
 1044              		.loc 1 413 0
 1045 00a8 C371     		se_lwz %r7,12(%r1)
 1046 00aa 2A07     		se_cmpi %r7,0
 1047 00ac 7F800020 		e_mcrf %cr7,%cr0
 1048 00b0 7CE00026 		mfcr %r7
 1049 00b4 74E7E007 		e_rlwinm %r7,%r7,28,0xf0000000
 1050 00b8 7CE80120 		mtcrf 128,%r7
 1051 00bc 7A02000A 		e_bne %cr0,.L41
 1052              		.loc 1 415 0
 1053 00c0 C431     		se_lwz %r3,16(%r1)
 1054 00c2 78000001 		e_bl i2c_sw_start_condition
 1055              	.L41:
 1056              		.loc 1 419 0
 1057 00c6 C371     		se_lwz %r7,12(%r1)
 1058 00c8 2A07     		se_cmpi %r7,0
 1059 00ca 7F800020 		e_mcrf %cr7,%cr0
 1060 00ce 7CE00026 		mfcr %r7
 1061 00d2 74E7E007 		e_rlwinm %r7,%r7,28,0xf0000000
 1062 00d6 7CE80120 		mtcrf 128,%r7
 1063 00da 7A020018 		e_bne %cr0,.L42
 1064              		.loc 1 421 0
 1065 00de 30E1001C 		e_lbz %r7,28(%r1)
 1066 00e2 65F7     		se_bseti %r7,31
 1067 00e4 00C7     		se_extzb %r7
 1068 00e6 C431     		se_lwz %r3,16(%r1)
 1069 00e8 0174     		se_mr %r4,%r7
 1070 00ea 78000001 		e_bl i2c_sw_write8
 1071 00ee 0137     		se_mr %r7,%r3
 1072 00f0 D371     		se_stw %r7,12(%r1)
 1073              	.L42:
 1074              		.loc 1 424 0
 1075 00f2 C371     		se_lwz %r7,12(%r1)
 1076 00f4 2A07     		se_cmpi %r7,0
 1077 00f6 7F800020 		e_mcrf %cr7,%cr0
 1078 00fa 7CE00026 		mfcr %r7
 1079 00fe 74E7E007 		e_rlwinm %r7,%r7,28,0xf0000000
GAS LISTING C:\Users\nascapro\AppData\Local\Temp\ccb4eRoZ.s 			page 20


 1080 0102 7CE80120 		mtcrf 128,%r7
 1081 0106 7A02005C 		e_bne %cr0,.L43
 1082              		.loc 1 425 0
 1083 010a 4807     		se_li %r7,0
 1084 010c D271     		se_stw %r7,8(%r1)
 1085              	.L46:
 1086              		.loc 1 427 0
 1087 010e C271     		se_lwz %r7,8(%r1)
 1088 0110 2007     		se_addi %r7,1
 1089 0112 D271     		se_stw %r7,8(%r1)
 1090              		.loc 1 429 0
 1091 0114 C861     		se_lwz %r6,32(%r1)
 1092 0116 18E68001 		e_addi %r7,%r6,1
 1093 011a D871     		se_stw %r7,32(%r1)
 1094 011c C251     		se_lwz %r5,8(%r1)
 1095 011e C971     		se_lwz %r7,36(%r1)
 1096 0120 7F853800 		cmp %cr7,%r5,%r7
 1097 0124 7CE00026 		mfcr %r7
 1098 0128 74E7E007 		e_rlwinm %r7,%r7,28,0xf0000000
 1099 012c 7CE80120 		mtcrf 128,%r7
 1100 0130 7A02000A 		e_bne %cr0,.L44
 1101              		.loc 1 429 0 is_stmt 0 discriminator 1
 1102 0134 4817     		se_li %r7,1
 1103 0136 78000006 		e_b .L45
 1104              	.L44:
 1105              		.loc 1 429 0 discriminator 2
 1106 013a 4807     		se_li %r7,0
 1107              	.L45:
 1108              		.loc 1 429 0 discriminator 4
 1109 013c C431     		se_lwz %r3,16(%r1)
 1110 013e 0164     		se_mr %r4,%r6
 1111 0140 0175     		se_mr %r5,%r7
 1112 0142 78000001 		e_bl i2c_sw_read8
 1113 0146 0137     		se_mr %r7,%r3
 1114 0148 D371     		se_stw %r7,12(%r1)
 1115              		.loc 1 430 0 is_stmt 1 discriminator 4
 1116 014a C261     		se_lwz %r6,8(%r1)
 1117 014c C971     		se_lwz %r7,36(%r1)
 1118 014e 7F863840 		cmpl %cr7,%r6,%r7
 1119 0152 7CE00026 		mfcr %r7
 1120 0156 74E7E007 		e_rlwinm %r7,%r7,28,0xf0000000
 1121 015a 7CE80120 		mtcrf 128,%r7
 1122 015e 7A10FFB0 		e_blt %cr0,.L46
 1123              	.L43:
 1124              		.loc 1 434 0
 1125 0162 C431     		se_lwz %r3,16(%r1)
 1126 0164 78000001 		e_bl i2c_sw_stop_condition
 1127              		.loc 1 436 0
 1128 0168 C371     		se_lwz %r7,12(%r1)
 1129 016a 2A07     		se_cmpi %r7,0
 1130 016c 7F800020 		e_mcrf %cr7,%cr0
 1131 0170 7CE00026 		mfcr %r7
 1132 0174 74E7E007 		e_rlwinm %r7,%r7,28,0xf0000000
 1133 0178 7CE80120 		mtcrf 128,%r7
 1134 017c 7A02000A 		e_bne %cr0,.L47
 1135              		.loc 1 436 0 is_stmt 0 discriminator 1
 1136 0180 4807     		se_li %r7,0
GAS LISTING C:\Users\nascapro\AppData\Local\Temp\ccb4eRoZ.s 			page 21


 1137 0182 78000008 		e_b .L48
 1138              	.L47:
 1139              		.loc 1 436 0 discriminator 2
 1140 0186 70FF7FFE 		e_li %r7,-2
 1141              	.L48:
 1142              		.loc 1 437 0 is_stmt 1 discriminator 4
 1143 018a 0173     		se_mr %r3,%r7
 1144 018c CB01     		se_lwz %r0,44(%r1)
 1145 018e 0090     		se_mtlr %r0
 1146 0190 18218028 		e_addi %r1,%r1,40
 1147              	.LCFI19:
 1148              		.cfi_def_cfa_offset 0
 1149 0194 0004     		se_blr
 1150              		.cfi_endproc
 1151              	.LFE11:
 1152              		.size	i2c_sw_read, .-i2c_sw_read
 1153              		.section	.text.i2c_sw_init,"axv",@progbits
 1154              		.align 1
 1155              		.p2align 4,,15
 1156              		.globl i2c_sw_init
 1157              		.type	i2c_sw_init, @function
 1158              	i2c_sw_init:
 1159              	.LFB12:
 1160              		.loc 1 453 0
 1161              		.cfi_startproc
 1162 0000 182106E0 		e_stwu %r1,-32(%r1)
 1163              	.LCFI20:
 1164              		.cfi_def_cfa_offset 32
 1165 0004 D631     		se_stw %r3,24(%r1)
 1166              		.loc 1 457 0
 1167 0006 C671     		se_lwz %r7,24(%r1)
 1168 0008 C077     		se_lwz %r7,0(%r7)
 1169 000a D271     		se_stw %r7,8(%r1)
 1170              		.loc 1 461 0
 1171 000c C271     		se_lwz %r7,8(%r1)
 1172 000e 2227     		se_cmpli %r7,3
 1173 0010 7F800020 		e_mcrf %cr7,%cr0
 1174 0014 7CE00026 		mfcr %r7
 1175 0018 74E7E007 		e_rlwinm %r7,%r7,28,0xf0000000
 1176 001c 7CE80120 		mtcrf 128,%r7
 1177 0020 7A010008 		e_ble %cr0,.L51
 1178              		.loc 1 462 0
 1179 0024 78000048 		e_b .L50
 1180              	.L51:
 1181              		.loc 1 467 0
 1182 0028 C671     		se_lwz %r7,24(%r1)
 1183 002a 70C0E000 		e_lis %r6,i2c_sw_start@ha
 1184 002e 1CC60000 		e_la %r6,i2c_sw_start@l(%r6)
 1185 0032 D267     		se_stw %r6,8(%r7)
 1186              		.loc 1 468 0
 1187 0034 C671     		se_lwz %r7,24(%r1)
 1188 0036 70C0E000 		e_lis %r6,i2c_sw_stop@ha
 1189 003a 1CC60000 		e_la %r6,i2c_sw_stop@l(%r6)
 1190 003e D367     		se_stw %r6,12(%r7)
 1191              		.loc 1 469 0
 1192 0040 C671     		se_lwz %r7,24(%r1)
 1193 0042 70C0E000 		e_lis %r6,i2c_sw_write@ha
GAS LISTING C:\Users\nascapro\AppData\Local\Temp\ccb4eRoZ.s 			page 22


 1194 0046 1CC60000 		e_la %r6,i2c_sw_write@l(%r6)
 1195 004a D467     		se_stw %r6,16(%r7)
 1196              		.loc 1 470 0
 1197 004c C671     		se_lwz %r7,24(%r1)
 1198 004e 70C0E000 		e_lis %r6,i2c_sw_read@ha
 1199 0052 1CC60000 		e_la %r6,i2c_sw_read@l(%r6)
 1200 0056 D567     		se_stw %r6,20(%r7)
 1201              		.loc 1 473 0
 1202 0058 C271     		se_lwz %r7,8(%r1)
 1203 005a 7CE62070 		e_slwi %r6,%r7,4
 1204 005e 70E0E000 		e_lis %r7,i2c_sw@ha
 1205 0062 1CE70000 		e_la %r7,i2c_sw@l(%r7)
 1206 0066 0476     		se_add %r6,%r7
 1207 0068 C671     		se_lwz %r7,24(%r1)
 1208 006a D167     		se_stw %r6,4(%r7)
 1209              	.L50:
 1210              		.loc 1 474 0
 1211 006c 21F1     		se_addi %r1,32
 1212              	.LCFI21:
 1213              		.cfi_def_cfa_offset 0
 1214 006e 0004     		se_blr
 1215              		.cfi_endproc
 1216              	.LFE12:
 1217              		.size	i2c_sw_init, .-i2c_sw_init
 1218              		.section	".text","axv"
 1219              	.Letext0:
 1220              		.file 2 "c:\\autodevkitstudio-2.1\\eclipse\\plugins\\com.st.tools.spc5.tools.gnu.gcc.ppcvle.win32_
 1221              		.file 3 "c:\\autodevkitstudio-2.1\\eclipse\\plugins\\com.st.tools.spc5.tools.gnu.gcc.ppcvle.win32_
 1222              		.file 4 "./components/spc582bxx_platform_component_rla/lib/include/typedefs.h"
 1223              		.file 5 "./components/spc582bxx_platform_component_rla/lib/include/spc582b.h"
 1224              		.file 6 "./components/spc582bxx_low_level_drivers_component_rla/lib/include/i2c_lld.h"
 1225              		.file 7 "./components/spc582bxx_low_level_drivers_component_rla/lib/include/i2c_if.h"