GAS LISTING C:\Users\cerru\AppData\Local\Temp\ccX7DVb9.s 			page 1


   1              		.file	"main.c"
   2              		.section	".text","axv"
   3              	.Ltext0:
   4              		.cfi_sections	.debug_frame
   5              		.globl __floatsidf
   6              		.globl __divdf3
   7              		.section	.text.get_approximated_angle,"axv",@progbits
   8              		.align 1
   9              		.p2align 4,,15
  10              		.globl get_approximated_angle
  11              		.type	get_approximated_angle, @function
  12              	get_approximated_angle:
  13              	.LFB0:
  14              		.file 1 "processing_functions.c"
  15              		.loc 1 11 0
  16              		.cfi_startproc
  17 0000 182106D0 		e_stwu %r1,-48(%r1)
  18              	.LCFI0:
  19              		.cfi_def_cfa_offset 48
  20 0004 0080     		se_mflr %r0
  21 0006 DD01     		se_stw %r0,52(%r1)
  22              		.cfi_offset 65, 4
  23 0008 DA31     		se_stw %r3,40(%r1)
  24 000a DB41     		se_stw %r4,44(%r1)
  25              		.loc 1 12 0
  26 000c 70C000F0 		e_li %r6,240
  27 0010 CA71     		se_lwz %r7,40(%r1)
  28 0012 7CE63A14 		add %r7,%r6,%r7
  29 0016 0173     		se_mr %r3,%r7
  30 0018 78000001 		e_bl __floatsidf
  31 001c 0240     		se_mtar %r8,%r4
  32 001e 0137     		se_mr %r7,%r3
  33 0020 D271     		se_stw %r7,8(%r1)
  34 0022 5501000C 		e_stw %r8,12(%r1)
  35              		.loc 1 13 0
  36 0026 70C000F0 		e_li %r6,240
  37 002a CB71     		se_lwz %r7,44(%r1)
  38 002c 7CE63A14 		add %r7,%r6,%r7
  39 0030 0173     		se_mr %r3,%r7
  40 0032 78000001 		e_bl __floatsidf
  41 0036 0240     		se_mtar %r8,%r4
  42 0038 0137     		se_mr %r7,%r3
  43 003a D471     		se_stw %r7,16(%r1)
  44 003c 55010014 		e_stw %r8,20(%r1)
  45              		.loc 1 14 0
  46 0040 C231     		se_lwz %r3,8(%r1)
  47 0042 C341     		se_lwz %r4,12(%r1)
  48 0044 C451     		se_lwz %r5,16(%r1)
  49 0046 C561     		se_lwz %r6,20(%r1)
  50 0048 78000001 		e_bl __divdf3
  51 004c 0240     		se_mtar %r8,%r4
  52 004e 0137     		se_mr %r7,%r3
  53 0050 0173     		se_mr %r3,%r7
  54 0052 0304     		se_mfar %r4,%r8
  55 0054 78000001 		e_bl acos
  56 0058 0240     		se_mtar %r8,%r4
  57 005a 0137     		se_mr %r7,%r3
GAS LISTING C:\Users\cerru\AppData\Local\Temp\ccX7DVb9.s 			page 2


  58 005c 0173     		se_mr %r3,%r7
  59 005e 0304     		se_mfar %r4,%r8
  60 0060 78000001 		e_bl rad_to_deg
  61 0064 D631     		se_stw %r3,24(%r1)
  62 0066 D741     		se_stw %r4,28(%r1)
  63              		.loc 1 15 0
  64 0068 C671     		se_lwz %r7,24(%r1)
  65 006a 5101001C 		e_lwz %r8,28(%r1)
  66              		.loc 1 16 0
  67 006e 0173     		se_mr %r3,%r7
  68 0070 0304     		se_mfar %r4,%r8
  69 0072 CD01     		se_lwz %r0,52(%r1)
  70 0074 0090     		se_mtlr %r0
  71 0076 18218030 		e_addi %r1,%r1,48
  72              	.LCFI1:
  73              		.cfi_def_cfa_offset 0
  74 007a 0004     		se_blr
  75              		.cfi_endproc
  76              	.LFE0:
  77              		.size	get_approximated_angle, .-get_approximated_angle
  78              		.globl __gtdf2
  79              		.globl __subdf3
  80              		.globl __adddf3
  81              		.section	.text.format_angle,"axv",@progbits
  82              		.align 1
  83              		.p2align 4,,15
  84              		.globl format_angle
  85              		.type	format_angle, @function
  86              	format_angle:
  87              	.LFB1:
  88              		.loc 1 18 0
  89              		.cfi_startproc
  90 0000 182106F0 		e_stwu %r1,-16(%r1)
  91              	.LCFI2:
  92              		.cfi_def_cfa_offset 16
  93 0004 0080     		se_mflr %r0
  94 0006 D501     		se_stw %r0,20(%r1)
  95              		.cfi_offset 65, 4
  96 0008 D231     		se_stw %r3,8(%r1)
  97 000a D341     		se_stw %r4,12(%r1)
  98              		.loc 1 19 0
  99 000c C261     		se_lwz %r6,8(%r1)
 100 000e 18C7C77F 		e_andi %r7,%r6,2147483647
 101 0012 5101000C 		e_lwz %r8,12(%r1)
 102 0016 0173     		se_mr %r3,%r7
 103 0018 0304     		se_mfar %r4,%r8
 104 001a 70A8E066 		e_lis %r5,0x4066
 105 001e 6505     		se_bseti %r5,16
 106 0020 4806     		se_li %r6,0
 107 0022 78000001 		e_bl __gtdf2
 108 0026 0137     		se_mr %r7,%r3
 109 0028 2A07     		se_cmpi %r7,0
 110 002a 7F800020 		e_mcrf %cr7,%cr0
 111 002e 7CE00026 		mfcr %r7
 112 0032 74E7E007 		e_rlwinm %r7,%r7,28,0xf0000000
 113 0036 7CE80120 		mtcrf 128,%r7
 114 003a 7A01005A 		e_ble %cr0,.L4
GAS LISTING C:\Users\cerru\AppData\Local\Temp\ccX7DVb9.s 			page 3


 115              		.loc 1 20 0
 116 003e C231     		se_lwz %r3,8(%r1)
 117 0040 C341     		se_lwz %r4,12(%r1)
 118 0042 4805     		se_li %r5,0
 119 0044 4806     		se_li %r6,0
 120 0046 78000001 		e_bl __gtdf2
 121 004a 0137     		se_mr %r7,%r3
 122 004c 2A07     		se_cmpi %r7,0
 123 004e 7F800020 		e_mcrf %cr7,%cr0
 124 0052 7CE00026 		mfcr %r7
 125 0056 74E7E007 		e_rlwinm %r7,%r7,28,0xf0000000
 126 005a 7CE80120 		mtcrf 128,%r7
 127 005e 7A01001C 		e_ble %cr0,.L12
 128              		.loc 1 20 0 is_stmt 0 discriminator 1
 129 0062 C231     		se_lwz %r3,8(%r1)
 130 0064 C341     		se_lwz %r4,12(%r1)
 131 0066 70A8E076 		e_lis %r5,0x4076
 132 006a 6505     		se_bseti %r5,16
 133 006c 4806     		se_li %r6,0
 134 006e 78000001 		e_bl __subdf3
 135 0072 0240     		se_mtar %r8,%r4
 136 0074 0137     		se_mr %r7,%r3
 137 0076 78000018 		e_b .L8
 138              	.L12:
 139              		.loc 1 20 0 discriminator 2
 140 007a C231     		se_lwz %r3,8(%r1)
 141 007c C341     		se_lwz %r4,12(%r1)
 142 007e 70A8E076 		e_lis %r5,0x4076
 143 0082 6505     		se_bseti %r5,16
 144 0084 4806     		se_li %r6,0
 145 0086 78000001 		e_bl __adddf3
 146 008a 0240     		se_mtar %r8,%r4
 147 008c 0137     		se_mr %r7,%r3
 148              	.L8:
 149              		.loc 1 20 0 discriminator 4
 150 008e D271     		se_stw %r7,8(%r1)
 151 0090 5501000C 		e_stw %r8,12(%r1)
 152              	.L4:
 153              		.loc 1 22 0 is_stmt 1
 154 0094 C271     		se_lwz %r7,8(%r1)
 155 0096 5101000C 		e_lwz %r8,12(%r1)
 156              		.loc 1 23 0
 157 009a 0173     		se_mr %r3,%r7
 158 009c 0304     		se_mfar %r4,%r8
 159 009e C501     		se_lwz %r0,20(%r1)
 160 00a0 0090     		se_mtlr %r0
 161 00a2 20F1     		se_addi %r1,16
 162              	.LCFI3:
 163              		.cfi_def_cfa_offset 0
 164 00a4 0004     		se_blr
 165              		.cfi_endproc
 166              	.LFE1:
 167              		.size	format_angle, .-format_angle
 168              		.globl __muldf3
 169              		.section	.text.deg_to_rad,"axv",@progbits
 170              		.align 1
 171              		.p2align 4,,15
GAS LISTING C:\Users\cerru\AppData\Local\Temp\ccX7DVb9.s 			page 4


 172              		.globl deg_to_rad
 173              		.type	deg_to_rad, @function
 174              	deg_to_rad:
 175              	.LFB2:
 176              		.loc 1 25 0
 177              		.cfi_startproc
 178 0000 182106F0 		e_stwu %r1,-16(%r1)
 179              	.LCFI4:
 180              		.cfi_def_cfa_offset 16
 181 0004 0080     		se_mflr %r0
 182 0006 D501     		se_stw %r0,20(%r1)
 183              		.cfi_offset 65, 4
 184 0008 D231     		se_stw %r3,8(%r1)
 185 000a D341     		se_stw %r4,12(%r1)
 186              		.loc 1 26 0
 187 000c C231     		se_lwz %r3,8(%r1)
 188 000e C341     		se_lwz %r4,12(%r1)
 189 0010 70A8E066 		e_lis %r5,0x4066
 190 0014 6505     		se_bseti %r5,16
 191 0016 4806     		se_li %r6,0
 192 0018 78000001 		e_bl __divdf3
 193 001c 0240     		se_mtar %r8,%r4
 194 001e 0137     		se_mr %r7,%r3
 195 0020 0173     		se_mr %r3,%r7
 196 0022 0304     		se_mfar %r4,%r8
 197 0024 70A8E009 		e_lis %r5,0x4009
 198 0028 70A3C6B8 		e_or2i %r5,7864
 199 002c 70CAE1EB 		e_lis %r6,0x51eb
 200 0030 70D0C51F 		e_or2i %r6,34079
 201 0034 78000001 		e_bl __muldf3
 202 0038 0240     		se_mtar %r8,%r4
 203 003a 0137     		se_mr %r7,%r3
 204              		.loc 1 27 0
 205 003c 0173     		se_mr %r3,%r7
 206 003e 0304     		se_mfar %r4,%r8
 207 0040 C501     		se_lwz %r0,20(%r1)
 208 0042 0090     		se_mtlr %r0
 209 0044 20F1     		se_addi %r1,16
 210              	.LCFI5:
 211              		.cfi_def_cfa_offset 0
 212 0046 0004     		se_blr
 213              		.cfi_endproc
 214              	.LFE2:
 215              		.size	deg_to_rad, .-deg_to_rad
 216              		.section	.text.rad_to_deg,"axv",@progbits
 217              		.align 1
 218              		.p2align 4,,15
 219              		.globl rad_to_deg
 220              		.type	rad_to_deg, @function
 221              	rad_to_deg:
 222              	.LFB3:
 223              		.loc 1 29 0
 224              		.cfi_startproc
 225 0000 182106F0 		e_stwu %r1,-16(%r1)
 226              	.LCFI6:
 227              		.cfi_def_cfa_offset 16
 228 0004 0080     		se_mflr %r0
GAS LISTING C:\Users\cerru\AppData\Local\Temp\ccX7DVb9.s 			page 5


 229 0006 D501     		se_stw %r0,20(%r1)
 230              		.cfi_offset 65, 4
 231 0008 D231     		se_stw %r3,8(%r1)
 232 000a D341     		se_stw %r4,12(%r1)
 233              		.loc 1 30 0
 234 000c C231     		se_lwz %r3,8(%r1)
 235 000e C341     		se_lwz %r4,12(%r1)
 236 0010 70A8E009 		e_lis %r5,0x4009
 237 0014 70A3C6B8 		e_or2i %r5,7864
 238 0018 70CAE1EB 		e_lis %r6,0x51eb
 239 001c 70D0C51F 		e_or2i %r6,34079
 240 0020 78000001 		e_bl __divdf3
 241 0024 0240     		se_mtar %r8,%r4
 242 0026 0137     		se_mr %r7,%r3
 243 0028 0173     		se_mr %r3,%r7
 244 002a 0304     		se_mfar %r4,%r8
 245 002c 70A8E066 		e_lis %r5,0x4066
 246 0030 6505     		se_bseti %r5,16
 247 0032 4806     		se_li %r6,0
 248 0034 78000001 		e_bl __muldf3
 249 0038 0240     		se_mtar %r8,%r4
 250 003a 0137     		se_mr %r7,%r3
 251              		.loc 1 31 0
 252 003c 0173     		se_mr %r3,%r7
 253 003e 0304     		se_mfar %r4,%r8
 254 0040 C501     		se_lwz %r0,20(%r1)
 255 0042 0090     		se_mtlr %r0
 256 0044 20F1     		se_addi %r1,16
 257              	.LCFI7:
 258              		.cfi_def_cfa_offset 0
 259 0046 0004     		se_blr
 260              		.cfi_endproc
 261              	.LFE3:
 262              		.size	rad_to_deg, .-rad_to_deg
 263              		.globl __ltdf2
 264              		.section	.text.ang_from_x_y,"axv",@progbits
 265              		.align 1
 266              		.p2align 4,,15
 267              		.globl ang_from_x_y
 268              		.type	ang_from_x_y, @function
 269              	ang_from_x_y:
 270              	.LFB4:
 271              		.loc 1 33 0
 272              		.cfi_startproc
 273 0000 182106D8 		e_stwu %r1,-40(%r1)
 274              	.LCFI8:
 275              		.cfi_def_cfa_offset 40
 276 0004 0080     		se_mflr %r0
 277 0006 DB01     		se_stw %r0,44(%r1)
 278              		.cfi_offset 65, 4
 279 0008 D631     		se_stw %r3,24(%r1)
 280 000a D741     		se_stw %r4,28(%r1)
 281 000c D851     		se_stw %r5,32(%r1)
 282 000e D961     		se_stw %r6,36(%r1)
 283              		.loc 1 34 0
 284 0010 C831     		se_lwz %r3,32(%r1)
 285 0012 C941     		se_lwz %r4,36(%r1)
GAS LISTING C:\Users\cerru\AppData\Local\Temp\ccX7DVb9.s 			page 6


 286 0014 C651     		se_lwz %r5,24(%r1)
 287 0016 C761     		se_lwz %r6,28(%r1)
 288 0018 78000001 		e_bl __divdf3
 289 001c 0240     		se_mtar %r8,%r4
 290 001e 0137     		se_mr %r7,%r3
 291 0020 D471     		se_stw %r7,16(%r1)
 292 0022 55010014 		e_stw %r8,20(%r1)
 293              		.loc 1 35 0
 294 0026 C431     		se_lwz %r3,16(%r1)
 295 0028 C541     		se_lwz %r4,20(%r1)
 296 002a 78000001 		e_bl atan
 297 002e 0240     		se_mtar %r8,%r4
 298 0030 0137     		se_mr %r7,%r3
 299 0032 0173     		se_mr %r3,%r7
 300 0034 0304     		se_mfar %r4,%r8
 301 0036 78000001 		e_bl rad_to_deg
 302 003a D231     		se_stw %r3,8(%r1)
 303 003c D341     		se_stw %r4,12(%r1)
 304              		.loc 1 36 0
 305 003e C631     		se_lwz %r3,24(%r1)
 306 0040 C741     		se_lwz %r4,28(%r1)
 307 0042 4805     		se_li %r5,0
 308 0044 4806     		se_li %r6,0
 309 0046 78000001 		e_bl __ltdf2
 310 004a 0137     		se_mr %r7,%r3
 311 004c 2A07     		se_cmpi %r7,0
 312 004e 7F800020 		e_mcrf %cr7,%cr0
 313 0052 7CE00026 		mfcr %r7
 314 0056 74E7E007 		e_rlwinm %r7,%r7,28,0xf0000000
 315 005a 7CE80120 		mtcrf 128,%r7
 316 005e 7A000060 		e_bge %cr0,.L18
 317              		.loc 1 37 0
 318 0062 C231     		se_lwz %r3,8(%r1)
 319 0064 C341     		se_lwz %r4,12(%r1)
 320 0066 4805     		se_li %r5,0
 321 0068 4806     		se_li %r6,0
 322 006a 78000001 		e_bl __ltdf2
 323 006e 0137     		se_mr %r7,%r3
 324 0070 2A07     		se_cmpi %r7,0
 325 0072 7F800020 		e_mcrf %cr7,%cr0
 326 0076 7CE00026 		mfcr %r7
 327 007a 74E7E007 		e_rlwinm %r7,%r7,28,0xf0000000
 328 007e 7CE80120 		mtcrf 128,%r7
 329 0082 7A000022 		e_bge %cr0,.L25
 330              		.loc 1 38 0
 331 0086 C231     		se_lwz %r3,8(%r1)
 332 0088 C341     		se_lwz %r4,12(%r1)
 333 008a 70A8E066 		e_lis %r5,0x4066
 334 008e 6505     		se_bseti %r5,16
 335 0090 4806     		se_li %r6,0
 336 0092 78000001 		e_bl __adddf3
 337 0096 0240     		se_mtar %r8,%r4
 338 0098 0137     		se_mr %r7,%r3
 339 009a D271     		se_stw %r7,8(%r1)
 340 009c 5501000C 		e_stw %r8,12(%r1)
 341 00a0 7800001E 		e_b .L18
 342              	.L25:
GAS LISTING C:\Users\cerru\AppData\Local\Temp\ccX7DVb9.s 			page 7


 343              		.loc 1 40 0
 344 00a4 C231     		se_lwz %r3,8(%r1)
 345 00a6 C341     		se_lwz %r4,12(%r1)
 346 00a8 70A8E066 		e_lis %r5,0x4066
 347 00ac 6505     		se_bseti %r5,16
 348 00ae 4806     		se_li %r6,0
 349 00b0 78000001 		e_bl __subdf3
 350 00b4 0240     		se_mtar %r8,%r4
 351 00b6 0137     		se_mr %r7,%r3
 352 00b8 D271     		se_stw %r7,8(%r1)
 353 00ba 5501000C 		e_stw %r8,12(%r1)
 354              	.L18:
 355              		.loc 1 43 0
 356 00be C271     		se_lwz %r7,8(%r1)
 357 00c0 5101000C 		e_lwz %r8,12(%r1)
 358              		.loc 1 44 0
 359 00c4 0173     		se_mr %r3,%r7
 360 00c6 0304     		se_mfar %r4,%r8
 361 00c8 CB01     		se_lwz %r0,44(%r1)
 362 00ca 0090     		se_mtlr %r0
 363 00cc 18218028 		e_addi %r1,%r1,40
 364              	.LCFI9:
 365              		.cfi_def_cfa_offset 0
 366 00d0 0004     		se_blr
 367              		.cfi_endproc
 368              	.LFE4:
 369              		.size	ang_from_x_y, .-ang_from_x_y
 370              		.globl result
 371              		.section	.bss.result,"aw",@nobits
 372              		.align 1
 373              		.type	result, @object
 374              		.size	result, 10
 375              	result:
 376 0000 00000000 		.zero	10
 376      00000000 
 376      0000
 377              		.globl irq_state
 378              		.section	.bss.irq_state,"aw",@nobits
 379              		.type	irq_state, @object
 380              		.size	irq_state, 1
 381              	irq_state:
 382 0000 00       		.zero	1
 383              		.globl Offset
 384              		.section	.data.Offset,"aw",@progbits
 385              		.align 1
 386              		.type	Offset, @object
 387              		.size	Offset, 2
 388              	Offset:
 389 0000 0032     		.short	50
 390              		.section	.text.initialization_sequence,"axv",@progbits
 391              		.align 1
 392              		.p2align 4,,15
 393              		.globl initialization_sequence
 394              		.type	initialization_sequence, @function
 395              	initialization_sequence:
 396              	.LFB7:
 397              		.file 2 "micro_functions.c"
GAS LISTING C:\Users\cerru\AppData\Local\Temp\ccX7DVb9.s 			page 8


 398              		.loc 2 21 0
 399              		.cfi_startproc
 400 0000 182106F8 		e_stwu %r1,-8(%r1)
 401              	.LCFI10:
 402              		.cfi_def_cfa_offset 8
 403 0004 0080     		se_mflr %r0
 404 0006 D301     		se_stw %r0,12(%r1)
 405              		.cfi_offset 65, 4
 406              		.loc 2 24 0
 407 0008 78000001 		e_bl componentsInit
 408              		.loc 2 26 0
 409              	 # 26 "micro_functions.c" 1
 410 000c 7C008146 		wrteei  1
 411              	 # 0 "" 2
 412              		.loc 2 28 0
 413 0010 78000001 		e_bl initializeTOF
 414              		.loc 2 30 0
 415 0014 70E0E000 		e_lis %r7,SD2@ha
 416 0018 1C670000 		e_la %r3,SD2@l(%r7)
 417 001c 70E0E000 		e_lis %r7,serial_config_configuration_name@ha
 418 0020 1C870000 		e_la %r4,serial_config_configuration_name@l(%r7)
 419 0024 78000001 		e_bl sd_lld_start
 420              		.loc 2 32 0
 421 0028 4803     		se_li %r3,0
 422 002a 78000001 		e_bl initMotor
 423              		.loc 2 33 0
 424 002e 4813     		se_li %r3,1
 425 0030 78000001 		e_bl initMotor
 426              		.loc 2 34 0
 427 0034 4803     		se_li %r3,0
 428 0036 78000001 		e_bl init_AEK_MOT_SM81M1
 429              		.loc 2 36 0
 430 003a 70620388 		e_li %r3,5000
 431 003e 78000001 		e_bl osalThreadDelayMilliseconds
 432              		.loc 2 37 0
 433 0042 C301     		se_lwz %r0,12(%r1)
 434 0044 0090     		se_mtlr %r0
 435 0046 2071     		se_addi %r1,8
 436              	.LCFI11:
 437              		.cfi_def_cfa_offset 0
 438 0048 0004     		se_blr
 439              		.cfi_endproc
 440              	.LFE7:
 441              		.size	initialization_sequence, .-initialization_sequence
 442              		.section	.text.read_tof_micro_part,"axv",@progbits
 443              		.align 1
 444              		.p2align 4,,15
 445              		.globl read_tof_micro_part
 446              		.type	read_tof_micro_part, @function
 447              	read_tof_micro_part:
 448              	.LFB8:
 449              		.loc 2 39 0
 450              		.cfi_startproc
 451 0000 182106E8 		e_stwu %r1,-24(%r1)
 452              	.LCFI12:
 453              		.cfi_def_cfa_offset 24
 454 0004 0080     		se_mflr %r0
GAS LISTING C:\Users\cerru\AppData\Local\Temp\ccX7DVb9.s 			page 9


 455 0006 D701     		se_stw %r0,28(%r1)
 456              		.cfi_offset 65, 4
 457              		.loc 2 40 0
 458 0008 78000001 		e_bl osalThreadGetMilliseconds
 459 000c D231     		se_stw %r3,8(%r1)
 460              	.L30:
 461              	.LBB2:
 462              		.loc 2 42 0
 463 000e 70E0E000 		e_lis %r7,AEK_TOF_METHODS@ha
 464 0012 1CE70000 		e_la %r7,AEK_TOF_METHODS@l(%r7)
 465 0016 C277     		se_lwz %r7,8(%r7)
 466 0018 4803     		se_li %r3,0
 467 001a 70C0E000 		e_lis %r6,irq_state@ha
 468 001e 1C860000 		e_la %r4,irq_state@l(%r6)
 469 0022 00B7     		se_mtctr %r7
 470 0024 0007     		se_bctrl
 471              		.loc 2 43 0
 472 0026 78000001 		e_bl osalThreadGetMilliseconds
 473 002a D331     		se_stw %r3,12(%r1)
 474              		.loc 2 44 0
 475 002c 4B27     		se_li %r7,50
 476 002e 6C17     		se_slwi %r7, 1
 477 0030 0176     		se_mr %r6,%r7
 478 0032 C271     		se_lwz %r7,8(%r1)
 479 0034 0476     		se_add %r6,%r7
 480 0036 C371     		se_lwz %r7,12(%r1)
 481 0038 7F863840 		cmpl %cr7,%r6,%r7
 482 003c 7CE00026 		mfcr %r7
 483 0040 74E7E007 		e_rlwinm %r7,%r7,28,0xf0000000
 484 0044 7CE80120 		mtcrf 128,%r7
 485 0048 7A11000C 		e_bgt %cr0,.L28
 486              		.loc 2 45 0
 487 004c 70E007D0 		e_li %r7,2000
 488 0050 7800006A 		e_b .L29
 489              	.L28:
 490              	.LBE2:
 491              		.loc 2 47 0
 492 0054 70E0E000 		e_lis %r7,irq_state@ha
 493 0058 30E70000 		e_lbz %r7,irq_state@l(%r7)
 494 005c 00C7     		se_extzb %r7
 495 005e 2207     		se_cmpli %r7,1
 496 0060 7F800020 		e_mcrf %cr7,%cr0
 497 0064 7CE00026 		mfcr %r7
 498 0068 74E7E007 		e_rlwinm %r7,%r7,28,0xf0000000
 499 006c 7CE80120 		mtcrf 128,%r7
 500 0070 7A02FF9E 		e_bne %cr0,.L30
 501              		.loc 2 48 0
 502 0074 70E0E000 		e_lis %r7,AEK_TOF_METHODS@ha
 503 0078 1CE70000 		e_la %r7,AEK_TOF_METHODS@l(%r7)
 504 007c 50E7007C 		e_lwz %r7,124(%r7)
 505 0080 4803     		se_li %r3,0
 506 0082 70C0E000 		e_lis %r6,result@ha
 507 0086 1C860000 		e_la %r4,result@l(%r6)
 508 008a 00B7     		se_mtctr %r7
 509 008c 0007     		se_bctrl
 510              		.loc 2 49 0
 511 008e 70E0E000 		e_lis %r7,AEK_TOF_METHODS@ha
GAS LISTING C:\Users\cerru\AppData\Local\Temp\ccX7DVb9.s 			page 10


 512 0092 1CE70000 		e_la %r7,AEK_TOF_METHODS@l(%r7)
 513 0096 C177     		se_lwz %r7,4(%r7)
 514 0098 4803     		se_li %r3,0
 515 009a 00B7     		se_mtctr %r7
 516 009c 0007     		se_bctrl
 517              		.loc 2 50 0
 518 009e 70E0E000 		e_lis %r7,AEK_TOF_METHODS@ha
 519 00a2 1CE70000 		e_la %r7,AEK_TOF_METHODS@l(%r7)
 520 00a6 CA77     		se_lwz %r7,40(%r7)
 521 00a8 4803     		se_li %r3,0
 522 00aa 00B7     		se_mtctr %r7
 523 00ac 0007     		se_bctrl
 524              		.loc 2 51 0
 525 00ae 70E0E000 		e_lis %r7,result@ha
 526 00b2 1CE70000 		e_la %r7,result@l(%r7)
 527 00b6 A177     		se_lhz %r7,2(%r7)
 528 00b8 00E7     		se_extzh %r7
 529              	.L29:
 530              		.loc 2 52 0
 531 00ba 0173     		se_mr %r3,%r7
 532 00bc C701     		se_lwz %r0,28(%r1)
 533 00be 0090     		se_mtlr %r0
 534 00c0 2171     		se_addi %r1,24
 535              	.LCFI13:
 536              		.cfi_def_cfa_offset 0
 537 00c2 0004     		se_blr
 538              		.cfi_endproc
 539              	.LFE8:
 540              		.size	read_tof_micro_part, .-read_tof_micro_part
 541              		.section	.text.motor_control_micro_part,"axv",@progbits
 542              		.align 1
 543              		.p2align 4,,15
 544              		.globl motor_control_micro_part
 545              		.type	motor_control_micro_part, @function
 546              	motor_control_micro_part:
 547              	.LFB9:
 548              		.loc 2 54 0
 549              		.cfi_startproc
 550 0000 182106E0 		e_stwu %r1,-32(%r1)
 551              	.LCFI14:
 552              		.cfi_def_cfa_offset 32
 553 0004 0080     		se_mflr %r0
 554 0006 D901     		se_stw %r0,36(%r1)
 555              		.cfi_offset 65, 4
 556 0008 D631     		se_stw %r3,24(%r1)
 557 000a D741     		se_stw %r4,28(%r1)
 558              		.loc 2 57 0
 559 000c C771     		se_lwz %r7,28(%r1)
 560 000e C077     		se_lwz %r7,0(%r7)
 561 0010 9A71     		se_stb %r7,10(%r1)
 562              		.loc 2 58 0
 563 0012 C671     		se_lwz %r7,24(%r1)
 564 0014 C077     		se_lwz %r7,0(%r7)
 565 0016 2227     		se_cmpli %r7,3
 566 0018 7F800020 		e_mcrf %cr7,%cr0
 567 001c 7CC00026 		mfcr %r6
 568 0020 74C6E007 		e_rlwinm %r6,%r6,28,0xf0000000
GAS LISTING C:\Users\cerru\AppData\Local\Temp\ccX7DVb9.s 			page 11


 569 0024 7CC80120 		mtcrf 128,%r6
 570 0028 7A110054 		e_bgt %cr0,.L32
 571 002c 7CE61070 		e_slwi %r6,%r7,2
 572 0030 70E0E000 		e_lis %r7,.L34@ha
 573 0034 1CE70000 		e_la %r7,.L34@l(%r7)
 574 0038 7CE63A14 		add %r7,%r6,%r7
 575 003c C067     		se_lwz %r6,0(%r7)
 576 003e 70E0E000 		e_lis %r7,.L34@ha
 577 0042 1CE70000 		e_la %r7,.L34@l(%r7)
 578 0046 7CE63A14 		add %r7,%r6,%r7
 579 004a 00B7     		se_mtctr %r7
 580 004c 0006     		se_bctr
 581              		.section	.rodata.motor_control_micro_part,"a",@progbits
 582              		.align 2
 583              		.align 2
 584              	.L34:
 585 0000 00000000 		.long .L33-.L34
 586 0004 00000000 		.long .L35-.L34
 587 0008 00000000 		.long .L36-.L34
 588 000c 00000000 		.long .L37-.L34
 589              		.section	.text.motor_control_micro_part
 590              	.L33:
 591              		.loc 2 60 0
 592 004e 4807     		se_li %r7,0
 593 0050 9871     		se_stb %r7,8(%r1)
 594              		.loc 2 61 0
 595 0052 4817     		se_li %r7,1
 596 0054 9971     		se_stb %r7,9(%r1)
 597              		.loc 2 62 0
 598 0056 78000026 		e_b .L32
 599              	.L35:
 600              		.loc 2 64 0
 601 005a 4817     		se_li %r7,1
 602 005c 9871     		se_stb %r7,8(%r1)
 603              		.loc 2 65 0
 604 005e 4807     		se_li %r7,0
 605 0060 9971     		se_stb %r7,9(%r1)
 606              		.loc 2 66 0
 607 0062 7800001A 		e_b .L32
 608              	.L36:
 609              		.loc 2 68 0
 610 0066 4807     		se_li %r7,0
 611 0068 9871     		se_stb %r7,8(%r1)
 612              		.loc 2 69 0
 613 006a 4807     		se_li %r7,0
 614 006c 9971     		se_stb %r7,9(%r1)
 615              		.loc 2 70 0
 616 006e 7800000E 		e_b .L32
 617              	.L37:
 618              		.loc 2 72 0
 619 0072 4817     		se_li %r7,1
 620 0074 9871     		se_stb %r7,8(%r1)
 621              		.loc 2 73 0
 622 0076 4817     		se_li %r7,1
 623 0078 9971     		se_stb %r7,9(%r1)
 624              		.loc 2 74 0
 625 007a 4400     		se_nop
GAS LISTING C:\Users\cerru\AppData\Local\Temp\ccX7DVb9.s 			page 12


 626              	.L32:
 627              		.loc 2 76 0
 628 007c 8871     		se_lbz %r7,8(%r1)
 629 007e 74E6063F 		e_rlwinm %r6,%r7,0,0xff
 630 0082 8A71     		se_lbz %r7,10(%r1)
 631 0084 00C7     		se_extzb %r7
 632 0086 4803     		se_li %r3,0
 633 0088 0164     		se_mr %r4,%r6
 634 008a 0175     		se_mr %r5,%r7
 635 008c 78000001 		e_bl setSpeedMotor
 636              		.loc 2 77 0
 637 0090 8971     		se_lbz %r7,9(%r1)
 638 0092 74E6063F 		e_rlwinm %r6,%r7,0,0xff
 639 0096 8A71     		se_lbz %r7,10(%r1)
 640 0098 00C7     		se_extzb %r7
 641 009a 4813     		se_li %r3,1
 642 009c 0164     		se_mr %r4,%r6
 643 009e 0175     		se_mr %r5,%r7
 644 00a0 78000001 		e_bl setSpeedMotor
 645              		.loc 2 78 0
 646 00a4 C901     		se_lwz %r0,36(%r1)
 647 00a6 0090     		se_mtlr %r0
 648 00a8 21F1     		se_addi %r1,32
 649              	.LCFI15:
 650              		.cfi_def_cfa_offset 0
 651 00aa 0004     		se_blr
 652              		.cfi_endproc
 653              	.LFE9:
 654              		.size	motor_control_micro_part, .-motor_control_micro_part
 655              		.section	.text.stop_motor_micro_part,"axv",@progbits
 656              		.align 1
 657              		.p2align 4,,15
 658              		.globl stop_motor_micro_part
 659              		.type	stop_motor_micro_part, @function
 660              	stop_motor_micro_part:
 661              	.LFB10:
 662              		.loc 2 80 0
 663              		.cfi_startproc
 664 0000 182106F8 		e_stwu %r1,-8(%r1)
 665              	.LCFI16:
 666              		.cfi_def_cfa_offset 8
 667 0004 0080     		se_mflr %r0
 668 0006 D301     		se_stw %r0,12(%r1)
 669              		.cfi_offset 65, 4
 670              		.loc 2 81 0
 671 0008 4803     		se_li %r3,0
 672 000a 78000001 		e_bl brakeMotor
 673              		.loc 2 82 0
 674 000e 4813     		se_li %r3,1
 675 0010 78000001 		e_bl brakeMotor
 676              		.loc 2 83 0
 677 0014 C301     		se_lwz %r0,12(%r1)
 678 0016 0090     		se_mtlr %r0
 679 0018 2071     		se_addi %r1,8
 680              	.LCFI17:
 681              		.cfi_def_cfa_offset 0
 682 001a 0004     		se_blr
GAS LISTING C:\Users\cerru\AppData\Local\Temp\ccX7DVb9.s 			page 13


 683              		.cfi_endproc
 684              	.LFE10:
 685              		.size	stop_motor_micro_part, .-stop_motor_micro_part
 686              		.section	.text.initializeTOF,"axv",@progbits
 687              		.align 1
 688              		.p2align 4,,15
 689              		.globl initializeTOF
 690              		.type	initializeTOF, @function
 691              	initializeTOF:
 692              	.LFB11:
 693              		.loc 2 88 0
 694              		.cfi_startproc
 695 0000 182106F8 		e_stwu %r1,-8(%r1)
 696              	.LCFI18:
 697              		.cfi_def_cfa_offset 8
 698 0004 0080     		se_mflr %r0
 699 0006 D301     		se_stw %r0,12(%r1)
 700              		.cfi_offset 65, 4
 701              		.loc 2 90 0
 702 0008 78000001 		e_bl AEK_TOF_CONFIG
 703              		.loc 2 92 0
 704 000c 70E0E000 		e_lis %r7,AEK_TOF_METHODS@ha
 705 0010 1CE70000 		e_la %r7,AEK_TOF_METHODS@l(%r7)
 706 0014 C977     		se_lwz %r7,36(%r7)
 707 0016 4803     		se_li %r3,0
 708 0018 00B7     		se_mtctr %r7
 709 001a 0007     		se_bctrl
 710              		.loc 2 94 0
 711 001c 70E0E000 		e_lis %r7,AEK_TOF_METHODS@ha
 712 0020 1CE70000 		e_la %r7,AEK_TOF_METHODS@l(%r7)
 713 0024 50E70048 		e_lwz %r7,72(%r7)
 714 0028 4803     		se_li %r3,0
 715 002a 4814     		se_li %r4,1
 716 002c 00B7     		se_mtctr %r7
 717 002e 0007     		se_bctrl
 718              		.loc 2 96 0
 719 0030 70E0E000 		e_lis %r7,AEK_TOF_METHODS@ha
 720 0034 1CE70000 		e_la %r7,AEK_TOF_METHODS@l(%r7)
 721 0038 50E70040 		e_lwz %r7,64(%r7)
 722 003c 4B26     		se_li %r6,50
 723 003e 4803     		se_li %r3,0
 724 0040 0164     		se_mr %r4,%r6
 725 0042 00B7     		se_mtctr %r7
 726 0044 0007     		se_bctrl
 727              		.loc 2 98 0
 728 0046 70E0E000 		e_lis %r7,AEK_TOF_METHODS@ha
 729 004a 1CE70000 		e_la %r7,AEK_TOF_METHODS@l(%r7)
 730 004e 50E70050 		e_lwz %r7,80(%r7)
 731 0052 4B26     		se_li %r6,50
 732 0054 4803     		se_li %r3,0
 733 0056 0164     		se_mr %r4,%r6
 734 0058 00B7     		se_mtctr %r7
 735 005a 0007     		se_bctrl
 736              		.loc 2 100 0
 737 005c 70E0E000 		e_lis %r7,AEK_TOF_METHODS@ha
 738 0060 1CE70000 		e_la %r7,AEK_TOF_METHODS@l(%r7)
 739 0064 50E700A0 		e_lwz %r7,160(%r7)
GAS LISTING C:\Users\cerru\AppData\Local\Temp\ccX7DVb9.s 			page 14


 740 0068 4803     		se_li %r3,0
 741 006a 4844     		se_li %r4,4
 742 006c 4845     		se_li %r5,4
 743 006e 00B7     		se_mtctr %r7
 744 0070 0007     		se_bctrl
 745              		.loc 2 108 0
 746 0072 70E0E000 		e_lis %r7,AEK_TOF_METHODS@ha
 747 0076 1CE70000 		e_la %r7,AEK_TOF_METHODS@l(%r7)
 748 007a 50070090 		e_lwz %r0,144(%r7)
 749 007e 70E00514 		e_li %r7,1300
 750 0082 00E7     		se_extzh %r7
 751 0084 4803     		se_li %r3,0
 752 0086 4804     		se_li %r4,0
 753 0088 0175     		se_mr %r5,%r7
 754 008a 4836     		se_li %r6,3
 755 008c 4807     		se_li %r7,0
 756 008e 00B0     		se_mtctr %r0
 757 0090 0007     		se_bctrl
 758              		.loc 2 110 0
 759 0092 70E0E000 		e_lis %r7,AEK_TOF_METHODS@ha
 760 0096 1CE70000 		e_la %r7,AEK_TOF_METHODS@l(%r7)
 761 009a 50E70080 		e_lwz %r7,128(%r7)
 762 009e 70C0E000 		e_lis %r6,Offset@ha
 763 00a2 58C60000 		e_lhz %r6,Offset@l(%r6)
 764 00a6 00F6     		se_extsh %r6
 765 00a8 4803     		se_li %r3,0
 766 00aa 0164     		se_mr %r4,%r6
 767 00ac 00B7     		se_mtctr %r7
 768 00ae 0007     		se_bctrl
 769              		.loc 2 112 0
 770 00b0 70E0E000 		e_lis %r7,AEK_TOF_METHODS@ha
 771 00b4 1CE70000 		e_la %r7,AEK_TOF_METHODS@l(%r7)
 772 00b8 CD77     		se_lwz %r7,52(%r7)
 773 00ba 4803     		se_li %r3,0
 774 00bc 00B7     		se_mtctr %r7
 775 00be 0007     		se_bctrl
 776              		.loc 2 113 0
 777 00c0 C301     		se_lwz %r0,12(%r1)
 778 00c2 0090     		se_mtlr %r0
 779 00c4 2071     		se_addi %r1,8
 780              	.LCFI19:
 781              		.cfi_def_cfa_offset 0
 782 00c6 0004     		se_blr
 783              		.cfi_endproc
 784              	.LFE11:
 785              		.size	initializeTOF, .-initializeTOF
 786              		.section	.text.stringLen,"axv",@progbits
 787              		.align 1
 788              		.p2align 4,,15
 789              		.globl stringLen
 790              		.type	stringLen, @function
 791              	stringLen:
 792              	.LFB12:
 793              		.loc 2 122 0
 794              		.cfi_startproc
 795 0000 182106E0 		e_stwu %r1,-32(%r1)
 796              	.LCFI20:
GAS LISTING C:\Users\cerru\AppData\Local\Temp\ccX7DVb9.s 			page 15


 797              		.cfi_def_cfa_offset 32
 798 0004 D631     		se_stw %r3,24(%r1)
 799              		.loc 2 124 0
 800 0006 4807     		se_li %r7,0
 801 0008 D271     		se_stw %r7,8(%r1)
 802              		.loc 2 125 0
 803 000a 7800000A 		e_b .L41
 804              	.L42:
 805              		.loc 2 126 0
 806 000e C271     		se_lwz %r7,8(%r1)
 807 0010 2007     		se_addi %r7,1
 808 0012 D271     		se_stw %r7,8(%r1)
 809              	.L41:
 810              		.loc 2 125 0
 811 0014 C271     		se_lwz %r7,8(%r1)
 812 0016 C661     		se_lwz %r6,24(%r1)
 813 0018 7CE63A14 		add %r7,%r6,%r7
 814 001c 8077     		se_lbz %r7,0(%r7)
 815 001e 00C7     		se_extzb %r7
 816 0020 2A07     		se_cmpi %r7,0
 817 0022 7F800020 		e_mcrf %cr7,%cr0
 818 0026 7CE00026 		mfcr %r7
 819 002a 74E7E007 		e_rlwinm %r7,%r7,28,0xf0000000
 820 002e 7CE80120 		mtcrf 128,%r7
 821 0032 7A02FFDC 		e_bne %cr0,.L42
 822              		.loc 2 128 0
 823 0036 C271     		se_lwz %r7,8(%r1)
 824              		.loc 2 129 0
 825 0038 0173     		se_mr %r3,%r7
 826 003a 21F1     		se_addi %r1,32
 827              	.LCFI21:
 828              		.cfi_def_cfa_offset 0
 829 003c 0004     		se_blr
 830              		.cfi_endproc
 831              	.LFE12:
 832              		.size	stringLen, .-stringLen
 833              		.section	.text.sendMessage,"axv",@progbits
 834              		.align 1
 835              		.p2align 4,,15
 836              		.globl sendMessage
 837              		.type	sendMessage, @function
 838              	sendMessage:
 839              	.LFB13:
 840              		.loc 2 138 0
 841              		.cfi_startproc
 842 0000 182106F0 		e_stwu %r1,-16(%r1)
 843              	.LCFI22:
 844              		.cfi_def_cfa_offset 16
 845 0004 0080     		se_mflr %r0
 846 0006 D501     		se_stw %r0,20(%r1)
 847              		.cfi_offset 65, 4
 848 0008 D231     		se_stw %r3,8(%r1)
 849              		.loc 2 140 0
 850 000a C231     		se_lwz %r3,8(%r1)
 851 000c 78000001 		e_bl stringLen
 852 0010 0137     		se_mr %r7,%r3
 853 0012 74E6043F 		e_rlwinm %r6,%r7,0,0xffff
GAS LISTING C:\Users\cerru\AppData\Local\Temp\ccX7DVb9.s 			page 16


 854 0016 70E0E000 		e_lis %r7,SD2@ha
 855 001a 1C670000 		e_la %r3,SD2@l(%r7)
 856 001e C241     		se_lwz %r4,8(%r1)
 857 0020 0165     		se_mr %r5,%r6
 858 0022 78000001 		e_bl sd_lld_write
 859              		.loc 2 141 0
 860 0026 C501     		se_lwz %r0,20(%r1)
 861 0028 0090     		se_mtlr %r0
 862 002a 20F1     		se_addi %r1,16
 863              	.LCFI23:
 864              		.cfi_def_cfa_offset 0
 865 002c 0004     		se_blr
 866              		.cfi_endproc
 867              	.LFE13:
 868              		.size	sendMessage, .-sendMessage
 869              		.section	.text.sbrk,"axv",@progbits
 870              		.align 1
 871              		.p2align 4,,15
 872              		.globl sbrk
 873              		.type	sbrk, @function
 874              	sbrk:
 875              	.LFB14:
 876              		.loc 2 146 0
 877              		.cfi_startproc
 878 0000 182106F0 		e_stwu %r1,-16(%r1)
 879              	.LCFI24:
 880              		.cfi_def_cfa_offset 16
 881 0004 D231     		se_stw %r3,8(%r1)
 882              		.loc 2 155 0
 883 0006 70E0E000 		e_lis %r7,p.17808@ha
 884 000a 50C70000 		e_lwz %r6,p.17808@l(%r7)
 885 000e C271     		se_lwz %r7,8(%r1)
 886 0010 0476     		se_add %r6,%r7
 887 0012 70E0E000 		e_lis %r7,newp.17809@ha
 888 0016 54C70000 		e_stw %r6,newp.17809@l(%r7)
 889              		.loc 2 156 0
 890 001a 70E0E000 		e_lis %r7,newp.17809@ha
 891 001e 50C70000 		e_lwz %r6,newp.17809@l(%r7)
 892 0022 70E0E000 		e_lis %r7,__heap_end__@ha
 893 0026 1CE70000 		e_la %r7,__heap_end__@l(%r7)
 894 002a 7F863840 		cmpl %cr7,%r6,%r7
 895 002e 7CE00026 		mfcr %r7
 896 0032 74E7E007 		e_rlwinm %r7,%r7,28,0xf0000000
 897 0036 7CE80120 		mtcrf 128,%r7
 898 003a 7A01000A 		e_ble %cr0,.L46
 899              		.loc 2 157 0
 900 003e 2C07     		se_bmaski %r7,0
 901 0040 7800001C 		e_b .L47
 902              	.L46:
 903              		.loc 2 159 0
 904 0044 70E0E000 		e_lis %r7,newp.17809@ha
 905 0048 50C70000 		e_lwz %r6,newp.17809@l(%r7)
 906 004c 70E0E000 		e_lis %r7,p.17808@ha
 907 0050 54C70000 		e_stw %r6,p.17808@l(%r7)
 908 0054 70E0E000 		e_lis %r7,p.17808@ha
 909 0058 50E70000 		e_lwz %r7,p.17808@l(%r7)
 910              	.L47:
GAS LISTING C:\Users\cerru\AppData\Local\Temp\ccX7DVb9.s 			page 17


 911              		.loc 2 160 0
 912 005c 0173     		se_mr %r3,%r7
 913 005e 20F1     		se_addi %r1,16
 914              	.LCFI25:
 915              		.cfi_def_cfa_offset 0
 916 0060 0004     		se_blr
 917              		.cfi_endproc
 918              	.LFE14:
 919              		.size	sbrk, .-sbrk
 920              		.globl time_to_full_power
 921              		.section	.rodata.time_to_full_power,"a",@progbits
 922              		.align 2
 923              		.type	time_to_full_power, @object
 924              		.size	time_to_full_power, 4
 925              	time_to_full_power:
 926 0000 000000C8 		.long	200
 927              		.globl car_half_length
 928              		.section	.rodata.car_half_length,"a",@progbits
 929              		.align 2
 930              		.type	car_half_length, @object
 931              		.size	car_half_length, 4
 932              	car_half_length:
 933 0000 000000F0 		.long	240
 934              		.globl car_half_width
 935              		.section	.rodata.car_half_width,"a",@progbits
 936              		.align 2
 937              		.type	car_half_width, @object
 938              		.size	car_half_width, 4
 939              	car_half_width:
 940 0000 00000096 		.long	150
 941              		.globl car_half_diagonal
 942              		.section	.rodata.car_half_diagonal,"a",@progbits
 943              		.align 2
 944              		.type	car_half_diagonal, @object
 945              		.size	car_half_diagonal, 4
 946              	car_half_diagonal:
 947 0000 0000011B 		.long	283
 948              		.globl space_needed_to_turn
 949              		.section	.rodata.space_needed_to_turn,"a",@progbits
 950              		.align 2
 951              		.type	space_needed_to_turn, @object
 952              		.size	space_needed_to_turn, 4
 953              	space_needed_to_turn:
 954 0000 0000015E 		.long	350
 955              		.globl timingBudget
 956              		.section	.rodata.timingBudget,"a",@progbits
 957              		.align 1
 958              		.type	timingBudget, @object
 959              		.size	timingBudget, 2
 960              	timingBudget:
 961 0000 0032     		.short	50
 962              		.globl range_TOF
 963              		.section	.rodata.range_TOF,"a",@progbits
 964              		.align 2
 965              		.type	range_TOF, @object
 966              		.size	range_TOF, 4
 967              	range_TOF:
GAS LISTING C:\Users\cerru\AppData\Local\Temp\ccX7DVb9.s 			page 18


 968 0000 00000514 		.long	1300
 969              		.globl m
 970              		.section	.rodata.m,"a",@progbits
 971              		.align 2
 972              		.type	m, @object
 973              		.size	m, 20
 974              	m:
 975 0000 0000002D 		.long	45
 976 0004 0000001E 		.long	30
 977 0008 00000014 		.long	20
 978 000c 0000000F 		.long	15
 979 0010 0000000A 		.long	10
 980              		.globl debug_print
 981              		.section	.rodata.debug_print,"a",@progbits
 982              		.align 2
 983              		.type	debug_print, @object
 984              		.size	debug_print, 4
 985              	debug_print:
 986 0000 00000000 		.zero	4
 987              		.globl actual
 988              		.section	.bss.actual,"aw",@nobits
 989              		.align 3
 990              		.type	actual, @object
 991              		.size	actual, 24
 992              	actual:
 993 0000 00000000 		.zero	24
 993      00000000 
 993      00000000 
 993      00000000 
 993      00000000 
 994              		.globl frontal
 995              		.section	.data.frontal,"aw",@progbits
 996              		.align 3
 997              		.type	frontal, @object
 998              		.size	frontal, 24
 999              	frontal:
 1000 0000 3FCF7CED 		.long	1070562541
 1001 0004 916872B0 		.long	-1855425872
 1002 0008 408F4000 		.long	1083129856
 1003 000c 00000000 		.long	0
 1004 0010 40678000 		.long	1080524800
 1005 0014 00000000 		.long	0
 1006              		.globl angular
 1007              		.section	.data.angular,"aw",@progbits
 1008              		.align 3
 1009              		.type	angular, @object
 1010              		.size	angular, 24
 1011              	angular:
 1012 0000 3FA30BE0 		.long	1067650016
 1013 0004 DED288CE 		.long	-556627762
 1014 0008 408F4000 		.long	1083129856
 1015 000c 00000000 		.long	0
 1016 0010 40360000 		.long	1077280768
 1017 0014 00000000 		.long	0
 1018              		.globl vicoli_cechi
 1019              		.section	.bss.vicoli_cechi,"aw",@nobits
 1020              		.align 3
GAS LISTING C:\Users\cerru\AppData\Local\Temp\ccX7DVb9.s 			page 19


 1021              		.type	vicoli_cechi, @object
 1022              		.size	vicoli_cechi, 2400
 1023              	vicoli_cechi:
 1024 0000 00000000 		.zero	2400
 1024      00000000 
 1024      00000000 
 1024      00000000 
 1024      00000000 
 1025              		.globl precedent_position
 1026              		.section	.bss.precedent_position,"aw",@nobits
 1027              		.align 3
 1028              		.type	precedent_position, @object
 1029              		.size	precedent_position, 24
 1030              	precedent_position:
 1031 0000 00000000 		.zero	24
 1031      00000000 
 1031      00000000 
 1031      00000000 
 1031      00000000 
 1032              		.globl first_obstacle
 1033              		.section	.bss.first_obstacle,"aw",@nobits
 1034              		.align 3
 1035              		.type	first_obstacle, @object
 1036              		.size	first_obstacle, 32
 1037              	first_obstacle:
 1038 0000 00000000 		.zero	32
 1038      00000000 
 1038      00000000 
 1038      00000000 
 1038      00000000 
 1039              		.globl precedent_obstacle
 1040              		.section	.bss.precedent_obstacle,"aw",@nobits
 1041              		.align 3
 1042              		.type	precedent_obstacle, @object
 1043              		.size	precedent_obstacle, 32
 1044              	precedent_obstacle:
 1045 0000 00000000 		.zero	32
 1045      00000000 
 1045      00000000 
 1045      00000000 
 1045      00000000 
 1046              		.globl last_obstacle
 1047              		.section	.bss.last_obstacle,"aw",@nobits
 1048              		.align 3
 1049              		.type	last_obstacle, @object
 1050              		.size	last_obstacle, 32
 1051              	last_obstacle:
 1052 0000 00000000 		.zero	32
 1052      00000000 
 1052      00000000 
 1052      00000000 
 1052      00000000 
 1053              		.globl passaggi
 1054              		.section	.bss.passaggi,"aw",@nobits
 1055              		.align 2
 1056              		.type	passaggi, @object
 1057              		.size	passaggi, 80
GAS LISTING C:\Users\cerru\AppData\Local\Temp\ccX7DVb9.s 			page 20


 1058              	passaggi:
 1059 0000 00000000 		.zero	80
 1059      00000000 
 1059      00000000 
 1059      00000000 
 1059      00000000 
 1060              		.globl num_v_c
 1061              		.section	.bss.num_v_c,"aw",@nobits
 1062              		.align 2
 1063              		.type	num_v_c, @object
 1064              		.size	num_v_c, 4
 1065              	num_v_c:
 1066 0000 00000000 		.zero	4
 1067              		.globl rotazione_inversa
 1068              		.section	.bss.rotazione_inversa,"aw",@nobits
 1069              		.align 2
 1070              		.type	rotazione_inversa, @object
 1071              		.size	rotazione_inversa, 4
 1072              	rotazione_inversa:
 1073 0000 00000000 		.zero	4
 1074              		.globl __eabi
 1075              		.section	.text.main,"axv",@progbits
 1076              		.align 1
 1077              		.p2align 4,,15
 1078              		.globl main
 1079              		.type	main, @function
 1080              	main:
 1081              	.LFB15:
 1082              		.file 3 "main.c"
 1083              		.loc 3 44 0
 1084              		.cfi_startproc
 1085 0000 182106F8 		e_stwu %r1,-8(%r1)
 1086              	.LCFI26:
 1087              		.cfi_def_cfa_offset 8
 1088 0004 0080     		se_mflr %r0
 1089 0006 D301     		se_stw %r0,12(%r1)
 1090              		.cfi_offset 65, 4
 1091              		.loc 3 44 0
 1092 0008 78000001 		e_bl __eabi
 1093              		.loc 3 45 0
 1094 000c 78000001 		e_bl initialization_sequence
 1095              		.loc 3 48 0
 1096 0010 78000001 		e_bl complete_calibrate
 1097              		.loc 3 51 0
 1098 0014 4813     		se_li %r3,1
 1099 0016 78000001 		e_bl movement_control
 1100              		.cfi_endproc
 1101              	.LFE15:
 1102              		.size	main, .-main
 1103              		.section	.text.complete_calibrate,"axv",@progbits
 1104              		.align 1
 1105              		.p2align 4,,15
 1106              		.globl complete_calibrate
 1107              		.type	complete_calibrate, @function
 1108              	complete_calibrate:
 1109              	.LFB16:
 1110              		.loc 3 54 0
GAS LISTING C:\Users\cerru\AppData\Local\Temp\ccX7DVb9.s 			page 21


 1111              		.cfi_startproc
 1112 0000 182106F8 		e_stwu %r1,-8(%r1)
 1113              	.LCFI27:
 1114              		.cfi_def_cfa_offset 8
 1115 0004 0080     		se_mflr %r0
 1116 0006 D301     		se_stw %r0,12(%r1)
 1117              		.cfi_offset 65, 4
 1118              		.loc 3 55 0
 1119 0008 7060012C 		e_li %r3,300
 1120 000c 4834     		se_li %r4,3
 1121 000e 78000001 		e_bl move
 1122              		.loc 3 58 0
 1123 0012 706003E8 		e_li %r3,1000
 1124 0016 4814     		se_li %r4,1
 1125 0018 4815     		se_li %r5,1
 1126 001a 78000001 		e_bl calibrate_velocity
 1127              		.loc 3 61 0
 1128 001e 706003E8 		e_li %r3,1000
 1129 0022 4814     		se_li %r4,1
 1130 0024 4805     		se_li %r5,0
 1131 0026 78000001 		e_bl calibrate_velocity
 1132              		.loc 3 64 0
 1133 002a 4DA3     		se_li %r3,90
 1134 002c 4814     		se_li %r4,1
 1135 002e 78000001 		e_bl move
 1136              		.loc 3 65 0
 1137 0032 4DA3     		se_li %r3,90
 1138 0034 4804     		se_li %r4,0
 1139 0036 78000001 		e_bl move
 1140              		.loc 3 66 0
 1141 003a 706000B4 		e_li %r3,180
 1142 003e 4814     		se_li %r4,1
 1143 0040 78000001 		e_bl move
 1144              		.loc 3 67 0
 1145 0044 706000B4 		e_li %r3,180
 1146 0048 4804     		se_li %r4,0
 1147 004a 78000001 		e_bl move
 1148              		.loc 3 70 0
 1149 004e 4DA3     		se_li %r3,90
 1150 0050 4804     		se_li %r4,0
 1151 0052 78000001 		e_bl move
 1152              		.loc 3 73 0
 1153 0056 78000001 		e_bl reset_car_position
 1154              		.loc 3 74 0
 1155 005a C301     		se_lwz %r0,12(%r1)
 1156 005c 0090     		se_mtlr %r0
 1157 005e 2071     		se_addi %r1,8
 1158              	.LCFI28:
 1159              		.cfi_def_cfa_offset 0
 1160 0060 0004     		se_blr
 1161              		.cfi_endproc
 1162              	.LFE16:
 1163              		.size	complete_calibrate, .-complete_calibrate
 1164              		.section	.text.opposite,"axv",@progbits
 1165              		.align 1
 1166              		.p2align 4,,15
 1167              		.globl opposite
GAS LISTING C:\Users\cerru\AppData\Local\Temp\ccX7DVb9.s 			page 22


 1168              		.type	opposite, @function
 1169              	opposite:
 1170              	.LFB17:
 1171              		.loc 3 81 0
 1172              		.cfi_startproc
 1173 0000 182106F0 		e_stwu %r1,-16(%r1)
 1174              	.LCFI29:
 1175              		.cfi_def_cfa_offset 16
 1176 0004 D231     		se_stw %r3,8(%r1)
 1177              		.loc 3 82 0
 1178 0006 C271     		se_lwz %r7,8(%r1)
 1179 0008 2227     		se_cmpli %r7,3
 1180 000a 7F800020 		e_mcrf %cr7,%cr0
 1181 000e 7CE00026 		mfcr %r7
 1182 0012 74E7E007 		e_rlwinm %r7,%r7,28,0xf0000000
 1183 0016 7CE80120 		mtcrf 128,%r7
 1184 001a 7A110046 		e_bgt %cr0,.L51
 1185 001e C271     		se_lwz %r7,8(%r1)
 1186 0020 7CE61070 		e_slwi %r6,%r7,2
 1187 0024 70E0E000 		e_lis %r7,.L53@ha
 1188 0028 1CE70000 		e_la %r7,.L53@l(%r7)
 1189 002c 7CE63A14 		add %r7,%r6,%r7
 1190 0030 C067     		se_lwz %r6,0(%r7)
 1191 0032 70E0E000 		e_lis %r7,.L53@ha
 1192 0036 1CE70000 		e_la %r7,.L53@l(%r7)
 1193 003a 7CE63A14 		add %r7,%r6,%r7
 1194 003e 00B7     		se_mtctr %r7
 1195 0040 0006     		se_bctr
 1196              		.section	.rodata.opposite,"a",@progbits
 1197              		.align 2
 1198              		.align 2
 1199              	.L53:
 1200 0000 00000000 		.long .L52-.L53
 1201 0004 00000000 		.long .L54-.L53
 1202 0008 00000000 		.long .L55-.L53
 1203 000c 00000000 		.long .L56-.L53
 1204              		.section	.text.opposite
 1205              	.L52:
 1206              		.loc 3 84 0
 1207 0042 4817     		se_li %r7,1
 1208 0044 D271     		se_stw %r7,8(%r1)
 1209              		.loc 3 85 0
 1210 0046 7800001A 		e_b .L51
 1211              	.L54:
 1212              		.loc 3 87 0
 1213 004a 4807     		se_li %r7,0
 1214 004c D271     		se_stw %r7,8(%r1)
 1215              		.loc 3 88 0
 1216 004e 78000012 		e_b .L51
 1217              	.L55:
 1218              		.loc 3 90 0
 1219 0052 4837     		se_li %r7,3
 1220 0054 D271     		se_stw %r7,8(%r1)
 1221              		.loc 3 91 0
 1222 0056 7800000A 		e_b .L51
 1223              	.L56:
 1224              		.loc 3 93 0
GAS LISTING C:\Users\cerru\AppData\Local\Temp\ccX7DVb9.s 			page 23


 1225 005a 4827     		se_li %r7,2
 1226 005c D271     		se_stw %r7,8(%r1)
 1227              		.loc 3 94 0
 1228 005e 4400     		se_nop
 1229              	.L51:
 1230              		.loc 3 96 0
 1231 0060 C271     		se_lwz %r7,8(%r1)
 1232              		.loc 3 97 0
 1233 0062 0173     		se_mr %r3,%r7
 1234 0064 20F1     		se_addi %r1,16
 1235              	.LCFI30:
 1236              		.cfi_def_cfa_offset 0
 1237 0066 0004     		se_blr
 1238              		.cfi_endproc
 1239              	.LFE17:
 1240              		.size	opposite, .-opposite
 1241              		.section	.text.read_approximated_tof,"axv",@progbits
 1242              		.align 1
 1243              		.p2align 4,,15
 1244              		.globl read_approximated_tof
 1245              		.type	read_approximated_tof, @function
 1246              	read_approximated_tof:
 1247              	.LFB18:
 1248              		.loc 3 104 0
 1249              		.cfi_startproc
 1250 0000 182106E0 		e_stwu %r1,-32(%r1)
 1251              	.LCFI31:
 1252              		.cfi_def_cfa_offset 32
 1253 0004 0080     		se_mflr %r0
 1254 0006 D901     		se_stw %r0,36(%r1)
 1255              		.cfi_offset 65, 4
 1256 0008 D631     		se_stw %r3,24(%r1)
 1257              		.loc 3 105 0
 1258 000a 4807     		se_li %r7,0
 1259 000c D271     		se_stw %r7,8(%r1)
 1260              	.LBB3:
 1261              		.loc 3 106 0
 1262 000e 4807     		se_li %r7,0
 1263 0010 D371     		se_stw %r7,12(%r1)
 1264 0012 7800001A 		e_b .L59
 1265              	.L60:
 1266              	.LBB4:
 1267              		.loc 3 107 0 discriminator 3
 1268 0016 78000001 		e_bl read_tof
 1269 001a D431     		se_stw %r3,16(%r1)
 1270              		.loc 3 108 0 discriminator 3
 1271 001c C261     		se_lwz %r6,8(%r1)
 1272 001e C471     		se_lwz %r7,16(%r1)
 1273 0020 7CE63A14 		add %r7,%r6,%r7
 1274 0024 D271     		se_stw %r7,8(%r1)
 1275              	.LBE4:
 1276              		.loc 3 106 0 discriminator 3
 1277 0026 C371     		se_lwz %r7,12(%r1)
 1278 0028 2007     		se_addi %r7,1
 1279 002a D371     		se_stw %r7,12(%r1)
 1280              	.L59:
 1281              		.loc 3 106 0 is_stmt 0 discriminator 1
GAS LISTING C:\Users\cerru\AppData\Local\Temp\ccX7DVb9.s 			page 24


 1282 002c C361     		se_lwz %r6,12(%r1)
 1283 002e C671     		se_lwz %r7,24(%r1)
 1284 0030 7F863800 		cmp %cr7,%r6,%r7
 1285 0034 7CE00026 		mfcr %r7
 1286 0038 74E7E007 		e_rlwinm %r7,%r7,28,0xf0000000
 1287 003c 7CE80120 		mtcrf 128,%r7
 1288 0040 7A10FFD6 		e_blt %cr0,.L60
 1289              	.LBE3:
 1290              		.loc 3 110 0 is_stmt 1
 1291 0044 C261     		se_lwz %r6,8(%r1)
 1292 0046 C671     		se_lwz %r7,24(%r1)
 1293 0048 7CE63BD6 		divw %r7,%r6,%r7
 1294              		.loc 3 111 0
 1295 004c 0173     		se_mr %r3,%r7
 1296 004e C901     		se_lwz %r0,36(%r1)
 1297 0050 0090     		se_mtlr %r0
 1298 0052 21F1     		se_addi %r1,32
 1299              	.LCFI32:
 1300              		.cfi_def_cfa_offset 0
 1301 0054 0004     		se_blr
 1302              		.cfi_endproc
 1303              	.LFE18:
 1304              		.size	read_approximated_tof, .-read_approximated_tof
 1305              		.section	.text.read_tof,"axv",@progbits
 1306              		.align 1
 1307              		.p2align 4,,15
 1308              		.globl read_tof
 1309              		.type	read_tof, @function
 1310              	read_tof:
 1311              	.LFB19:
 1312              		.loc 3 117 0
 1313              		.cfi_startproc
 1314 0000 182106F8 		e_stwu %r1,-8(%r1)
 1315              	.LCFI33:
 1316              		.cfi_def_cfa_offset 8
 1317 0004 0080     		se_mflr %r0
 1318 0006 D301     		se_stw %r0,12(%r1)
 1319              		.cfi_offset 65, 4
 1320              		.loc 3 118 0
 1321 0008 78000001 		e_bl read_tof_micro_part
 1322 000c 0137     		se_mr %r7,%r3
 1323              		.loc 3 119 0
 1324 000e 0173     		se_mr %r3,%r7
 1325 0010 C301     		se_lwz %r0,12(%r1)
 1326 0012 0090     		se_mtlr %r0
 1327 0014 2071     		se_addi %r1,8
 1328              	.LCFI34:
 1329              		.cfi_def_cfa_offset 0
 1330 0016 0004     		se_blr
 1331              		.cfi_endproc
 1332              	.LFE19:
 1333              		.size	read_tof, .-read_tof
 1334              		.section	.text.selectionSort,"axv",@progbits
 1335              		.align 1
 1336              		.p2align 4,,15
 1337              		.globl selectionSort
 1338              		.type	selectionSort, @function
GAS LISTING C:\Users\cerru\AppData\Local\Temp\ccX7DVb9.s 			page 25


 1339              	selectionSort:
 1340              	.LFB20:
 1341              		.loc 3 126 0
 1342              		.cfi_startproc
 1343 0000 182106E0 		e_stwu %r1,-32(%r1)
 1344              	.LCFI35:
 1345              		.cfi_def_cfa_offset 32
 1346 0004 D631     		se_stw %r3,24(%r1)
 1347 0006 D741     		se_stw %r4,28(%r1)
 1348              		.loc 3 128 0
 1349 0008 4807     		se_li %r7,0
 1350 000a D271     		se_stw %r7,8(%r1)
 1351 000c 780000AE 		e_b .L65
 1352              	.L69:
 1353              		.loc 3 129 0
 1354 0010 C271     		se_lwz %r7,8(%r1)
 1355 0012 D471     		se_stw %r7,16(%r1)
 1356              		.loc 3 130 0
 1357 0014 C271     		se_lwz %r7,8(%r1)
 1358 0016 2007     		se_addi %r7,1
 1359 0018 D371     		se_stw %r7,12(%r1)
 1360 001a 7800004E 		e_b .L66
 1361              	.L68:
 1362              		.loc 3 131 0
 1363 001e C371     		se_lwz %r7,12(%r1)
 1364 0020 6C27     		se_slwi %r7, 2
 1365 0022 C661     		se_lwz %r6,24(%r1)
 1366 0024 7CE63A14 		add %r7,%r6,%r7
 1367 0028 C067     		se_lwz %r6,0(%r7)
 1368 002a 7CC7FE70 		srawi %r7,%r6,31
 1369 002e 7CE63278 		xor %r6,%r7,%r6
 1370 0032 0676     		se_sub %r6, %r7
 1371 0034 C471     		se_lwz %r7,16(%r1)
 1372 0036 6C27     		se_slwi %r7, 2
 1373 0038 C651     		se_lwz %r5,24(%r1)
 1374 003a 7CE53A14 		add %r7,%r5,%r7
 1375 003e C077     		se_lwz %r7,0(%r7)
 1376 0040 7CE5FE70 		srawi %r5,%r7,31
 1377 0044 7CA73A78 		xor %r7,%r5,%r7
 1378 0048 0657     		se_sub %r7, %r5
 1379 004a 7F863800 		cmp %cr7,%r6,%r7
 1380 004e 7CE00026 		mfcr %r7
 1381 0052 74E7E007 		e_rlwinm %r7,%r7,28,0xf0000000
 1382 0056 7CE80120 		mtcrf 128,%r7
 1383 005a 7A000008 		e_bge %cr0,.L67
 1384              		.loc 3 132 0
 1385 005e C371     		se_lwz %r7,12(%r1)
 1386 0060 D471     		se_stw %r7,16(%r1)
 1387              	.L67:
 1388              		.loc 3 130 0 discriminator 2
 1389 0062 C371     		se_lwz %r7,12(%r1)
 1390 0064 2007     		se_addi %r7,1
 1391 0066 D371     		se_stw %r7,12(%r1)
 1392              	.L66:
 1393              		.loc 3 130 0 is_stmt 0 discriminator 1
 1394 0068 C361     		se_lwz %r6,12(%r1)
 1395 006a C771     		se_lwz %r7,28(%r1)
GAS LISTING C:\Users\cerru\AppData\Local\Temp\ccX7DVb9.s 			page 26


 1396 006c 7F863800 		cmp %cr7,%r6,%r7
 1397 0070 7CE00026 		mfcr %r7
 1398 0074 74E7E007 		e_rlwinm %r7,%r7,28,0xf0000000
 1399 0078 7CE80120 		mtcrf 128,%r7
 1400 007c 7A10FFA2 		e_blt %cr0,.L68
 1401              		.loc 3 135 0 is_stmt 1 discriminator 2
 1402 0080 C471     		se_lwz %r7,16(%r1)
 1403 0082 6C27     		se_slwi %r7, 2
 1404 0084 C661     		se_lwz %r6,24(%r1)
 1405 0086 7CE63A14 		add %r7,%r6,%r7
 1406 008a C077     		se_lwz %r7,0(%r7)
 1407 008c D571     		se_stw %r7,20(%r1)
 1408              		.loc 3 136 0 discriminator 2
 1409 008e C471     		se_lwz %r7,16(%r1)
 1410 0090 6C27     		se_slwi %r7, 2
 1411 0092 C661     		se_lwz %r6,24(%r1)
 1412 0094 7CE63A14 		add %r7,%r6,%r7
 1413 0098 C261     		se_lwz %r6,8(%r1)
 1414 009a 6C26     		se_slwi %r6, 2
 1415 009c C651     		se_lwz %r5,24(%r1)
 1416 009e 7CC53214 		add %r6,%r5,%r6
 1417 00a2 C066     		se_lwz %r6,0(%r6)
 1418 00a4 D067     		se_stw %r6,0(%r7)
 1419              		.loc 3 137 0 discriminator 2
 1420 00a6 C271     		se_lwz %r7,8(%r1)
 1421 00a8 6C27     		se_slwi %r7, 2
 1422 00aa C661     		se_lwz %r6,24(%r1)
 1423 00ac 7CE63A14 		add %r7,%r6,%r7
 1424 00b0 C561     		se_lwz %r6,20(%r1)
 1425 00b2 D067     		se_stw %r6,0(%r7)
 1426              		.loc 3 128 0 discriminator 2
 1427 00b4 C271     		se_lwz %r7,8(%r1)
 1428 00b6 2007     		se_addi %r7,1
 1429 00b8 D271     		se_stw %r7,8(%r1)
 1430              	.L65:
 1431              		.loc 3 128 0 is_stmt 0 discriminator 1
 1432 00ba C771     		se_lwz %r7,28(%r1)
 1433 00bc 18C784FF 		e_addi %r6,%r7,-1
 1434 00c0 C271     		se_lwz %r7,8(%r1)
 1435 00c2 7F863800 		cmp %cr7,%r6,%r7
 1436 00c6 7CE00026 		mfcr %r7
 1437 00ca 74E7E007 		e_rlwinm %r7,%r7,28,0xf0000000
 1438 00ce 7CE80120 		mtcrf 128,%r7
 1439 00d2 7A11FF3E 		e_bgt %cr0,.L69
 1440              		.loc 3 139 0 is_stmt 1
 1441 00d6 21F1     		se_addi %r1,32
 1442              	.LCFI36:
 1443              		.cfi_def_cfa_offset 0
 1444 00d8 0004     		se_blr
 1445              		.cfi_endproc
 1446              	.LFE20:
 1447              		.size	selectionSort, .-selectionSort
 1448              		.section	.text.motor_control,"axv",@progbits
 1449              		.align 1
 1450              		.p2align 4,,15
 1451              		.globl motor_control
 1452              		.type	motor_control, @function
GAS LISTING C:\Users\cerru\AppData\Local\Temp\ccX7DVb9.s 			page 27


 1453              	motor_control:
 1454              	.LFB21:
 1455              		.loc 3 146 0
 1456              		.cfi_startproc
 1457 0000 182106F0 		e_stwu %r1,-16(%r1)
 1458              	.LCFI37:
 1459              		.cfi_def_cfa_offset 16
 1460 0004 0080     		se_mflr %r0
 1461 0006 D501     		se_stw %r0,20(%r1)
 1462              		.cfi_offset 65, 4
 1463 0008 D231     		se_stw %r3,8(%r1)
 1464 000a D341     		se_stw %r4,12(%r1)
 1465              		.loc 3 147 0
 1466 000c 18E1800C 		e_addi %r7,%r1,12
 1467 0010 18C18008 		e_addi %r6,%r1,8
 1468 0014 0163     		se_mr %r3,%r6
 1469 0016 0174     		se_mr %r4,%r7
 1470 0018 78000001 		e_bl motor_control_micro_part
 1471              		.loc 3 148 0
 1472 001c C501     		se_lwz %r0,20(%r1)
 1473 001e 0090     		se_mtlr %r0
 1474 0020 20F1     		se_addi %r1,16
 1475              	.LCFI38:
 1476              		.cfi_def_cfa_offset 0
 1477 0022 0004     		se_blr
 1478              		.cfi_endproc
 1479              	.LFE21:
 1480              		.size	motor_control, .-motor_control
 1481              		.section	.text.stop_motor,"axv",@progbits
 1482              		.align 1
 1483              		.p2align 4,,15
 1484              		.globl stop_motor
 1485              		.type	stop_motor, @function
 1486              	stop_motor:
 1487              	.LFB22:
 1488              		.loc 3 150 0
 1489              		.cfi_startproc
 1490 0000 182106F8 		e_stwu %r1,-8(%r1)
 1491              	.LCFI39:
 1492              		.cfi_def_cfa_offset 8
 1493 0004 0080     		se_mflr %r0
 1494 0006 D301     		se_stw %r0,12(%r1)
 1495              		.cfi_offset 65, 4
 1496              		.loc 3 151 0
 1497 0008 78000001 		e_bl stop_motor_micro_part
 1498              		.loc 3 152 0
 1499 000c C301     		se_lwz %r0,12(%r1)
 1500 000e 0090     		se_mtlr %r0
 1501 0010 2071     		se_addi %r1,8
 1502              	.LCFI40:
 1503              		.cfi_def_cfa_offset 0
 1504 0012 0004     		se_blr
 1505              		.cfi_endproc
 1506              	.LFE22:
 1507              		.size	stop_motor, .-stop_motor
 1508              		.globl __floatunsidf
 1509              		.section	.rodata
GAS LISTING C:\Users\cerru\AppData\Local\Temp\ccX7DVb9.s 			page 28


 1510              		.align 2
 1511              	.LC0:
 1512 0000 0A0A616E 		.string	"\n\nangolo_after_1500= %f\n"
 1512      676F6C6F 
 1512      5F616674 
 1512      65725F31 
 1512      3530303D 
 1513 0019 000000   		.align 2
 1514              	.LC1:
 1515 001c 56656C6F 		.string	"Velocit\340   costante finale= %f\n"
 1515      636974E0 
 1515      20202063 
 1515      6F737461 
 1515      6E746520 
 1516              		.align 2
 1517              	.LC2:
 1518 003c 41207061 		.string	"A partire da millisecond finale= %f\n"
 1518      72746972 
 1518      65206461 
 1518      206D696C 
 1518      6C697365 
 1519 0061 000000   		.align 2
 1520              	.LC3:
 1521 0064 41207061 		.string	"A partire da valore finale= %f\n"
 1521      72746972 
 1521      65206461 
 1521      2076616C 
 1521      6F726520 
 1522              		.align 2
 1523              	.LC4:
 1524 0084 0A0A5665 		.string	"\n\nVelocit\340   costante finale= %f\n"
 1524      6C6F6369 
 1524      74E02020 
 1524      20636F73 
 1524      74616E74 
 1525              		.section	.text.calibrate_velocity,"axv",@progbits
 1526              		.align 1
 1527              		.p2align 4,,15
 1528              		.globl calibrate_velocity
 1529              		.type	calibrate_velocity, @function
 1530              	calibrate_velocity:
 1531              	.LFB23:
 1532              		.loc 3 160 0
 1533              		.cfi_startproc
 1534 0000 182106B0 		e_stwu %r1,-80(%r1)
 1535              	.LCFI41:
 1536              		.cfi_def_cfa_offset 80
 1537 0004 0080     		se_mflr %r0
 1538 0006 54010054 		e_stw %r0,84(%r1)
 1539 000a 1BC10948 		e_stmw %r30,72(%r1)
 1540              		.cfi_offset 65, 4
 1541              		.cfi_offset 30, -8
 1542              		.cfi_offset 31, -4
 1543 000e DE31     		se_stw %r3,56(%r1)
 1544 0010 DF41     		se_stw %r4,60(%r1)
 1545 0012 54A10040 		e_stw %r5,64(%r1)
 1546              		.loc 3 162 0
GAS LISTING C:\Users\cerru\AppData\Local\Temp\ccX7DVb9.s 			page 29


 1547 0016 CF31     		se_lwz %r3,60(%r1)
 1548 0018 78000001 		e_bl read_approximated_tof
 1549 001c D631     		se_stw %r3,24(%r1)
 1550              		.loc 3 168 0
 1551 001e 50E10040 		e_lwz %r7,64(%r1)
 1552 0022 2A07     		se_cmpi %r7,0
 1553 0024 7F800020 		e_mcrf %cr7,%cr0
 1554 0028 7CE00026 		mfcr %r7
 1555 002c 74E7E007 		e_rlwinm %r7,%r7,28,0xf0000000
 1556 0030 7CE80120 		mtcrf 128,%r7
 1557 0034 7A02000C 		e_bne %cr0,.L73
 1558              		.loc 3 169 0
 1559 0038 4807     		se_li %r7,0
 1560 003a D471     		se_stw %r7,16(%r1)
 1561 003c 78000008 		e_b .L74
 1562              	.L73:
 1563              		.loc 3 171 0
 1564 0040 4837     		se_li %r7,3
 1565 0042 D471     		se_stw %r7,16(%r1)
 1566              	.L74:
 1567              		.loc 3 173 0
 1568 0044 CE31     		se_lwz %r3,56(%r1)
 1569 0046 78000001 		e_bl __floatsidf
 1570 004a 0240     		se_mtar %r8,%r4
 1571 004c 0137     		se_mr %r7,%r3
 1572 004e 70C0E000 		e_lis %r6,angular@ha
 1573 0052 1CC60000 		e_la %r6,angular@l(%r6)
 1574 0056 D276     		se_stw %r7,8(%r6)
 1575 0058 5506000C 		e_stw %r8,12(%r6)
 1576              		.loc 3 174 0
 1577 005c CE31     		se_lwz %r3,56(%r1)
 1578 005e 78000001 		e_bl __floatsidf
 1579 0062 0240     		se_mtar %r8,%r4
 1580 0064 0137     		se_mr %r7,%r3
 1581 0066 70C0E000 		e_lis %r6,frontal@ha
 1582 006a 1CC60000 		e_la %r6,frontal@l(%r6)
 1583 006e D276     		se_stw %r7,8(%r6)
 1584 0070 5506000C 		e_stw %r8,12(%r6)
 1585              	.LBB5:
 1586              		.loc 3 178 0
 1587 0074 4807     		se_li %r7,0
 1588 0076 D571     		se_stw %r7,20(%r1)
 1589 0078 7800036E 		e_b .L75
 1590              	.L87:
 1591              		.loc 3 179 0
 1592 007c 4807     		se_li %r7,0
 1593 007e D271     		se_stw %r7,8(%r1)
 1594              		.loc 3 180 0
 1595 0080 78000001 		e_bl osalThreadGetMilliseconds
 1596 0084 D731     		se_stw %r3,28(%r1)
 1597              		.loc 3 181 0
 1598 0086 C431     		se_lwz %r3,16(%r1)
 1599 0088 48F4     		se_li %r4,15
 1600 008a 78000001 		e_bl motor_control
 1601              		.loc 3 182 0
 1602 008e C571     		se_lwz %r7,20(%r1)
 1603 0090 2A17     		se_cmpi %r7,1
GAS LISTING C:\Users\cerru\AppData\Local\Temp\ccX7DVb9.s 			page 30


 1604 0092 7F800020 		e_mcrf %cr7,%cr0
 1605 0096 7CE00026 		mfcr %r7
 1606 009a 74E7E007 		e_rlwinm %r7,%r7,28,0xf0000000
 1607 009e 7CE80120 		mtcrf 128,%r7
 1608 00a2 7A11000C 		e_bgt %cr0,.L76
 1609              		.loc 3 183 0
 1610 00a6 CE71     		se_lwz %r7,56(%r1)
 1611 00a8 D371     		se_stw %r7,12(%r1)
 1612 00aa 7800000A 		e_b .L77
 1613              	.L76:
 1614              		.loc 3 185 0
 1615 00ae 70E005DC 		e_li %r7,1500
 1616 00b2 D371     		se_stw %r7,12(%r1)
 1617              	.L77:
 1618              		.loc 3 189 0
 1619 00b4 78000001 		e_bl osalThreadGetMilliseconds
 1620 00b8 D831     		se_stw %r3,32(%r1)
 1621              		.loc 3 191 0
 1622 00ba C271     		se_lwz %r7,8(%r1)
 1623 00bc 2A07     		se_cmpi %r7,0
 1624 00be 7F800020 		e_mcrf %cr7,%cr0
 1625 00c2 7CE00026 		mfcr %r7
 1626 00c6 74E7E007 		e_rlwinm %r7,%r7,28,0xf0000000
 1627 00ca 7CE80120 		mtcrf 128,%r7
 1628 00ce 7A020030 		e_bne %cr0,.L78
 1629              		.loc 3 191 0 is_stmt 0 discriminator 1
 1630 00d2 70E000C8 		e_li %r7,200
 1631 00d6 0176     		se_mr %r6,%r7
 1632 00d8 C771     		se_lwz %r7,28(%r1)
 1633 00da 0476     		se_add %r6,%r7
 1634 00dc C871     		se_lwz %r7,32(%r1)
 1635 00de 7F863840 		cmpl %cr7,%r6,%r7
 1636 00e2 7CE00026 		mfcr %r7
 1637 00e6 74E7E007 		e_rlwinm %r7,%r7,28,0xf0000000
 1638 00ea 7CE80120 		mtcrf 128,%r7
 1639 00ee 7A110010 		e_bgt %cr0,.L78
 1640              		.loc 3 192 0 is_stmt 1
 1641 00f2 C431     		se_lwz %r3,16(%r1)
 1642 00f4 4B24     		se_li %r4,50
 1643 00f6 78000001 		e_bl motor_control
 1644              		.loc 3 193 0
 1645 00fa 4817     		se_li %r7,1
 1646 00fc D271     		se_stw %r7,8(%r1)
 1647              	.L78:
 1648              		.loc 3 196 0
 1649 00fe C761     		se_lwz %r6,28(%r1)
 1650 0100 C371     		se_lwz %r7,12(%r1)
 1651 0102 0476     		se_add %r6,%r7
 1652 0104 C871     		se_lwz %r7,32(%r1)
 1653 0106 7F863840 		cmpl %cr7,%r6,%r7
 1654 010a 7CE00026 		mfcr %r7
 1655 010e 74E7E007 		e_rlwinm %r7,%r7,28,0xf0000000
 1656 0112 7CE80120 		mtcrf 128,%r7
 1657 0116 7A11002E 		e_bgt %cr0,.L79
 1658              		.loc 3 197 0
 1659 011a 78000001 		e_bl stop_motor
 1660              		.loc 3 198 0
GAS LISTING C:\Users\cerru\AppData\Local\Temp\ccX7DVb9.s 			page 31


 1661 011e 4400     		se_nop
 1662              		.loc 3 202 0
 1663 0120 706001F4 		e_li %r3,500
 1664 0124 78000001 		e_bl osalThreadDelayMilliseconds
 1665              		.loc 3 205 0
 1666 0128 C571     		se_lwz %r7,20(%r1)
 1667 012a 2A07     		se_cmpi %r7,0
 1668 012c 7F800020 		e_mcrf %cr7,%cr0
 1669 0130 7CE00026 		mfcr %r7
 1670 0134 74E7E007 		e_rlwinm %r7,%r7,28,0xf0000000
 1671 0138 7CE80120 		mtcrf 128,%r7
 1672 013c 7A020074 		e_bne %cr0,.L81
 1673 0140 78000008 		e_b .L88
 1674              	.L79:
 1675              		.loc 3 200 0
 1676 0144 79FFFF70 		e_b .L77
 1677              	.L88:
 1678              		.loc 3 206 0
 1679 0148 50E10040 		e_lwz %r7,64(%r1)
 1680 014c 2A07     		se_cmpi %r7,0
 1681 014e 7F800020 		e_mcrf %cr7,%cr0
 1682 0152 7CE00026 		mfcr %r7
 1683 0156 74E7E007 		e_rlwinm %r7,%r7,28,0xf0000000
 1684 015a 7CE80120 		mtcrf 128,%r7
 1685 015e 7A02002A 		e_bne %cr0,.L82
 1686              		.loc 3 207 0
 1687 0162 CF31     		se_lwz %r3,60(%r1)
 1688 0164 78000001 		e_bl read_approximated_tof
 1689 0168 0137     		se_mr %r7,%r3
 1690 016a C631     		se_lwz %r3,24(%r1)
 1691 016c 0174     		se_mr %r4,%r7
 1692 016e 78000001 		e_bl get_approximated_angle
 1693 0172 0240     		se_mtar %r8,%r4
 1694 0174 0137     		se_mr %r7,%r3
 1695 0176 70C0E000 		e_lis %r6,angular@ha
 1696 017a 1CC60000 		e_la %r6,angular@l(%r6)
 1697 017e D476     		se_stw %r7,16(%r6)
 1698 0180 55060014 		e_stw %r8,20(%r6)
 1699 0184 78000254 		e_b .L84
 1700              	.L82:
 1701              		.loc 3 209 0
 1702 0188 CF31     		se_lwz %r3,60(%r1)
 1703 018a 78000001 		e_bl read_approximated_tof
 1704 018e 0136     		se_mr %r6,%r3
 1705 0190 C671     		se_lwz %r7,24(%r1)
 1706 0192 0767     		se_subf %r7, %r6
 1707 0194 0173     		se_mr %r3,%r7
 1708 0196 78000001 		e_bl __floatsidf
 1709 019a 0240     		se_mtar %r8,%r4
 1710 019c 0137     		se_mr %r7,%r3
 1711 019e 70C0E000 		e_lis %r6,frontal@ha
 1712 01a2 1CC60000 		e_la %r6,frontal@l(%r6)
 1713 01a6 D476     		se_stw %r7,16(%r6)
 1714 01a8 55060014 		e_stw %r8,20(%r6)
 1715 01ac 7800022C 		e_b .L84
 1716              	.L81:
 1717              		.loc 3 211 0
GAS LISTING C:\Users\cerru\AppData\Local\Temp\ccX7DVb9.s 			page 32


 1718 01b0 C571     		se_lwz %r7,20(%r1)
 1719 01b2 2A27     		se_cmpi %r7,2
 1720 01b4 7F800020 		e_mcrf %cr7,%cr0
 1721 01b8 7CE00026 		mfcr %r7
 1722 01bc 74E7E007 		e_rlwinm %r7,%r7,28,0xf0000000
 1723 01c0 7CE80120 		mtcrf 128,%r7
 1724 01c4 7A020214 		e_bne %cr0,.L84
 1725              		.loc 3 212 0
 1726 01c8 50E10040 		e_lwz %r7,64(%r1)
 1727 01cc 2A07     		se_cmpi %r7,0
 1728 01ce 7F800020 		e_mcrf %cr7,%cr0
 1729 01d2 7CE00026 		mfcr %r7
 1730 01d6 74E7E007 		e_rlwinm %r7,%r7,28,0xf0000000
 1731 01da 7CE80120 		mtcrf 128,%r7
 1732 01de 7A02010A 		e_bne %cr0,.L85
 1733              	.LBB6:
 1734              		.loc 3 213 0
 1735 01e2 CF31     		se_lwz %r3,60(%r1)
 1736 01e4 78000001 		e_bl read_approximated_tof
 1737 01e8 0137     		se_mr %r7,%r3
 1738 01ea C631     		se_lwz %r3,24(%r1)
 1739 01ec 0174     		se_mr %r4,%r7
 1740 01ee 78000001 		e_bl get_approximated_angle
 1741 01f2 DA31     		se_stw %r3,40(%r1)
 1742 01f4 DB41     		se_stw %r4,44(%r1)
 1743              		.loc 3 215 0
 1744 01f6 70E0E000 		e_lis %r7,angular@ha
 1745 01fa 1CE70000 		e_la %r7,angular@l(%r7)
 1746 01fe 51070014 		e_lwz %r8,20(%r7)
 1747 0202 C477     		se_lwz %r7,16(%r7)
 1748 0204 CA31     		se_lwz %r3,40(%r1)
 1749 0206 CB41     		se_lwz %r4,44(%r1)
 1750 0208 0175     		se_mr %r5,%r7
 1751 020a 0306     		se_mfar %r6,%r8
 1752 020c 78000001 		e_bl __subdf3
 1753 0210 0240     		se_mtar %r8,%r4
 1754 0212 0137     		se_mr %r7,%r3
 1755 0214 030F     		se_mfar %r31,%r8
 1756 0216 017E     		se_mr %r30,%r7
 1757 0218 C331     		se_lwz %r3,12(%r1)
 1758 021a 78000001 		e_bl __floatunsidf
 1759 021e 0146     		se_mr %r6,%r4
 1760 0220 0135     		se_mr %r5,%r3
 1761 0222 70E0E000 		e_lis %r7,angular@ha
 1762 0226 1CE70000 		e_la %r7,angular@l(%r7)
 1763 022a 5107000C 		e_lwz %r8,12(%r7)
 1764 022e C277     		se_lwz %r7,8(%r7)
 1765 0230 0153     		se_mr %r3,%r5
 1766 0232 0164     		se_mr %r4,%r6
 1767 0234 0175     		se_mr %r5,%r7
 1768 0236 0306     		se_mfar %r6,%r8
 1769 0238 78000001 		e_bl __subdf3
 1770 023c 0240     		se_mtar %r8,%r4
 1771 023e 0137     		se_mr %r7,%r3
 1772 0240 01E3     		se_mr %r3,%r30
 1773 0242 01F4     		se_mr %r4,%r31
 1774 0244 0175     		se_mr %r5,%r7
GAS LISTING C:\Users\cerru\AppData\Local\Temp\ccX7DVb9.s 			page 33


 1775 0246 0306     		se_mfar %r6,%r8
 1776 0248 78000001 		e_bl __divdf3
 1777 024c 0240     		se_mtar %r8,%r4
 1778 024e 0137     		se_mr %r7,%r3
 1779              		.loc 3 214 0
 1780 0250 70C0E000 		e_lis %r6,angular@ha
 1781 0254 1CC60000 		e_la %r6,angular@l(%r6)
 1782 0258 D076     		se_stw %r7,0(%r6)
 1783 025a 55060004 		e_stw %r8,4(%r6)
 1784              		.loc 3 217 0
 1785 025e 4807     		se_li %r7,0
 1786 0260 2A07     		se_cmpi %r7,0
 1787 0262 7F800020 		e_mcrf %cr7,%cr0
 1788 0266 7CE00026 		mfcr %r7
 1789 026a 74E7E007 		e_rlwinm %r7,%r7,28,0xf0000000
 1790 026e 7CE80120 		mtcrf 128,%r7
 1791 0272 7A120072 		e_beq %cr0,.L86
 1792              		.loc 3 218 0
 1793 0276 70E0E000 		e_lis %r7,.LC0@ha
 1794 027a 1C670000 		e_la %r3,.LC0@l(%r7)
 1795 027e CA51     		se_lwz %r5,40(%r1)
 1796 0280 CB61     		se_lwz %r6,44(%r1)
 1797 0282 78000001 		e_bl trace
 1798              		.loc 3 219 0
 1799 0286 70E0E000 		e_lis %r7,angular@ha
 1800 028a 1CE70000 		e_la %r7,angular@l(%r7)
 1801 028e 51070004 		e_lwz %r8,4(%r7)
 1802 0292 C077     		se_lwz %r7,0(%r7)
 1803 0294 70C0E000 		e_lis %r6,.LC1@ha
 1804 0298 1C660000 		e_la %r3,.LC1@l(%r6)
 1805 029c 0175     		se_mr %r5,%r7
 1806 029e 0306     		se_mfar %r6,%r8
 1807 02a0 78000001 		e_bl trace
 1808              		.loc 3 220 0
 1809 02a4 70E0E000 		e_lis %r7,angular@ha
 1810 02a8 1CE70000 		e_la %r7,angular@l(%r7)
 1811 02ac 5107000C 		e_lwz %r8,12(%r7)
 1812 02b0 C277     		se_lwz %r7,8(%r7)
 1813 02b2 70C0E000 		e_lis %r6,.LC2@ha
 1814 02b6 1C660000 		e_la %r3,.LC2@l(%r6)
 1815 02ba 0175     		se_mr %r5,%r7
 1816 02bc 0306     		se_mfar %r6,%r8
 1817 02be 78000001 		e_bl trace
 1818              		.loc 3 221 0
 1819 02c2 70E0E000 		e_lis %r7,angular@ha
 1820 02c6 1CE70000 		e_la %r7,angular@l(%r7)
 1821 02ca 51070014 		e_lwz %r8,20(%r7)
 1822 02ce C477     		se_lwz %r7,16(%r7)
 1823 02d0 70C0E000 		e_lis %r6,.LC3@ha
 1824 02d4 1C660000 		e_la %r3,.LC3@l(%r6)
 1825 02d8 0175     		se_mr %r5,%r7
 1826 02da 0306     		se_mfar %r6,%r8
 1827 02dc 78000001 		e_bl trace
 1828              	.LBE6:
 1829 02e0 780000F8 		e_b .L84
 1830              	.L86:
 1831 02e4 780000F4 		e_b .L84
GAS LISTING C:\Users\cerru\AppData\Local\Temp\ccX7DVb9.s 			page 34


 1832              	.L85:
 1833              		.loc 3 225 0
 1834 02e8 CF31     		se_lwz %r3,60(%r1)
 1835 02ea 78000001 		e_bl read_approximated_tof
 1836 02ee 0136     		se_mr %r6,%r3
 1837 02f0 C671     		se_lwz %r7,24(%r1)
 1838 02f2 0767     		se_subf %r7, %r6
 1839 02f4 0173     		se_mr %r3,%r7
 1840 02f6 78000001 		e_bl __floatsidf
 1841 02fa 0146     		se_mr %r6,%r4
 1842 02fc 0135     		se_mr %r5,%r3
 1843 02fe 70E0E000 		e_lis %r7,frontal@ha
 1844 0302 1CE70000 		e_la %r7,frontal@l(%r7)
 1845 0306 51070014 		e_lwz %r8,20(%r7)
 1846 030a C477     		se_lwz %r7,16(%r7)
 1847 030c 0153     		se_mr %r3,%r5
 1848 030e 0164     		se_mr %r4,%r6
 1849 0310 0175     		se_mr %r5,%r7
 1850 0312 0306     		se_mfar %r6,%r8
 1851 0314 78000001 		e_bl __subdf3
 1852 0318 0240     		se_mtar %r8,%r4
 1853 031a 0137     		se_mr %r7,%r3
 1854 031c 030F     		se_mfar %r31,%r8
 1855 031e 017E     		se_mr %r30,%r7
 1856              		.loc 3 226 0
 1857 0320 C331     		se_lwz %r3,12(%r1)
 1858 0322 78000001 		e_bl __floatunsidf
 1859 0326 0146     		se_mr %r6,%r4
 1860 0328 0135     		se_mr %r5,%r3
 1861 032a 70E0E000 		e_lis %r7,frontal@ha
 1862 032e 1CE70000 		e_la %r7,frontal@l(%r7)
 1863 0332 5107000C 		e_lwz %r8,12(%r7)
 1864 0336 C277     		se_lwz %r7,8(%r7)
 1865 0338 0153     		se_mr %r3,%r5
 1866 033a 0164     		se_mr %r4,%r6
 1867 033c 0175     		se_mr %r5,%r7
 1868 033e 0306     		se_mfar %r6,%r8
 1869 0340 78000001 		e_bl __subdf3
 1870 0344 0240     		se_mtar %r8,%r4
 1871 0346 0137     		se_mr %r7,%r3
 1872              		.loc 3 225 0
 1873 0348 01E3     		se_mr %r3,%r30
 1874 034a 01F4     		se_mr %r4,%r31
 1875 034c 0175     		se_mr %r5,%r7
 1876 034e 0306     		se_mfar %r6,%r8
 1877 0350 78000001 		e_bl __divdf3
 1878 0354 0240     		se_mtar %r8,%r4
 1879 0356 0137     		se_mr %r7,%r3
 1880              		.loc 3 224 0
 1881 0358 70C0E000 		e_lis %r6,frontal@ha
 1882 035c 1CC60000 		e_la %r6,frontal@l(%r6)
 1883 0360 D076     		se_stw %r7,0(%r6)
 1884 0362 55060004 		e_stw %r8,4(%r6)
 1885              		.loc 3 228 0
 1886 0366 4807     		se_li %r7,0
 1887 0368 2A07     		se_cmpi %r7,0
 1888 036a 7F800020 		e_mcrf %cr7,%cr0
GAS LISTING C:\Users\cerru\AppData\Local\Temp\ccX7DVb9.s 			page 35


 1889 036e 7CE00026 		mfcr %r7
 1890 0372 74E7E007 		e_rlwinm %r7,%r7,28,0xf0000000
 1891 0376 7CE80120 		mtcrf 128,%r7
 1892 037a 7A12005E 		e_beq %cr0,.L84
 1893              		.loc 3 229 0
 1894 037e 70E0E000 		e_lis %r7,frontal@ha
 1895 0382 1CE70000 		e_la %r7,frontal@l(%r7)
 1896 0386 51070004 		e_lwz %r8,4(%r7)
 1897 038a C077     		se_lwz %r7,0(%r7)
 1898 038c 70C0E000 		e_lis %r6,.LC4@ha
 1899 0390 1C660000 		e_la %r3,.LC4@l(%r6)
 1900 0394 0175     		se_mr %r5,%r7
 1901 0396 0306     		se_mfar %r6,%r8
 1902 0398 78000001 		e_bl trace
 1903              		.loc 3 230 0
 1904 039c 70E0E000 		e_lis %r7,frontal@ha
 1905 03a0 1CE70000 		e_la %r7,frontal@l(%r7)
 1906 03a4 5107000C 		e_lwz %r8,12(%r7)
 1907 03a8 C277     		se_lwz %r7,8(%r7)
 1908 03aa 70C0E000 		e_lis %r6,.LC2@ha
 1909 03ae 1C660000 		e_la %r3,.LC2@l(%r6)
 1910 03b2 0175     		se_mr %r5,%r7
 1911 03b4 0306     		se_mfar %r6,%r8
 1912 03b6 78000001 		e_bl trace
 1913              		.loc 3 231 0
 1914 03ba 70E0E000 		e_lis %r7,frontal@ha
 1915 03be 1CE70000 		e_la %r7,frontal@l(%r7)
 1916 03c2 51070014 		e_lwz %r8,20(%r7)
 1917 03c6 C477     		se_lwz %r7,16(%r7)
 1918 03c8 70C0E000 		e_lis %r6,.LC3@ha
 1919 03cc 1C660000 		e_la %r3,.LC3@l(%r6)
 1920 03d0 0175     		se_mr %r5,%r7
 1921 03d2 0306     		se_mfar %r6,%r8
 1922 03d4 78000001 		e_bl trace
 1923              	.L84:
 1924              		.loc 3 236 0 discriminator 2
 1925 03d8 C431     		se_lwz %r3,16(%r1)
 1926 03da 78000001 		e_bl opposite
 1927 03de D431     		se_stw %r3,16(%r1)
 1928              		.loc 3 178 0 discriminator 2
 1929 03e0 C571     		se_lwz %r7,20(%r1)
 1930 03e2 2007     		se_addi %r7,1
 1931 03e4 D571     		se_stw %r7,20(%r1)
 1932              	.L75:
 1933              		.loc 3 178 0 is_stmt 0 discriminator 1
 1934 03e6 C571     		se_lwz %r7,20(%r1)
 1935 03e8 2A37     		se_cmpi %r7,3
 1936 03ea 7F800020 		e_mcrf %cr7,%cr0
 1937 03ee 7CE00026 		mfcr %r7
 1938 03f2 74E7E007 		e_rlwinm %r7,%r7,28,0xf0000000
 1939 03f6 7CE80120 		mtcrf 128,%r7
 1940 03fa 7A01FC82 		e_ble %cr0,.L87
 1941              	.LBE5:
 1942              		.loc 3 238 0 is_stmt 1
 1943 03fe 50010054 		e_lwz %r0,84(%r1)
 1944 0402 0090     		se_mtlr %r0
 1945 0404 1BC10848 		e_lmw %r30,72(%r1)
GAS LISTING C:\Users\cerru\AppData\Local\Temp\ccX7DVb9.s 			page 36


 1946 0408 18218050 		e_addi %r1,%r1,80
 1947              	.LCFI42:
 1948              		.cfi_restore 31
 1949              		.cfi_restore 30
 1950              		.cfi_def_cfa_offset 0
 1951 040c 0004     		se_blr
 1952              		.cfi_endproc
 1953              	.LFE23:
 1954              		.size	calibrate_velocity, .-calibrate_velocity
 1955              		.globl __fixdfsi
 1956              		.section	.text.move,"axv",@progbits
 1957              		.align 1
 1958              		.p2align 4,,15
 1959              		.globl move
 1960              		.type	move, @function
 1961              	move:
 1962              	.LFB24:
 1963              		.loc 3 245 0
 1964              		.cfi_startproc
 1965 0000 182106A0 		e_stwu %r1,-96(%r1)
 1966              	.LCFI43:
 1967              		.cfi_def_cfa_offset 96
 1968 0004 0080     		se_mflr %r0
 1969 0006 54010064 		e_stw %r0,100(%r1)
 1970 000a 1B810950 		e_stmw %r28,80(%r1)
 1971              		.cfi_offset 65, 4
 1972              		.cfi_offset 28, -16
 1973              		.cfi_offset 29, -12
 1974              		.cfi_offset 30, -8
 1975              		.cfi_offset 31, -4
 1976 000e 54610048 		e_stw %r3,72(%r1)
 1977 0012 5481004C 		e_stw %r4,76(%r1)
 1978              		.loc 3 246 0
 1979 0016 70E0E000 		e_lis %r7,frontal@ha
 1980 001a 1CE70000 		e_la %r7,frontal@l(%r7)
 1981 001e C037     		se_lwz %r3,0(%r7)
 1982 0020 C147     		se_lwz %r4,4(%r7)
 1983 0022 C257     		se_lwz %r5,8(%r7)
 1984 0024 C367     		se_lwz %r6,12(%r7)
 1985 0026 DA31     		se_stw %r3,40(%r1)
 1986 0028 DB41     		se_stw %r4,44(%r1)
 1987 002a DC51     		se_stw %r5,48(%r1)
 1988 002c DD61     		se_stw %r6,52(%r1)
 1989 002e C467     		se_lwz %r6,16(%r7)
 1990 0030 C577     		se_lwz %r7,20(%r7)
 1991 0032 DE61     		se_stw %r6,56(%r1)
 1992 0034 DF71     		se_stw %r7,60(%r1)
 1993              		.loc 3 247 0
 1994 0036 4807     		se_li %r7,0
 1995 0038 D271     		se_stw %r7,8(%r1)
 1996              		.loc 3 250 0
 1997 003a 50E1004C 		e_lwz %r7,76(%r1)
 1998 003e 2A17     		se_cmpi %r7,1
 1999 0040 7F800020 		e_mcrf %cr7,%cr0
 2000 0044 7CE00026 		mfcr %r7
 2001 0048 74E7E007 		e_rlwinm %r7,%r7,28,0xf0000000
 2002 004c 7CE80120 		mtcrf 128,%r7
GAS LISTING C:\Users\cerru\AppData\Local\Temp\ccX7DVb9.s 			page 37


 2003 0050 7A12001E 		e_beq %cr0,.L90
 2004              		.loc 3 250 0 is_stmt 0 discriminator 1
 2005 0054 50E1004C 		e_lwz %r7,76(%r1)
 2006 0058 2A07     		se_cmpi %r7,0
 2007 005a 7F800020 		e_mcrf %cr7,%cr0
 2008 005e 7CE00026 		mfcr %r7
 2009 0062 74E7E007 		e_rlwinm %r7,%r7,28,0xf0000000
 2010 0066 7CE80120 		mtcrf 128,%r7
 2011 006a 7A02003A 		e_bne %cr0,.L91
 2012              	.L90:
 2013              		.loc 3 251 0 is_stmt 1
 2014 006e 70E0E000 		e_lis %r7,angular@ha
 2015 0072 1CE70000 		e_la %r7,angular@l(%r7)
 2016 0076 C037     		se_lwz %r3,0(%r7)
 2017 0078 C147     		se_lwz %r4,4(%r7)
 2018 007a C257     		se_lwz %r5,8(%r7)
 2019 007c C367     		se_lwz %r6,12(%r7)
 2020 007e DA31     		se_stw %r3,40(%r1)
 2021 0080 DB41     		se_stw %r4,44(%r1)
 2022 0082 DC51     		se_stw %r5,48(%r1)
 2023 0084 DD61     		se_stw %r6,52(%r1)
 2024 0086 C467     		se_lwz %r6,16(%r7)
 2025 0088 C577     		se_lwz %r7,20(%r7)
 2026 008a DE61     		se_stw %r6,56(%r1)
 2027 008c DF71     		se_stw %r7,60(%r1)
 2028              		.loc 3 252 0
 2029 008e 50E10048 		e_lwz %r7,72(%r1)
 2030 0092 70C00168 		e_li %r6,360
 2031 0096 7CC733D6 		divw %r6,%r7,%r6
 2032 009a 7006A168 		e_mull2i %r6,360
 2033 009e 0667     		se_sub %r7, %r6
 2034 00a0 54E10048 		e_stw %r7,72(%r1)
 2035              	.L91:
 2036              		.loc 3 255 0
 2037 00a4 50E10048 		e_lwz %r7,72(%r1)
 2038 00a8 2A07     		se_cmpi %r7,0
 2039 00aa 7F800020 		e_mcrf %cr7,%cr0
 2040 00ae 7CE00026 		mfcr %r7
 2041 00b2 74E7E007 		e_rlwinm %r7,%r7,28,0xf0000000
 2042 00b6 7CE80120 		mtcrf 128,%r7
 2043 00ba 7A120254 		e_beq %cr0,.L89
 2044              		.loc 3 259 0
 2045 00be 50610048 		e_lwz %r3,72(%r1)
 2046 00c2 78000001 		e_bl __floatsidf
 2047 00c6 0146     		se_mr %r6,%r4
 2048 00c8 0135     		se_mr %r5,%r3
 2049 00ca CE71     		se_lwz %r7,56(%r1)
 2050 00cc 5101003C 		e_lwz %r8,60(%r1)
 2051 00d0 0153     		se_mr %r3,%r5
 2052 00d2 0164     		se_mr %r4,%r6
 2053 00d4 0175     		se_mr %r5,%r7
 2054 00d6 0306     		se_mfar %r6,%r8
 2055 00d8 78000001 		e_bl __ltdf2
 2056 00dc 0137     		se_mr %r7,%r3
 2057 00de 2A07     		se_cmpi %r7,0
 2058 00e0 7F800020 		e_mcrf %cr7,%cr0
 2059 00e4 7CE00026 		mfcr %r7
GAS LISTING C:\Users\cerru\AppData\Local\Temp\ccX7DVb9.s 			page 38


 2060 00e8 74E7E007 		e_rlwinm %r7,%r7,28,0xf0000000
 2061 00ec 7CE80120 		mtcrf 128,%r7
 2062 00f0 7A000022 		e_bge %cr0,.L94
 2063              		.loc 3 260 0
 2064 00f4 4817     		se_li %r7,1
 2065 00f6 D271     		se_stw %r7,8(%r1)
 2066              		.loc 3 261 0
 2067 00f8 CE71     		se_lwz %r7,56(%r1)
 2068 00fa 5101003C 		e_lwz %r8,60(%r1)
 2069 00fe 0173     		se_mr %r3,%r7
 2070 0100 0304     		se_mfar %r4,%r8
 2071 0102 78000001 		e_bl __fixdfsi
 2072 0106 0136     		se_mr %r6,%r3
 2073 0108 50E10048 		e_lwz %r7,72(%r1)
 2074 010c 0467     		se_add %r7,%r6
 2075 010e 54E10048 		e_stw %r7,72(%r1)
 2076              	.L94:
 2077              		.loc 3 264 0
 2078 0112 50610048 		e_lwz %r3,72(%r1)
 2079 0116 78000001 		e_bl __floatsidf
 2080 011a 0146     		se_mr %r6,%r4
 2081 011c 0135     		se_mr %r5,%r3
 2082 011e CE71     		se_lwz %r7,56(%r1)
 2083 0120 5101003C 		e_lwz %r8,60(%r1)
 2084 0124 0153     		se_mr %r3,%r5
 2085 0126 0164     		se_mr %r4,%r6
 2086 0128 0175     		se_mr %r5,%r7
 2087 012a 0306     		se_mfar %r6,%r8
 2088 012c 78000001 		e_bl __subdf3
 2089 0130 0240     		se_mtar %r8,%r4
 2090 0132 0137     		se_mr %r7,%r3
 2091 0134 0175     		se_mr %r5,%r7
 2092 0136 0306     		se_mfar %r6,%r8
 2093 0138 CA71     		se_lwz %r7,40(%r1)
 2094 013a 5101002C 		e_lwz %r8,44(%r1)
 2095 013e 0153     		se_mr %r3,%r5
 2096 0140 0164     		se_mr %r4,%r6
 2097 0142 0175     		se_mr %r5,%r7
 2098 0144 0306     		se_mfar %r6,%r8
 2099 0146 78000001 		e_bl __divdf3
 2100 014a 0240     		se_mtar %r8,%r4
 2101 014c 0137     		se_mr %r7,%r3
 2102 014e 0175     		se_mr %r5,%r7
 2103 0150 0306     		se_mfar %r6,%r8
 2104 0152 CC71     		se_lwz %r7,48(%r1)
 2105 0154 51010034 		e_lwz %r8,52(%r1)
 2106 0158 0153     		se_mr %r3,%r5
 2107 015a 0164     		se_mr %r4,%r6
 2108 015c 0175     		se_mr %r5,%r7
 2109 015e 0306     		se_mfar %r6,%r8
 2110 0160 78000001 		e_bl __adddf3
 2111 0164 0240     		se_mtar %r8,%r4
 2112 0166 0137     		se_mr %r7,%r3
 2113 0168 0173     		se_mr %r3,%r7
 2114 016a 0304     		se_mfar %r4,%r8
 2115 016c 78000001 		e_bl __fixdfsi
 2116 0170 0137     		se_mr %r7,%r3
GAS LISTING C:\Users\cerru\AppData\Local\Temp\ccX7DVb9.s 			page 39


 2117 0172 D371     		se_stw %r7,12(%r1)
 2118              	.LBB7:
 2119              		.loc 3 266 0
 2120 0174 4807     		se_li %r7,0
 2121 0176 D471     		se_stw %r7,16(%r1)
 2122 0178 7800017E 		e_b .L96
 2123              	.L104:
 2124              	.LBB8:
 2125              		.loc 3 267 0
 2126 017c 78000001 		e_bl osalThreadGetMilliseconds
 2127 0180 D631     		se_stw %r3,24(%r1)
 2128              		.loc 3 268 0
 2129 0182 5061004C 		e_lwz %r3,76(%r1)
 2130 0186 48F4     		se_li %r4,15
 2131 0188 78000001 		e_bl motor_control
 2132              		.loc 3 269 0
 2133 018c 4807     		se_li %r7,0
 2134 018e D571     		se_stw %r7,20(%r1)
 2135              	.L102:
 2136              		.loc 3 272 0
 2137 0190 78000001 		e_bl osalThreadGetMilliseconds
 2138 0194 D731     		se_stw %r3,28(%r1)
 2139              		.loc 3 274 0
 2140 0196 70E000C8 		e_li %r7,200
 2141 019a 0176     		se_mr %r6,%r7
 2142 019c C671     		se_lwz %r7,24(%r1)
 2143 019e 0476     		se_add %r6,%r7
 2144 01a0 C771     		se_lwz %r7,28(%r1)
 2145 01a2 7F863840 		cmpl %cr7,%r6,%r7
 2146 01a6 7CE00026 		mfcr %r7
 2147 01aa 74E7E007 		e_rlwinm %r7,%r7,28,0xf0000000
 2148 01ae 7CE80120 		mtcrf 128,%r7
 2149 01b2 7A00002A 		e_bge %cr0,.L97
 2150              		.loc 3 275 0
 2151 01b6 C571     		se_lwz %r7,20(%r1)
 2152 01b8 2A07     		se_cmpi %r7,0
 2153 01ba 7F800020 		e_mcrf %cr7,%cr0
 2154 01be 7CE00026 		mfcr %r7
 2155 01c2 74E7E007 		e_rlwinm %r7,%r7,28,0xf0000000
 2156 01c6 7CE80120 		mtcrf 128,%r7
 2157 01ca 7A020012 		e_bne %cr0,.L97
 2158              		.loc 3 276 0
 2159 01ce 5061004C 		e_lwz %r3,76(%r1)
 2160 01d2 4B24     		se_li %r4,50
 2161 01d4 78000001 		e_bl motor_control
 2162              		.loc 3 277 0
 2163 01d8 4817     		se_li %r7,1
 2164 01da D571     		se_stw %r7,20(%r1)
 2165              	.L97:
 2166              		.loc 3 285 0
 2167 01dc 50E1004C 		e_lwz %r7,76(%r1)
 2168 01e0 2A27     		se_cmpi %r7,2
 2169 01e2 7F800020 		e_mcrf %cr7,%cr0
 2170 01e6 7CE00026 		mfcr %r7
 2171 01ea 74E7E007 		e_rlwinm %r7,%r7,28,0xf0000000
 2172 01ee 7CE80120 		mtcrf 128,%r7
 2173 01f2 7A020076 		e_bne %cr0,.L98
GAS LISTING C:\Users\cerru\AppData\Local\Temp\ccX7DVb9.s 			page 40


 2174              		.loc 3 285 0 is_stmt 0 discriminator 1
 2175 01f6 78000001 		e_bl read_tof
 2176 01fa 0137     		se_mr %r7,%r3
 2177 01fc 0173     		se_mr %r3,%r7
 2178 01fe 78000001 		e_bl __floatsidf
 2179 0202 014D     		se_mr %r29,%r4
 2180 0204 013C     		se_mr %r28,%r3
 2181 0206 70E0E000 		e_lis %r7,frontal@ha
 2182 020a 1CE70000 		e_la %r7,frontal@l(%r7)
 2183 020e C0E7     		se_lwz %r30,0(%r7)
 2184 0210 C1F7     		se_lwz %r31,4(%r7)
 2185 0212 4B27     		se_li %r7,50
 2186 0214 0173     		se_mr %r3,%r7
 2187 0216 78000001 		e_bl __floatsidf
 2188 021a 0240     		se_mtar %r8,%r4
 2189 021c 0137     		se_mr %r7,%r3
 2190 021e 01E3     		se_mr %r3,%r30
 2191 0220 01F4     		se_mr %r4,%r31
 2192 0222 0175     		se_mr %r5,%r7
 2193 0224 0306     		se_mfar %r6,%r8
 2194 0226 78000001 		e_bl __muldf3
 2195 022a 0240     		se_mtar %r8,%r4
 2196 022c 0137     		se_mr %r7,%r3
 2197 022e 0173     		se_mr %r3,%r7
 2198 0230 0304     		se_mfar %r4,%r8
 2199 0232 70A8E072 		e_lis %r5,0x4072
 2200 0236 18A5D1C0 		e_ori %r5,%r5,49152
 2201 023a 4806     		se_li %r6,0
 2202 023c 78000001 		e_bl __adddf3
 2203 0240 0240     		se_mtar %r8,%r4
 2204 0242 0137     		se_mr %r7,%r3
 2205 0244 01C3     		se_mr %r3,%r28
 2206 0246 01D4     		se_mr %r4,%r29
 2207 0248 0175     		se_mr %r5,%r7
 2208 024a 0306     		se_mfar %r6,%r8
 2209 024c 78000001 		e_bl __ltdf2
 2210 0250 0137     		se_mr %r7,%r3
 2211 0252 2A07     		se_cmpi %r7,0
 2212 0254 7F800020 		e_mcrf %cr7,%cr0
 2213 0258 7CE00026 		mfcr %r7
 2214 025c 74E7E007 		e_rlwinm %r7,%r7,28,0xf0000000
 2215 0260 7CE80120 		mtcrf 128,%r7
 2216 0264 7A100020 		e_blt %cr0,.L99
 2217              	.L98:
 2218              		.loc 3 286 0 is_stmt 1 discriminator 3
 2219 0268 C361     		se_lwz %r6,12(%r1)
 2220 026a C671     		se_lwz %r7,24(%r1)
 2221 026c 0476     		se_add %r6,%r7
 2222              		.loc 3 285 0 discriminator 3
 2223 026e C771     		se_lwz %r7,28(%r1)
 2224 0270 7F863840 		cmpl %cr7,%r6,%r7
 2225 0274 7CE00026 		mfcr %r7
 2226 0278 74E7E007 		e_rlwinm %r7,%r7,28,0xf0000000
 2227 027c 7CE80120 		mtcrf 128,%r7
 2228 0280 7A00003E 		e_bge %cr0,.L100
 2229              	.L99:
 2230              		.loc 3 287 0
GAS LISTING C:\Users\cerru\AppData\Local\Temp\ccX7DVb9.s 			page 41


 2231 0284 78000001 		e_bl stop_motor
 2232              		.loc 3 288 0
 2233 0288 4400     		se_nop
 2234              		.loc 3 293 0
 2235 028a 78000001 		e_bl osalThreadGetMilliseconds
 2236 028e 0136     		se_mr %r6,%r3
 2237 0290 C671     		se_lwz %r7,24(%r1)
 2238 0292 0767     		se_subf %r7, %r6
 2239 0294 D871     		se_stw %r7,32(%r1)
 2240              		.loc 3 296 0
 2241 0296 5061004C 		e_lwz %r3,76(%r1)
 2242 029a C841     		se_lwz %r4,32(%r1)
 2243 029c 4815     		se_li %r5,1
 2244 029e 78000001 		e_bl evaluate_car_position
 2245              		.loc 3 299 0
 2246 02a2 C271     		se_lwz %r7,8(%r1)
 2247 02a4 2A17     		se_cmpi %r7,1
 2248 02a6 7F800020 		e_mcrf %cr7,%cr0
 2249 02aa 7CE00026 		mfcr %r7
 2250 02ae 74E7E007 		e_rlwinm %r7,%r7,28,0xf0000000
 2251 02b2 7CE80120 		mtcrf 128,%r7
 2252 02b6 7A020032 		e_bne %cr0,.L103
 2253 02ba 78000008 		e_b .L106
 2254              	.L100:
 2255              		.loc 3 290 0
 2256 02be 79FFFED2 		e_b .L102
 2257              	.L106:
 2258              		.loc 3 300 0
 2259 02c2 5061004C 		e_lwz %r3,76(%r1)
 2260 02c6 78000001 		e_bl opposite
 2261 02ca 5461004C 		e_stw %r3,76(%r1)
 2262              		.loc 3 301 0
 2263 02ce 70E0E000 		e_lis %r7,angular@ha
 2264 02d2 1CE70000 		e_la %r7,angular@l(%r7)
 2265 02d6 5107000C 		e_lwz %r8,12(%r7)
 2266 02da C277     		se_lwz %r7,8(%r7)
 2267 02dc 0173     		se_mr %r3,%r7
 2268 02de 0304     		se_mfar %r4,%r8
 2269 02e0 78000001 		e_bl __fixdfsi
 2270 02e4 0137     		se_mr %r7,%r3
 2271 02e6 D371     		se_stw %r7,12(%r1)
 2272              	.L103:
 2273              		.loc 3 304 0 discriminator 2
 2274 02e8 706001F4 		e_li %r3,500
 2275 02ec 78000001 		e_bl osalThreadDelayMilliseconds
 2276              	.LBE8:
 2277              		.loc 3 266 0 discriminator 2
 2278 02f0 C471     		se_lwz %r7,16(%r1)
 2279 02f2 2007     		se_addi %r7,1
 2280 02f4 D471     		se_stw %r7,16(%r1)
 2281              	.L96:
 2282              		.loc 3 266 0 is_stmt 0 discriminator 1
 2283 02f6 C461     		se_lwz %r6,16(%r1)
 2284 02f8 C271     		se_lwz %r7,8(%r1)
 2285 02fa 7F863800 		cmp %cr7,%r6,%r7
 2286 02fe 7CE00026 		mfcr %r7
 2287 0302 74E7E007 		e_rlwinm %r7,%r7,28,0xf0000000
GAS LISTING C:\Users\cerru\AppData\Local\Temp\ccX7DVb9.s 			page 42


 2288 0306 7CE80120 		mtcrf 128,%r7
 2289 030a 7A01FE72 		e_ble %cr0,.L104
 2290              	.L89:
 2291              	.LBE7:
 2292              		.loc 3 306 0 is_stmt 1
 2293 030e 50010064 		e_lwz %r0,100(%r1)
 2294 0312 0090     		se_mtlr %r0
 2295 0314 1B810850 		e_lmw %r28,80(%r1)
 2296 0318 18218060 		e_addi %r1,%r1,96
 2297              	.LCFI44:
 2298              		.cfi_restore 31
 2299              		.cfi_restore 30
 2300              		.cfi_restore 29
 2301              		.cfi_restore 28
 2302              		.cfi_def_cfa_offset 0
 2303 031c 0004     		se_blr
 2304              		.cfi_endproc
 2305              	.LFE24:
 2306              		.size	move, .-move
 2307              		.section	.rodata
 2308 00a6 0000     		.align 2
 2309              	.LC5:
 2310 00a8 0A0A4576 		.string	"\n\nEvaluate_car_position\n"
 2310      616C7561 
 2310      74655F63 
 2310      61725F70 
 2310      6F736974 
 2311 00c1 000000   		.align 2
 2312              	.LC6:
 2313 00c4 746F7461 		.string	"total_time: %lu\n"
 2313      6C5F7469 
 2313      6D653A20 
 2313      256C750A 
 2313      00
 2314 00d5 000000   		.align 2
 2315              	.LC7:
 2316 00d8 6C617374 		.string	"last.facing_angle: %f\n"
 2316      2E666163 
 2316      696E675F 
 2316      616E676C 
 2316      653A2025 
 2317 00ef 00       		.align 2
 2318              	.LC8:
 2319 00f0 6C617374 		.string	"last.x: %f\n"
 2319      2E783A20 
 2319      25660A00 
 2320              		.align 2
 2321              	.LC9:
 2322 00fc 6C617374 		.string	"last.y: %f\n"
 2322      2E793A20 
 2322      25660A00 
 2323              		.align 2
 2324              	.LC10:
 2325 0108 616E676C 		.string	"angle: %f\n"
 2325      653A2025 
 2325      660A00
 2326 0113 00       		.align 2
GAS LISTING C:\Users\cerru\AppData\Local\Temp\ccX7DVb9.s 			page 43


 2327              	.LC11:
 2328 0114 61637475 		.string	"actual.facing_angle: %f\n"
 2328      616C2E66 
 2328      6163696E 
 2328      675F616E 
 2328      676C653A 
 2329 012d 000000   		.align 2
 2330              	.LC12:
 2331 0130 61637475 		.string	"actual.x: %f\n"
 2331      616C2E78 
 2331      3A202566 
 2331      0A00
 2332 013e 0000     		.align 2
 2333              	.LC13:
 2334 0140 61637475 		.string	"actual.y: %f\n"
 2334      616C2E79 
 2334      3A202566 
 2334      0A00
 2335              		.section	.text.evaluate_car_position,"axv",@progbits
 2336              		.align 1
 2337              		.p2align 4,,15
 2338              		.globl evaluate_car_position
 2339              		.type	evaluate_car_position, @function
 2340              	evaluate_car_position:
 2341              	.LFB25:
 2342              		.loc 3 313 0
 2343              		.cfi_startproc
 2344 0000 182106B0 		e_stwu %r1,-80(%r1)
 2345              	.LCFI45:
 2346              		.cfi_def_cfa_offset 80
 2347 0004 0080     		se_mflr %r0
 2348 0006 54010054 		e_stw %r0,84(%r1)
 2349 000a 1BC10948 		e_stmw %r30,72(%r1)
 2350              		.cfi_offset 65, 4
 2351              		.cfi_offset 30, -8
 2352              		.cfi_offset 31, -4
 2353 000e DE31     		se_stw %r3,56(%r1)
 2354 0010 DF41     		se_stw %r4,60(%r1)
 2355 0012 54A10040 		e_stw %r5,64(%r1)
 2356              		.loc 3 314 0
 2357 0016 50E10040 		e_lwz %r7,64(%r1)
 2358 001a 2A07     		se_cmpi %r7,0
 2359 001c 7F800020 		e_mcrf %cr7,%cr0
 2360 0020 7CE00026 		mfcr %r7
 2361 0024 74E7E007 		e_rlwinm %r7,%r7,28,0xf0000000
 2362 0028 7CE80120 		mtcrf 128,%r7
 2363 002c 7A120078 		e_beq %cr0,.L108
 2364              		.loc 3 315 0
 2365 0030 70E0E000 		e_lis %r7,.LC5@ha
 2366 0034 1C670000 		e_la %r3,.LC5@l(%r7)
 2367 0038 78000001 		e_bl trace
 2368              		.loc 3 316 0
 2369 003c 70E0E000 		e_lis %r7,.LC6@ha
 2370 0040 1C670000 		e_la %r3,.LC6@l(%r7)
 2371 0044 CF41     		se_lwz %r4,60(%r1)
 2372 0046 78000001 		e_bl trace
 2373              		.loc 3 317 0
GAS LISTING C:\Users\cerru\AppData\Local\Temp\ccX7DVb9.s 			page 44


 2374 004a 70E0E000 		e_lis %r7,actual@ha
 2375 004e 1CE70000 		e_la %r7,actual@l(%r7)
 2376 0052 51070014 		e_lwz %r8,20(%r7)
 2377 0056 C477     		se_lwz %r7,16(%r7)
 2378 0058 70C0E000 		e_lis %r6,.LC7@ha
 2379 005c 1C660000 		e_la %r3,.LC7@l(%r6)
 2380 0060 0175     		se_mr %r5,%r7
 2381 0062 0306     		se_mfar %r6,%r8
 2382 0064 78000001 		e_bl trace
 2383              		.loc 3 318 0
 2384 0068 70E0E000 		e_lis %r7,actual@ha
 2385 006c 1CE70000 		e_la %r7,actual@l(%r7)
 2386 0070 51070004 		e_lwz %r8,4(%r7)
 2387 0074 C077     		se_lwz %r7,0(%r7)
 2388 0076 70C0E000 		e_lis %r6,.LC8@ha
 2389 007a 1C660000 		e_la %r3,.LC8@l(%r6)
 2390 007e 0175     		se_mr %r5,%r7
 2391 0080 0306     		se_mfar %r6,%r8
 2392 0082 78000001 		e_bl trace
 2393              		.loc 3 319 0
 2394 0086 70E0E000 		e_lis %r7,actual@ha
 2395 008a 1CE70000 		e_la %r7,actual@l(%r7)
 2396 008e 5107000C 		e_lwz %r8,12(%r7)
 2397 0092 C277     		se_lwz %r7,8(%r7)
 2398 0094 70C0E000 		e_lis %r6,.LC9@ha
 2399 0098 1C660000 		e_la %r3,.LC9@l(%r6)
 2400 009c 0175     		se_mr %r5,%r7
 2401 009e 0306     		se_mfar %r6,%r8
 2402 00a0 78000001 		e_bl trace
 2403              	.L108:
 2404              		.loc 3 322 0
 2405 00a4 70E0E000 		e_lis %r7,frontal@ha
 2406 00a8 1CE70000 		e_la %r7,frontal@l(%r7)
 2407 00ac C037     		se_lwz %r3,0(%r7)
 2408 00ae C147     		se_lwz %r4,4(%r7)
 2409 00b0 C257     		se_lwz %r5,8(%r7)
 2410 00b2 C367     		se_lwz %r6,12(%r7)
 2411 00b4 D631     		se_stw %r3,24(%r1)
 2412 00b6 D741     		se_stw %r4,28(%r1)
 2413 00b8 D851     		se_stw %r5,32(%r1)
 2414 00ba D961     		se_stw %r6,36(%r1)
 2415 00bc C467     		se_lwz %r6,16(%r7)
 2416 00be C577     		se_lwz %r7,20(%r7)
 2417 00c0 DA61     		se_stw %r6,40(%r1)
 2418 00c2 DB71     		se_stw %r7,44(%r1)
 2419              		.loc 3 323 0
 2420 00c4 CF71     		se_lwz %r7,60(%r1)
 2421 00c6 2A07     		se_cmpi %r7,0
 2422 00c8 7F800020 		e_mcrf %cr7,%cr0
 2423 00cc 7CE00026 		mfcr %r7
 2424 00d0 74E7E007 		e_rlwinm %r7,%r7,28,0xf0000000
 2425 00d4 7CE80120 		mtcrf 128,%r7
 2426 00d8 7A1203DE 		e_beq %cr0,.L107
 2427              		.loc 3 324 0
 2428 00dc CE71     		se_lwz %r7,56(%r1)
 2429 00de 2A17     		se_cmpi %r7,1
 2430 00e0 7F800020 		e_mcrf %cr7,%cr0
GAS LISTING C:\Users\cerru\AppData\Local\Temp\ccX7DVb9.s 			page 45


 2431 00e4 7CE00026 		mfcr %r7
 2432 00e8 74E7E007 		e_rlwinm %r7,%r7,28,0xf0000000
 2433 00ec 7CE80120 		mtcrf 128,%r7
 2434 00f0 7A12001C 		e_beq %cr0,.L110
 2435              		.loc 3 324 0 is_stmt 0 discriminator 1
 2436 00f4 CE71     		se_lwz %r7,56(%r1)
 2437 00f6 2A07     		se_cmpi %r7,0
 2438 00f8 7F800020 		e_mcrf %cr7,%cr0
 2439 00fc 7CE00026 		mfcr %r7
 2440 0100 74E7E007 		e_rlwinm %r7,%r7,28,0xf0000000
 2441 0104 7CE80120 		mtcrf 128,%r7
 2442 0108 7A02011A 		e_bne %cr0,.L111
 2443              	.L110:
 2444              	.LBB9:
 2445              		.loc 3 325 0 is_stmt 1
 2446 010c 70E0E000 		e_lis %r7,angular@ha
 2447 0110 1CE70000 		e_la %r7,angular@l(%r7)
 2448 0114 C037     		se_lwz %r3,0(%r7)
 2449 0116 C147     		se_lwz %r4,4(%r7)
 2450 0118 C257     		se_lwz %r5,8(%r7)
 2451 011a C367     		se_lwz %r6,12(%r7)
 2452 011c D631     		se_stw %r3,24(%r1)
 2453 011e D741     		se_stw %r4,28(%r1)
 2454 0120 D851     		se_stw %r5,32(%r1)
 2455 0122 D961     		se_stw %r6,36(%r1)
 2456 0124 C467     		se_lwz %r6,16(%r7)
 2457 0126 C577     		se_lwz %r7,20(%r7)
 2458 0128 DA61     		se_stw %r6,40(%r1)
 2459 012a DB71     		se_stw %r7,44(%r1)
 2460              		.loc 3 326 0
 2461 012c CAE1     		se_lwz %r30,40(%r1)
 2462 012e CBF1     		se_lwz %r31,44(%r1)
 2463 0130 CF31     		se_lwz %r3,60(%r1)
 2464 0132 78000001 		e_bl __floatunsidf
 2465 0136 0146     		se_mr %r6,%r4
 2466 0138 0135     		se_mr %r5,%r3
 2467 013a C871     		se_lwz %r7,32(%r1)
 2468 013c 51010024 		e_lwz %r8,36(%r1)
 2469 0140 0153     		se_mr %r3,%r5
 2470 0142 0164     		se_mr %r4,%r6
 2471 0144 0175     		se_mr %r5,%r7
 2472 0146 0306     		se_mfar %r6,%r8
 2473 0148 78000001 		e_bl __subdf3
 2474 014c 0240     		se_mtar %r8,%r4
 2475 014e 0137     		se_mr %r7,%r3
 2476 0150 0175     		se_mr %r5,%r7
 2477 0152 0306     		se_mfar %r6,%r8
 2478 0154 C671     		se_lwz %r7,24(%r1)
 2479 0156 5101001C 		e_lwz %r8,28(%r1)
 2480 015a 0153     		se_mr %r3,%r5
 2481 015c 0164     		se_mr %r4,%r6
 2482 015e 0175     		se_mr %r5,%r7
 2483 0160 0306     		se_mfar %r6,%r8
 2484 0162 78000001 		e_bl __muldf3
 2485 0166 0240     		se_mtar %r8,%r4
 2486 0168 0137     		se_mr %r7,%r3
 2487 016a 01E3     		se_mr %r3,%r30
GAS LISTING C:\Users\cerru\AppData\Local\Temp\ccX7DVb9.s 			page 46


 2488 016c 01F4     		se_mr %r4,%r31
 2489 016e 0175     		se_mr %r5,%r7
 2490 0170 0306     		se_mfar %r6,%r8
 2491 0172 78000001 		e_bl __adddf3
 2492 0176 0240     		se_mtar %r8,%r4
 2493 0178 0137     		se_mr %r7,%r3
 2494 017a D471     		se_stw %r7,16(%r1)
 2495 017c 55010014 		e_stw %r8,20(%r1)
 2496              		.loc 3 327 0
 2497 0180 50E10040 		e_lwz %r7,64(%r1)
 2498 0184 2A07     		se_cmpi %r7,0
 2499 0186 7F800020 		e_mcrf %cr7,%cr0
 2500 018a 7CE00026 		mfcr %r7
 2501 018e 74E7E007 		e_rlwinm %r7,%r7,28,0xf0000000
 2502 0192 7CE80120 		mtcrf 128,%r7
 2503 0196 7A120014 		e_beq %cr0,.L112
 2504              		.loc 3 328 0
 2505 019a 70E0E000 		e_lis %r7,.LC10@ha
 2506 019e 1C670000 		e_la %r3,.LC10@l(%r7)
 2507 01a2 C451     		se_lwz %r5,16(%r1)
 2508 01a4 C561     		se_lwz %r6,20(%r1)
 2509 01a6 78000001 		e_bl trace
 2510              	.L112:
 2511              		.loc 3 330 0
 2512 01aa CE71     		se_lwz %r7,56(%r1)
 2513 01ac 2A07     		se_cmpi %r7,0
 2514 01ae 7F800020 		e_mcrf %cr7,%cr0
 2515 01b2 7CE00026 		mfcr %r7
 2516 01b6 74E7E007 		e_rlwinm %r7,%r7,28,0xf0000000
 2517 01ba 7CE80120 		mtcrf 128,%r7
 2518 01be 7A020034 		e_bne %cr0,.L113
 2519              		.loc 3 331 0
 2520 01c2 70E0E000 		e_lis %r7,actual@ha
 2521 01c6 1CE70000 		e_la %r7,actual@l(%r7)
 2522 01ca 51070014 		e_lwz %r8,20(%r7)
 2523 01ce C477     		se_lwz %r7,16(%r7)
 2524 01d0 0173     		se_mr %r3,%r7
 2525 01d2 0304     		se_mfar %r4,%r8
 2526 01d4 C451     		se_lwz %r5,16(%r1)
 2527 01d6 C561     		se_lwz %r6,20(%r1)
 2528 01d8 78000001 		e_bl __adddf3
 2529 01dc 0240     		se_mtar %r8,%r4
 2530 01de 0137     		se_mr %r7,%r3
 2531 01e0 70C0E000 		e_lis %r6,actual@ha
 2532 01e4 1CC60000 		e_la %r6,actual@l(%r6)
 2533 01e8 D476     		se_stw %r7,16(%r6)
 2534 01ea 55060014 		e_stw %r8,20(%r6)
 2535              	.LBE9:
 2536              		.loc 3 324 0
 2537 01ee 7800022C 		e_b .L115
 2538              	.L113:
 2539              	.LBB10:
 2540              		.loc 3 333 0
 2541 01f2 70E0E000 		e_lis %r7,actual@ha
 2542 01f6 1CE70000 		e_la %r7,actual@l(%r7)
 2543 01fa 51070014 		e_lwz %r8,20(%r7)
 2544 01fe C477     		se_lwz %r7,16(%r7)
GAS LISTING C:\Users\cerru\AppData\Local\Temp\ccX7DVb9.s 			page 47


 2545 0200 0173     		se_mr %r3,%r7
 2546 0202 0304     		se_mfar %r4,%r8
 2547 0204 C451     		se_lwz %r5,16(%r1)
 2548 0206 C561     		se_lwz %r6,20(%r1)
 2549 0208 78000001 		e_bl __subdf3
 2550 020c 0240     		se_mtar %r8,%r4
 2551 020e 0137     		se_mr %r7,%r3
 2552 0210 70C0E000 		e_lis %r6,actual@ha
 2553 0214 1CC60000 		e_la %r6,actual@l(%r6)
 2554 0218 D476     		se_stw %r7,16(%r6)
 2555 021a 55060014 		e_stw %r8,20(%r6)
 2556              	.LBE10:
 2557              		.loc 3 324 0
 2558 021e 780001FC 		e_b .L115
 2559              	.L111:
 2560              	.LBB11:
 2561              		.loc 3 336 0
 2562 0222 CAE1     		se_lwz %r30,40(%r1)
 2563 0224 CBF1     		se_lwz %r31,44(%r1)
 2564 0226 CF31     		se_lwz %r3,60(%r1)
 2565 0228 78000001 		e_bl __floatunsidf
 2566 022c 0146     		se_mr %r6,%r4
 2567 022e 0135     		se_mr %r5,%r3
 2568 0230 C871     		se_lwz %r7,32(%r1)
 2569 0232 51010024 		e_lwz %r8,36(%r1)
 2570 0236 0153     		se_mr %r3,%r5
 2571 0238 0164     		se_mr %r4,%r6
 2572 023a 0175     		se_mr %r5,%r7
 2573 023c 0306     		se_mfar %r6,%r8
 2574 023e 78000001 		e_bl __subdf3
 2575 0242 0240     		se_mtar %r8,%r4
 2576 0244 0137     		se_mr %r7,%r3
 2577 0246 0175     		se_mr %r5,%r7
 2578 0248 0306     		se_mfar %r6,%r8
 2579 024a C671     		se_lwz %r7,24(%r1)
 2580 024c 5101001C 		e_lwz %r8,28(%r1)
 2581 0250 0153     		se_mr %r3,%r5
 2582 0252 0164     		se_mr %r4,%r6
 2583 0254 0175     		se_mr %r5,%r7
 2584 0256 0306     		se_mfar %r6,%r8
 2585 0258 78000001 		e_bl __muldf3
 2586 025c 0240     		se_mtar %r8,%r4
 2587 025e 0137     		se_mr %r7,%r3
 2588 0260 01E3     		se_mr %r3,%r30
 2589 0262 01F4     		se_mr %r4,%r31
 2590 0264 0175     		se_mr %r5,%r7
 2591 0266 0306     		se_mfar %r6,%r8
 2592 0268 78000001 		e_bl __adddf3
 2593 026c 0240     		se_mtar %r8,%r4
 2594 026e 0137     		se_mr %r7,%r3
 2595 0270 D271     		se_stw %r7,8(%r1)
 2596 0272 5501000C 		e_stw %r8,12(%r1)
 2597              		.loc 3 337 0
 2598 0276 CE71     		se_lwz %r7,56(%r1)
 2599 0278 2A27     		se_cmpi %r7,2
 2600 027a 7F800020 		e_mcrf %cr7,%cr0
 2601 027e 7CE00026 		mfcr %r7
GAS LISTING C:\Users\cerru\AppData\Local\Temp\ccX7DVb9.s 			page 48


 2602 0282 74E7E007 		e_rlwinm %r7,%r7,28,0xf0000000
 2603 0286 7CE80120 		mtcrf 128,%r7
 2604 028a 7A0200CC 		e_bne %cr0,.L116
 2605              		.loc 3 338 0
 2606 028e 70E0E000 		e_lis %r7,actual@ha
 2607 0292 1CE70000 		e_la %r7,actual@l(%r7)
 2608 0296 51070014 		e_lwz %r8,20(%r7)
 2609 029a C477     		se_lwz %r7,16(%r7)
 2610 029c 0173     		se_mr %r3,%r7
 2611 029e 0304     		se_mfar %r4,%r8
 2612 02a0 78000001 		e_bl deg_to_rad
 2613 02a4 0240     		se_mtar %r8,%r4
 2614 02a6 0137     		se_mr %r7,%r3
 2615 02a8 0173     		se_mr %r3,%r7
 2616 02aa 0304     		se_mfar %r4,%r8
 2617 02ac 78000001 		e_bl cos
 2618 02b0 0240     		se_mtar %r8,%r4
 2619 02b2 0137     		se_mr %r7,%r3
 2620 02b4 0173     		se_mr %r3,%r7
 2621 02b6 0304     		se_mfar %r4,%r8
 2622 02b8 C251     		se_lwz %r5,8(%r1)
 2623 02ba C361     		se_lwz %r6,12(%r1)
 2624 02bc 78000001 		e_bl __muldf3
 2625 02c0 0240     		se_mtar %r8,%r4
 2626 02c2 0137     		se_mr %r7,%r3
 2627 02c4 0175     		se_mr %r5,%r7
 2628 02c6 0306     		se_mfar %r6,%r8
 2629 02c8 70E0E000 		e_lis %r7,actual@ha
 2630 02cc 1CE70000 		e_la %r7,actual@l(%r7)
 2631 02d0 51070004 		e_lwz %r8,4(%r7)
 2632 02d4 C077     		se_lwz %r7,0(%r7)
 2633 02d6 0173     		se_mr %r3,%r7
 2634 02d8 0304     		se_mfar %r4,%r8
 2635 02da 78000001 		e_bl __adddf3
 2636 02de 0240     		se_mtar %r8,%r4
 2637 02e0 0137     		se_mr %r7,%r3
 2638 02e2 70C0E000 		e_lis %r6,actual@ha
 2639 02e6 1CC60000 		e_la %r6,actual@l(%r6)
 2640 02ea D076     		se_stw %r7,0(%r6)
 2641 02ec 55060004 		e_stw %r8,4(%r6)
 2642              		.loc 3 339 0
 2643 02f0 70E0E000 		e_lis %r7,actual@ha
 2644 02f4 1CE70000 		e_la %r7,actual@l(%r7)
 2645 02f8 51070014 		e_lwz %r8,20(%r7)
 2646 02fc C477     		se_lwz %r7,16(%r7)
 2647 02fe 0173     		se_mr %r3,%r7
 2648 0300 0304     		se_mfar %r4,%r8
 2649 0302 78000001 		e_bl deg_to_rad
 2650 0306 0240     		se_mtar %r8,%r4
 2651 0308 0137     		se_mr %r7,%r3
 2652 030a 0173     		se_mr %r3,%r7
 2653 030c 0304     		se_mfar %r4,%r8
 2654 030e 78000001 		e_bl sin
 2655 0312 0240     		se_mtar %r8,%r4
 2656 0314 0137     		se_mr %r7,%r3
 2657 0316 0173     		se_mr %r3,%r7
 2658 0318 0304     		se_mfar %r4,%r8
GAS LISTING C:\Users\cerru\AppData\Local\Temp\ccX7DVb9.s 			page 49


 2659 031a C251     		se_lwz %r5,8(%r1)
 2660 031c C361     		se_lwz %r6,12(%r1)
 2661 031e 78000001 		e_bl __muldf3
 2662 0322 0240     		se_mtar %r8,%r4
 2663 0324 0137     		se_mr %r7,%r3
 2664 0326 0175     		se_mr %r5,%r7
 2665 0328 0306     		se_mfar %r6,%r8
 2666 032a 70E0E000 		e_lis %r7,actual@ha
 2667 032e 1CE70000 		e_la %r7,actual@l(%r7)
 2668 0332 5107000C 		e_lwz %r8,12(%r7)
 2669 0336 C277     		se_lwz %r7,8(%r7)
 2670 0338 0173     		se_mr %r3,%r7
 2671 033a 0304     		se_mfar %r4,%r8
 2672 033c 78000001 		e_bl __adddf3
 2673 0340 0240     		se_mtar %r8,%r4
 2674 0342 0137     		se_mr %r7,%r3
 2675 0344 70C0E000 		e_lis %r6,actual@ha
 2676 0348 1CC60000 		e_la %r6,actual@l(%r6)
 2677 034c D276     		se_stw %r7,8(%r6)
 2678 034e 5506000C 		e_stw %r8,12(%r6)
 2679 0352 780000C8 		e_b .L115
 2680              	.L116:
 2681              		.loc 3 341 0
 2682 0356 70E0E000 		e_lis %r7,actual@ha
 2683 035a 1CE70000 		e_la %r7,actual@l(%r7)
 2684 035e 51070014 		e_lwz %r8,20(%r7)
 2685 0362 C477     		se_lwz %r7,16(%r7)
 2686 0364 0173     		se_mr %r3,%r7
 2687 0366 0304     		se_mfar %r4,%r8
 2688 0368 78000001 		e_bl deg_to_rad
 2689 036c 0240     		se_mtar %r8,%r4
 2690 036e 0137     		se_mr %r7,%r3
 2691 0370 0173     		se_mr %r3,%r7
 2692 0372 0304     		se_mfar %r4,%r8
 2693 0374 78000001 		e_bl cos
 2694 0378 0240     		se_mtar %r8,%r4
 2695 037a 0137     		se_mr %r7,%r3
 2696 037c 0173     		se_mr %r3,%r7
 2697 037e 0304     		se_mfar %r4,%r8
 2698 0380 C251     		se_lwz %r5,8(%r1)
 2699 0382 C361     		se_lwz %r6,12(%r1)
 2700 0384 78000001 		e_bl __muldf3
 2701 0388 0240     		se_mtar %r8,%r4
 2702 038a 0137     		se_mr %r7,%r3
 2703 038c 0175     		se_mr %r5,%r7
 2704 038e 0306     		se_mfar %r6,%r8
 2705 0390 70E0E000 		e_lis %r7,actual@ha
 2706 0394 1CE70000 		e_la %r7,actual@l(%r7)
 2707 0398 51070004 		e_lwz %r8,4(%r7)
 2708 039c C077     		se_lwz %r7,0(%r7)
 2709 039e 0173     		se_mr %r3,%r7
 2710 03a0 0304     		se_mfar %r4,%r8
 2711 03a2 78000001 		e_bl __subdf3
 2712 03a6 0240     		se_mtar %r8,%r4
 2713 03a8 0137     		se_mr %r7,%r3
 2714 03aa 70C0E000 		e_lis %r6,actual@ha
 2715 03ae 1CC60000 		e_la %r6,actual@l(%r6)
GAS LISTING C:\Users\cerru\AppData\Local\Temp\ccX7DVb9.s 			page 50


 2716 03b2 D076     		se_stw %r7,0(%r6)
 2717 03b4 55060004 		e_stw %r8,4(%r6)
 2718              		.loc 3 342 0
 2719 03b8 70E0E000 		e_lis %r7,actual@ha
 2720 03bc 1CE70000 		e_la %r7,actual@l(%r7)
 2721 03c0 51070014 		e_lwz %r8,20(%r7)
 2722 03c4 C477     		se_lwz %r7,16(%r7)
 2723 03c6 0173     		se_mr %r3,%r7
 2724 03c8 0304     		se_mfar %r4,%r8
 2725 03ca 78000001 		e_bl deg_to_rad
 2726 03ce 0240     		se_mtar %r8,%r4
 2727 03d0 0137     		se_mr %r7,%r3
 2728 03d2 0173     		se_mr %r3,%r7
 2729 03d4 0304     		se_mfar %r4,%r8
 2730 03d6 78000001 		e_bl sin
 2731 03da 0240     		se_mtar %r8,%r4
 2732 03dc 0137     		se_mr %r7,%r3
 2733 03de 0173     		se_mr %r3,%r7
 2734 03e0 0304     		se_mfar %r4,%r8
 2735 03e2 C251     		se_lwz %r5,8(%r1)
 2736 03e4 C361     		se_lwz %r6,12(%r1)
 2737 03e6 78000001 		e_bl __muldf3
 2738 03ea 0240     		se_mtar %r8,%r4
 2739 03ec 0137     		se_mr %r7,%r3
 2740 03ee 0175     		se_mr %r5,%r7
 2741 03f0 0306     		se_mfar %r6,%r8
 2742 03f2 70E0E000 		e_lis %r7,actual@ha
 2743 03f6 1CE70000 		e_la %r7,actual@l(%r7)
 2744 03fa 5107000C 		e_lwz %r8,12(%r7)
 2745 03fe C277     		se_lwz %r7,8(%r7)
 2746 0400 0173     		se_mr %r3,%r7
 2747 0402 0304     		se_mfar %r4,%r8
 2748 0404 78000001 		e_bl __subdf3
 2749 0408 0240     		se_mtar %r8,%r4
 2750 040a 0137     		se_mr %r7,%r3
 2751 040c 70C0E000 		e_lis %r6,actual@ha
 2752 0410 1CC60000 		e_la %r6,actual@l(%r6)
 2753 0414 D276     		se_stw %r7,8(%r6)
 2754 0416 5506000C 		e_stw %r8,12(%r6)
 2755              	.L115:
 2756              	.LBE11:
 2757              		.loc 3 345 0
 2758 041a 70E0E000 		e_lis %r7,actual@ha
 2759 041e 1CE70000 		e_la %r7,actual@l(%r7)
 2760 0422 51070014 		e_lwz %r8,20(%r7)
 2761 0426 C477     		se_lwz %r7,16(%r7)
 2762 0428 0173     		se_mr %r3,%r7
 2763 042a 0304     		se_mfar %r4,%r8
 2764 042c 78000001 		e_bl format_angle
 2765 0430 0240     		se_mtar %r8,%r4
 2766 0432 0137     		se_mr %r7,%r3
 2767 0434 70C0E000 		e_lis %r6,actual@ha
 2768 0438 1CC60000 		e_la %r6,actual@l(%r6)
 2769 043c D476     		se_stw %r7,16(%r6)
 2770 043e 55060014 		e_stw %r8,20(%r6)
 2771              		.loc 3 346 0
 2772 0442 50E10040 		e_lwz %r7,64(%r1)
GAS LISTING C:\Users\cerru\AppData\Local\Temp\ccX7DVb9.s 			page 51


 2773 0446 2A07     		se_cmpi %r7,0
 2774 0448 7F800020 		e_mcrf %cr7,%cr0
 2775 044c 7CE00026 		mfcr %r7
 2776 0450 74E7E007 		e_rlwinm %r7,%r7,28,0xf0000000
 2777 0454 7CE80120 		mtcrf 128,%r7
 2778 0458 7A12005E 		e_beq %cr0,.L107
 2779              		.loc 3 347 0
 2780 045c 70E0E000 		e_lis %r7,actual@ha
 2781 0460 1CE70000 		e_la %r7,actual@l(%r7)
 2782 0464 51070014 		e_lwz %r8,20(%r7)
 2783 0468 C477     		se_lwz %r7,16(%r7)
 2784 046a 70C0E000 		e_lis %r6,.LC11@ha
 2785 046e 1C660000 		e_la %r3,.LC11@l(%r6)
 2786 0472 0175     		se_mr %r5,%r7
 2787 0474 0306     		se_mfar %r6,%r8
 2788 0476 78000001 		e_bl trace
 2789              		.loc 3 348 0
 2790 047a 70E0E000 		e_lis %r7,actual@ha
 2791 047e 1CE70000 		e_la %r7,actual@l(%r7)
 2792 0482 51070004 		e_lwz %r8,4(%r7)
 2793 0486 C077     		se_lwz %r7,0(%r7)
 2794 0488 70C0E000 		e_lis %r6,.LC12@ha
 2795 048c 1C660000 		e_la %r3,.LC12@l(%r6)
 2796 0490 0175     		se_mr %r5,%r7
 2797 0492 0306     		se_mfar %r6,%r8
 2798 0494 78000001 		e_bl trace
 2799              		.loc 3 349 0
 2800 0498 70E0E000 		e_lis %r7,actual@ha
 2801 049c 1CE70000 		e_la %r7,actual@l(%r7)
 2802 04a0 5107000C 		e_lwz %r8,12(%r7)
 2803 04a4 C277     		se_lwz %r7,8(%r7)
 2804 04a6 70C0E000 		e_lis %r6,.LC13@ha
 2805 04aa 1C660000 		e_la %r3,.LC13@l(%r6)
 2806 04ae 0175     		se_mr %r5,%r7
 2807 04b0 0306     		se_mfar %r6,%r8
 2808 04b2 78000001 		e_bl trace
 2809              	.L107:
 2810              		.loc 3 352 0
 2811 04b6 50010054 		e_lwz %r0,84(%r1)
 2812 04ba 0090     		se_mtlr %r0
 2813 04bc 1BC10848 		e_lmw %r30,72(%r1)
 2814 04c0 18218050 		e_addi %r1,%r1,80
 2815              	.LCFI46:
 2816              		.cfi_restore 31
 2817              		.cfi_restore 30
 2818              		.cfi_def_cfa_offset 0
 2819 04c4 0004     		se_blr
 2820              		.cfi_endproc
 2821              	.LFE25:
 2822              		.size	evaluate_car_position, .-evaluate_car_position
 2823              		.section	.text.reset_car_position,"axv",@progbits
 2824              		.align 1
 2825              		.p2align 4,,15
 2826              		.globl reset_car_position
 2827              		.type	reset_car_position, @function
 2828              	reset_car_position:
 2829              	.LFB26:
GAS LISTING C:\Users\cerru\AppData\Local\Temp\ccX7DVb9.s 			page 52


 2830              		.loc 3 354 0
 2831              		.cfi_startproc
 2832              		.loc 3 355 0
 2833 0000 70E0E000 		e_lis %r7,actual@ha
 2834 0004 1CC70000 		e_la %r6,actual@l(%r7)
 2835 0008 4807     		se_li %r7,0
 2836 000a 71000000 		e_li %r8,0
 2837 000e D476     		se_stw %r7,16(%r6)
 2838 0010 55060014 		e_stw %r8,20(%r6)
 2839              		.loc 3 356 0
 2840 0014 70E0E000 		e_lis %r7,actual@ha
 2841 0018 1CC70000 		e_la %r6,actual@l(%r7)
 2842 001c 4807     		se_li %r7,0
 2843 001e 71000000 		e_li %r8,0
 2844 0022 D076     		se_stw %r7,0(%r6)
 2845 0024 55060004 		e_stw %r8,4(%r6)
 2846              		.loc 3 357 0
 2847 0028 70E0E000 		e_lis %r7,actual@ha
 2848 002c 1CC70000 		e_la %r6,actual@l(%r7)
 2849 0030 4807     		se_li %r7,0
 2850 0032 71000000 		e_li %r8,0
 2851 0036 D276     		se_stw %r7,8(%r6)
 2852 0038 5506000C 		e_stw %r8,12(%r6)
 2853              		.loc 3 358 0
 2854 003c 0004     		se_blr
 2855              		.cfi_endproc
 2856              	.LFE26:
 2857              		.size	reset_car_position, .-reset_car_position
 2858              		.section	.text.trace,"axv",@progbits
 2859              		.align 1
 2860              		.p2align 4,,15
 2861              		.globl trace
 2862              		.type	trace, @function
 2863              	trace:
 2864              	.LFB27:
 2865              		.loc 3 369 0
 2866              		.cfi_startproc
 2867 0000 701F7F60 		e_li %r0,-160
 2868 0004 7C21016E 		stwux %r1,%r1,%r0
 2869              	.LCFI47:
 2870              		.cfi_def_cfa_offset 160
 2871 0008 0080     		se_mflr %r0
 2872 000a 540100A4 		e_stw %r0,164(%r1)
 2873              		.cfi_offset 65, 4
 2874 000e 5481007C 		e_stw %r4,124(%r1)
 2875 0012 54A10080 		e_stw %r5,128(%r1)
 2876 0016 54C10084 		e_stw %r6,132(%r1)
 2877 001a 54E10088 		e_stw %r7,136(%r1)
 2878 001e 5501008C 		e_stw %r8,140(%r1)
 2879 0022 55210090 		e_stw %r9,144(%r1)
 2880 0026 55410094 		e_stw %r10,148(%r1)
 2881 002a 54610098 		e_stw %r3,152(%r1)
 2882              		.loc 3 372 0
 2883 002e 4817     		se_li %r7,1
 2884 0030 34E1006C 		e_stb %r7,108(%r1)
 2885 0034 4807     		se_li %r7,0
 2886 0036 34E1006D 		e_stb %r7,109(%r1)
GAS LISTING C:\Users\cerru\AppData\Local\Temp\ccX7DVb9.s 			page 53


 2887 003a 18E180A8 		e_addi %r7,%r1,168
 2888 003e 54E10070 		e_stw %r7,112(%r1)
 2889 0042 18E18078 		e_addi %r7,%r1,120
 2890 0046 54E10074 		e_stw %r7,116(%r1)
 2891              		.loc 3 373 0
 2892 004a 18E1806C 		e_addi %r7,%r1,108
 2893 004e 18C18008 		e_addi %r6,%r1,8
 2894 0052 0163     		se_mr %r3,%r6
 2895 0054 4E44     		se_li %r4,100
 2896 0056 50A10098 		e_lwz %r5,152(%r1)
 2897 005a 0176     		se_mr %r6,%r7
 2898 005c 78000001 		e_bl vsnprintf
 2899              		.loc 3 375 0
 2900 0060 18E18008 		e_addi %r7,%r1,8
 2901 0064 0173     		se_mr %r3,%r7
 2902 0066 78000001 		e_bl sendMessage
 2903              		.loc 3 376 0
 2904 006a 500100A4 		e_lwz %r0,164(%r1)
 2905 006e 0090     		se_mtlr %r0
 2906 0070 182180A0 		e_addi %r1,%r1,160
 2907              	.LCFI48:
 2908              		.cfi_def_cfa_offset 0
 2909 0074 0004     		se_blr
 2910              		.cfi_endproc
 2911              	.LFE27:
 2912              		.size	trace, .-trace
 2913              		.section	.text.movement_control,"axv",@progbits
 2914              		.align 1
 2915              		.p2align 4,,15
 2916              		.globl movement_control
 2917              		.type	movement_control, @function
 2918              	movement_control:
 2919              	.LFB28:
 2920              		.loc 3 382 0
 2921              		.cfi_startproc
 2922 0000 182106E0 		e_stwu %r1,-32(%r1)
 2923              	.LCFI49:
 2924              		.cfi_def_cfa_offset 32
 2925 0004 0080     		se_mflr %r0
 2926 0006 D901     		se_stw %r0,36(%r1)
 2927              		.cfi_offset 65, 4
 2928 0008 D631     		se_stw %r3,24(%r1)
 2929              	.L124:
 2930              	.LBB12:
 2931              		.loc 3 385 0
 2932 000a 4807     		se_li %r7,0
 2933 000c D371     		se_stw %r7,12(%r1)
 2934              		.loc 3 386 0
 2935 000e C631     		se_lwz %r3,24(%r1)
 2936 0010 C341     		se_lwz %r4,12(%r1)
 2937 0012 78000001 		e_bl rileva_ostacoli
 2938 0016 D331     		se_stw %r3,12(%r1)
 2939              		.loc 3 389 0
 2940 0018 70E0E000 		e_lis %r7,passaggi@ha
 2941 001c 1C670000 		e_la %r3,passaggi@l(%r7)
 2942 0020 C341     		se_lwz %r4,12(%r1)
 2943 0022 78000001 		e_bl selectionSort
GAS LISTING C:\Users\cerru\AppData\Local\Temp\ccX7DVb9.s 			page 54


 2944              	.LBB13:
 2945              		.loc 3 391 0
 2946 0026 4807     		se_li %r7,0
 2947 0028 D271     		se_stw %r7,8(%r1)
 2948 002a 78000044 		e_b .L120
 2949              	.L123:
 2950              	.LBB14:
 2951              		.loc 3 392 0
 2952 002e 70E0E000 		e_lis %r7,passaggi@ha
 2953 0032 1CC70000 		e_la %r6,passaggi@l(%r7)
 2954 0036 C271     		se_lwz %r7,8(%r1)
 2955 0038 6C27     		se_slwi %r7, 2
 2956 003a 7CE63A14 		add %r7,%r6,%r7
 2957 003e C077     		se_lwz %r7,0(%r7)
 2958 0040 D471     		se_stw %r7,16(%r1)
 2959              		.loc 3 393 0
 2960 0042 C331     		se_lwz %r3,12(%r1)
 2961 0044 C441     		se_lwz %r4,16(%r1)
 2962 0046 78000001 		e_bl controlla_passaggio
 2963 004a D531     		se_stw %r3,20(%r1)
 2964              		.loc 3 394 0
 2965 004c C571     		se_lwz %r7,20(%r1)
 2966 004e 2A07     		se_cmpi %r7,0
 2967 0050 7F800020 		e_mcrf %cr7,%cr0
 2968 0054 7CE00026 		mfcr %r7
 2969 0058 74E7E007 		e_rlwinm %r7,%r7,28,0xf0000000
 2970 005c 7CE80120 		mtcrf 128,%r7
 2971 0060 7A120008 		e_beq %cr0,.L121
 2972              		.loc 3 395 0
 2973 0064 78000022 		e_b .L122
 2974              	.L121:
 2975              	.LBE14:
 2976              		.loc 3 391 0 discriminator 2
 2977 0068 C271     		se_lwz %r7,8(%r1)
 2978 006a 2007     		se_addi %r7,1
 2979 006c D271     		se_stw %r7,8(%r1)
 2980              	.L120:
 2981              		.loc 3 391 0 is_stmt 0 discriminator 1
 2982 006e C261     		se_lwz %r6,8(%r1)
 2983 0070 C371     		se_lwz %r7,12(%r1)
 2984 0072 7F863800 		cmp %cr7,%r6,%r7
 2985 0076 7CE00026 		mfcr %r7
 2986 007a 74E7E007 		e_rlwinm %r7,%r7,28,0xf0000000
 2987 007e 7CE80120 		mtcrf 128,%r7
 2988 0082 7A10FFAC 		e_blt %cr0,.L123
 2989              	.L122:
 2990              	.LBE13:
 2991              	.LBE12:
 2992              		.loc 3 398 0 is_stmt 1 discriminator 1
 2993 0086 79FFFF84 		e_b .L124
 2994              		.cfi_endproc
 2995              	.LFE28:
 2996              		.size	movement_control, .-movement_control
 2997              		.globl __eqdf2
 2998              		.globl __nedf2
 2999              		.section	.text.rileva_ostacoli,"axv",@progbits
 3000              		.align 1
GAS LISTING C:\Users\cerru\AppData\Local\Temp\ccX7DVb9.s 			page 55


 3001              		.p2align 4,,15
 3002              		.globl rileva_ostacoli
 3003              		.type	rileva_ostacoli, @function
 3004              	rileva_ostacoli:
 3005              	.LFB29:
 3006              		.loc 3 406 0
 3007              		.cfi_startproc
 3008 0000 701F7F60 		e_li %r0,-160
 3009 0004 7C21016E 		stwux %r1,%r1,%r0
 3010              	.LCFI50:
 3011              		.cfi_def_cfa_offset 160
 3012 0008 0080     		se_mflr %r0
 3013 000a 540100A4 		e_stw %r0,164(%r1)
 3014 000e 57810090 		e_stw %r28,144(%r1)
 3015 0012 57A10094 		e_stw %r29,148(%r1)
 3016 0016 57C10098 		e_stw %r30,152(%r1)
 3017 001a 57E1009C 		e_stw %r31,156(%r1)
 3018              		.cfi_offset 65, 4
 3019              		.cfi_offset 28, -16
 3020              		.cfi_offset 29, -12
 3021              		.cfi_offset 30, -8
 3022              		.cfi_offset 31, -4
 3023 001e 54610048 		e_stw %r3,72(%r1)
 3024 0022 5481004C 		e_stw %r4,76(%r1)
 3025              		.loc 3 408 0
 3026 0026 4807     		se_li %r7,0
 3027 0028 54E1004C 		e_stw %r7,76(%r1)
 3028              		.loc 3 409 0
 3029 002c 4803     		se_li %r3,0
 3030 002e 4804     		se_li %r4,0
 3031 0030 4815     		se_li %r5,1
 3032 0032 78000001 		e_bl evaluate_car_position
 3033              		.loc 3 410 0
 3034 0036 78000001 		e_bl osalThreadGetMilliseconds
 3035 003a D631     		se_stw %r3,24(%r1)
 3036              		.loc 3 411 0
 3037 003c 4847     		se_li %r7,4
 3038 003e DC71     		se_stw %r7,48(%r1)
 3039 0040 4807     		se_li %r7,0
 3040 0042 D271     		se_stw %r7,8(%r1)
 3041 0044 4817     		se_li %r7,1
 3042 0046 D371     		se_stw %r7,12(%r1)
 3043 0048 4807     		se_li %r7,0
 3044 004a DD71     		se_stw %r7,52(%r1)
 3045              		.loc 3 412 0
 3046 004c 4807     		se_li %r7,0
 3047 004e 71000000 		e_li %r8,0
 3048 0052 DE71     		se_stw %r7,56(%r1)
 3049 0054 5501003C 		e_stw %r8,60(%r1)
 3050 0058 4807     		se_li %r7,0
 3051 005a 71000000 		e_li %r8,0
 3052 005e 54E10040 		e_stw %r7,64(%r1)
 3053 0062 55010044 		e_stw %r8,68(%r1)
 3054              		.loc 3 415 0
 3055 0066 70E0E000 		e_lis %r7,angular@ha
 3056 006a 1CE70000 		e_la %r7,angular@l(%r7)
 3057 006e C2E7     		se_lwz %r30,8(%r7)
GAS LISTING C:\Users\cerru\AppData\Local\Temp\ccX7DVb9.s 			page 56


 3058 0070 C3F7     		se_lwz %r31,12(%r7)
 3059 0072 70E0E000 		e_lis %r7,angular@ha
 3060 0076 1CE70000 		e_la %r7,angular@l(%r7)
 3061 007a 51070004 		e_lwz %r8,4(%r7)
 3062 007e C077     		se_lwz %r7,0(%r7)
 3063 0080 7068E076 		e_lis %r3,0x4076
 3064 0084 6503     		se_bseti %r3,16
 3065 0086 4804     		se_li %r4,0
 3066 0088 0175     		se_mr %r5,%r7
 3067 008a 0306     		se_mfar %r6,%r8
 3068 008c 78000001 		e_bl __divdf3
 3069 0090 0240     		se_mtar %r8,%r4
 3070 0092 0137     		se_mr %r7,%r3
 3071 0094 01E3     		se_mr %r3,%r30
 3072 0096 01F4     		se_mr %r4,%r31
 3073 0098 0175     		se_mr %r5,%r7
 3074 009a 0306     		se_mfar %r6,%r8
 3075 009c 78000001 		e_bl __adddf3
 3076 00a0 0240     		se_mtar %r8,%r4
 3077 00a2 0137     		se_mr %r7,%r3
 3078 00a4 0173     		se_mr %r3,%r7
 3079 00a6 0304     		se_mfar %r4,%r8
 3080 00a8 78000001 		e_bl __fixdfsi
 3081 00ac 0137     		se_mr %r7,%r3
 3082 00ae D771     		se_stw %r7,28(%r1)
 3083              		.loc 3 418 0
 3084 00b0 70E0E000 		e_lis %r7,rotazione_inversa@ha
 3085 00b4 50E70000 		e_lwz %r7,rotazione_inversa@l(%r7)
 3086 00b8 2A17     		se_cmpi %r7,1
 3087 00ba 7F800020 		e_mcrf %cr7,%cr0
 3088 00be 7CE00026 		mfcr %r7
 3089 00c2 74E7E007 		e_rlwinm %r7,%r7,28,0xf0000000
 3090 00c6 7CE80120 		mtcrf 128,%r7
 3091 00ca 7A020010 		e_bne %cr0,.L126
 3092              		.loc 3 419 0
 3093 00ce 4803     		se_li %r3,0
 3094 00d0 48F4     		se_li %r4,15
 3095 00d2 78000001 		e_bl motor_control
 3096 00d6 7800000C 		e_b .L127
 3097              	.L126:
 3098              		.loc 3 421 0
 3099 00da 4813     		se_li %r3,1
 3100 00dc 48F4     		se_li %r4,15
 3101 00de 78000001 		e_bl motor_control
 3102              	.L127:
 3103              		.loc 3 423 0
 3104 00e2 70E0E000 		e_lis %r7,actual@ha
 3105 00e6 1CE70000 		e_la %r7,actual@l(%r7)
 3106 00ea 51070014 		e_lwz %r8,20(%r7)
 3107 00ee C477     		se_lwz %r7,16(%r7)
 3108 00f0 D871     		se_stw %r7,32(%r1)
 3109 00f2 55010024 		e_stw %r8,36(%r1)
 3110              	.L141:
 3111              	.LBB15:
 3112              		.loc 3 427 0
 3113 00f6 78000001 		e_bl osalThreadGetMilliseconds
 3114 00fa DA31     		se_stw %r3,40(%r1)
GAS LISTING C:\Users\cerru\AppData\Local\Temp\ccX7DVb9.s 			page 57


 3115              		.loc 3 430 0
 3116 00fc 70E000C8 		e_li %r7,200
 3117 0100 0176     		se_mr %r6,%r7
 3118 0102 C671     		se_lwz %r7,24(%r1)
 3119 0104 0476     		se_add %r6,%r7
 3120 0106 CA71     		se_lwz %r7,40(%r1)
 3121 0108 7F863840 		cmpl %cr7,%r6,%r7
 3122 010c 7CE00026 		mfcr %r7
 3123 0110 74E7E007 		e_rlwinm %r7,%r7,28,0xf0000000
 3124 0114 7CE80120 		mtcrf 128,%r7
 3125 0118 7A000052 		e_bge %cr0,.L128
 3126              		.loc 3 430 0 is_stmt 0 discriminator 1
 3127 011c C271     		se_lwz %r7,8(%r1)
 3128 011e 2A07     		se_cmpi %r7,0
 3129 0120 7F800020 		e_mcrf %cr7,%cr0
 3130 0124 7CE00026 		mfcr %r7
 3131 0128 74E7E007 		e_rlwinm %r7,%r7,28,0xf0000000
 3132 012c 7CE80120 		mtcrf 128,%r7
 3133 0130 7A02003A 		e_bne %cr0,.L128
 3134              		.loc 3 431 0 is_stmt 1
 3135 0134 70E0E000 		e_lis %r7,rotazione_inversa@ha
 3136 0138 50E70000 		e_lwz %r7,rotazione_inversa@l(%r7)
 3137 013c 2A17     		se_cmpi %r7,1
 3138 013e 7F800020 		e_mcrf %cr7,%cr0
 3139 0142 7CE00026 		mfcr %r7
 3140 0146 74E7E007 		e_rlwinm %r7,%r7,28,0xf0000000
 3141 014a 7CE80120 		mtcrf 128,%r7
 3142 014e 7A020010 		e_bne %cr0,.L129
 3143              		.loc 3 432 0
 3144 0152 4803     		se_li %r3,0
 3145 0154 4B24     		se_li %r4,50
 3146 0156 78000001 		e_bl motor_control
 3147 015a 7800000C 		e_b .L130
 3148              	.L129:
 3149              		.loc 3 434 0
 3150 015e 4813     		se_li %r3,1
 3151 0160 4B24     		se_li %r4,50
 3152 0162 78000001 		e_bl motor_control
 3153              	.L130:
 3154              		.loc 3 436 0
 3155 0166 4817     		se_li %r7,1
 3156 0168 D271     		se_stw %r7,8(%r1)
 3157              	.L128:
 3158              		.loc 3 440 0
 3159 016a C761     		se_lwz %r6,28(%r1)
 3160 016c C671     		se_lwz %r7,24(%r1)
 3161 016e 0476     		se_add %r6,%r7
 3162 0170 CA71     		se_lwz %r7,40(%r1)
 3163 0172 7F863840 		cmpl %cr7,%r6,%r7
 3164 0176 7CE00026 		mfcr %r7
 3165 017a 74E7E007 		e_rlwinm %r7,%r7,28,0xf0000000
 3166 017e 7CE80120 		mtcrf 128,%r7
 3167 0182 7A000026 		e_bge %cr0,.L131
 3168              		.loc 3 441 0
 3169 0186 78000001 		e_bl stop_motor
 3170              		.loc 3 442 0
 3171 018a 4400     		se_nop
GAS LISTING C:\Users\cerru\AppData\Local\Temp\ccX7DVb9.s 			page 58


 3172              	.LBE15:
 3173              		.loc 3 483 0
 3174 018c C371     		se_lwz %r7,12(%r1)
 3175 018e 2A07     		se_cmpi %r7,0
 3176 0190 7F800020 		e_mcrf %cr7,%cr0
 3177 0194 7CE00026 		mfcr %r7
 3178 0198 74E7E007 		e_rlwinm %r7,%r7,28,0xf0000000
 3179 019c 7CE80120 		mtcrf 128,%r7
 3180 01a0 7A120404 		e_beq %cr0,.L142
 3181 01a4 780003E2 		e_b .L152
 3182              	.L131:
 3183              	.LBB17:
 3184              		.loc 3 446 0
 3185 01a8 CA31     		se_lwz %r3,40(%r1)
 3186 01aa 78000001 		e_bl __floatunsidf
 3187 01ae 014F     		se_mr %r31,%r4
 3188 01b0 013E     		se_mr %r30,%r3
 3189 01b2 C631     		se_lwz %r3,24(%r1)
 3190 01b4 78000001 		e_bl __floatunsidf
 3191 01b8 0146     		se_mr %r6,%r4
 3192 01ba 0135     		se_mr %r5,%r3
 3193 01bc 70E0E000 		e_lis %r7,angular@ha
 3194 01c0 1CE70000 		e_la %r7,angular@l(%r7)
 3195 01c4 5107000C 		e_lwz %r8,12(%r7)
 3196 01c8 C277     		se_lwz %r7,8(%r7)
 3197 01ca 0153     		se_mr %r3,%r5
 3198 01cc 0164     		se_mr %r4,%r6
 3199 01ce 0175     		se_mr %r5,%r7
 3200 01d0 0306     		se_mfar %r6,%r8
 3201 01d2 78000001 		e_bl __adddf3
 3202 01d6 0240     		se_mtar %r8,%r4
 3203 01d8 0137     		se_mr %r7,%r3
 3204 01da 01E3     		se_mr %r3,%r30
 3205 01dc 01F4     		se_mr %r4,%r31
 3206 01de 0175     		se_mr %r5,%r7
 3207 01e0 0306     		se_mfar %r6,%r8
 3208 01e2 78000001 		e_bl __gtdf2
 3209 01e6 0137     		se_mr %r7,%r3
 3210 01e8 2A07     		se_cmpi %r7,0
 3211 01ea 7F800020 		e_mcrf %cr7,%cr0
 3212 01ee 7CE00026 		mfcr %r7
 3213 01f2 74E7E007 		e_rlwinm %r7,%r7,28,0xf0000000
 3214 01f6 7CE80120 		mtcrf 128,%r7
 3215 01fa 7A010388 		e_ble %cr0,.L133
 3216              	.LBB16:
 3217              		.loc 3 448 0
 3218 01fe 70E0E000 		e_lis %r7,actual@ha
 3219 0202 1CE70000 		e_la %r7,actual@l(%r7)
 3220 0206 51070014 		e_lwz %r8,20(%r7)
 3221 020a C477     		se_lwz %r7,16(%r7)
 3222 020c 0173     		se_mr %r3,%r7
 3223 020e 0304     		se_mfar %r4,%r8
 3224 0210 C851     		se_lwz %r5,32(%r1)
 3225 0212 C961     		se_lwz %r6,36(%r1)
 3226 0214 78000001 		e_bl __eqdf2
 3227 0218 0137     		se_mr %r7,%r3
 3228 021a 2A07     		se_cmpi %r7,0
GAS LISTING C:\Users\cerru\AppData\Local\Temp\ccX7DVb9.s 			page 59


 3229 021c 7F800020 		e_mcrf %cr7,%cr0
 3230 0220 7CE00026 		mfcr %r7
 3231 0224 74E7E007 		e_rlwinm %r7,%r7,28,0xf0000000
 3232 0228 7CE80120 		mtcrf 128,%r7
 3233 022c 7A020098 		e_bne %cr0,.L135
 3234              		.loc 3 451 0
 3235 0230 78000001 		e_bl osalThreadGetMilliseconds
 3236 0234 0137     		se_mr %r7,%r3
 3237 0236 0173     		se_mr %r3,%r7
 3238 0238 78000001 		e_bl __floatunsidf
 3239 023c 014F     		se_mr %r31,%r4
 3240 023e 013E     		se_mr %r30,%r3
 3241 0240 C631     		se_lwz %r3,24(%r1)
 3242 0242 78000001 		e_bl __floatunsidf
 3243 0246 0146     		se_mr %r6,%r4
 3244 0248 0135     		se_mr %r5,%r3
 3245 024a 70E0E000 		e_lis %r7,angular@ha
 3246 024e 1CE70000 		e_la %r7,angular@l(%r7)
 3247 0252 5107000C 		e_lwz %r8,12(%r7)
 3248 0256 C277     		se_lwz %r7,8(%r7)
 3249 0258 0153     		se_mr %r3,%r5
 3250 025a 0164     		se_mr %r4,%r6
 3251 025c 0175     		se_mr %r5,%r7
 3252 025e 0306     		se_mfar %r6,%r8
 3253 0260 78000001 		e_bl __adddf3
 3254 0264 0240     		se_mtar %r8,%r4
 3255 0266 0137     		se_mr %r7,%r3
 3256 0268 01E3     		se_mr %r3,%r30
 3257 026a 01F4     		se_mr %r4,%r31
 3258 026c 0175     		se_mr %r5,%r7
 3259 026e 0306     		se_mfar %r6,%r8
 3260 0270 78000001 		e_bl __subdf3
 3261 0274 0240     		se_mtar %r8,%r4
 3262 0276 0137     		se_mr %r7,%r3
 3263 0278 0175     		se_mr %r5,%r7
 3264 027a 0306     		se_mfar %r6,%r8
 3265              		.loc 3 452 0
 3266 027c 70E0E000 		e_lis %r7,angular@ha
 3267 0280 1CE70000 		e_la %r7,angular@l(%r7)
 3268 0284 51070004 		e_lwz %r8,4(%r7)
 3269 0288 C077     		se_lwz %r7,0(%r7)
 3270              		.loc 3 451 0
 3271 028a 0153     		se_mr %r3,%r5
 3272 028c 0164     		se_mr %r4,%r6
 3273 028e 0175     		se_mr %r5,%r7
 3274 0290 0306     		se_mfar %r6,%r8
 3275 0292 78000001 		e_bl __muldf3
 3276 0296 0240     		se_mtar %r8,%r4
 3277 0298 0137     		se_mr %r7,%r3
 3278              		.loc 3 450 0
 3279 029a C831     		se_lwz %r3,32(%r1)
 3280 029c C941     		se_lwz %r4,36(%r1)
 3281 029e 0175     		se_mr %r5,%r7
 3282 02a0 0306     		se_mfar %r6,%r8
 3283 02a2 78000001 		e_bl __subdf3
 3284 02a6 0240     		se_mtar %r8,%r4
 3285 02a8 0137     		se_mr %r7,%r3
GAS LISTING C:\Users\cerru\AppData\Local\Temp\ccX7DVb9.s 			page 60


 3286 02aa 0173     		se_mr %r3,%r7
 3287 02ac 0304     		se_mfar %r4,%r8
 3288 02ae 78000001 		e_bl format_angle
 3289 02b2 0240     		se_mtar %r8,%r4
 3290 02b4 0137     		se_mr %r7,%r3
 3291 02b6 70C0E000 		e_lis %r6,actual@ha
 3292 02ba 1CC60000 		e_la %r6,actual@l(%r6)
 3293 02be D476     		se_stw %r7,16(%r6)
 3294 02c0 55060014 		e_stw %r8,20(%r6)
 3295              	.L135:
 3296              		.loc 3 455 0
 3297 02c4 50610048 		e_lwz %r3,72(%r1)
 3298 02c8 78000001 		e_bl read_approximated_tof
 3299 02cc DB31     		se_stw %r3,44(%r1)
 3300              		.loc 3 459 0
 3301 02ce 78000001 		e_bl osalThreadGetMilliseconds
 3302 02d2 0137     		se_mr %r7,%r3
 3303 02d4 0173     		se_mr %r3,%r7
 3304 02d6 78000001 		e_bl __floatunsidf
 3305 02da 014F     		se_mr %r31,%r4
 3306 02dc 013E     		se_mr %r30,%r3
 3307 02de C631     		se_lwz %r3,24(%r1)
 3308 02e0 78000001 		e_bl __floatunsidf
 3309 02e4 0146     		se_mr %r6,%r4
 3310 02e6 0135     		se_mr %r5,%r3
 3311 02e8 70E0E000 		e_lis %r7,angular@ha
 3312 02ec 1CE70000 		e_la %r7,angular@l(%r7)
 3313 02f0 5107000C 		e_lwz %r8,12(%r7)
 3314 02f4 C277     		se_lwz %r7,8(%r7)
 3315 02f6 0153     		se_mr %r3,%r5
 3316 02f8 0164     		se_mr %r4,%r6
 3317 02fa 0175     		se_mr %r5,%r7
 3318 02fc 0306     		se_mfar %r6,%r8
 3319 02fe 78000001 		e_bl __adddf3
 3320 0302 0240     		se_mtar %r8,%r4
 3321 0304 0137     		se_mr %r7,%r3
 3322 0306 01E3     		se_mr %r3,%r30
 3323 0308 01F4     		se_mr %r4,%r31
 3324 030a 0175     		se_mr %r5,%r7
 3325 030c 0306     		se_mfar %r6,%r8
 3326 030e 78000001 		e_bl __subdf3
 3327 0312 0240     		se_mtar %r8,%r4
 3328 0314 0137     		se_mr %r7,%r3
 3329 0316 0175     		se_mr %r5,%r7
 3330 0318 0306     		se_mfar %r6,%r8
 3331              		.loc 3 460 0
 3332 031a 70E0E000 		e_lis %r7,angular@ha
 3333 031e 1CE70000 		e_la %r7,angular@l(%r7)
 3334 0322 51070004 		e_lwz %r8,4(%r7)
 3335 0326 C077     		se_lwz %r7,0(%r7)
 3336              		.loc 3 459 0
 3337 0328 0153     		se_mr %r3,%r5
 3338 032a 0164     		se_mr %r4,%r6
 3339 032c 0175     		se_mr %r5,%r7
 3340 032e 0306     		se_mfar %r6,%r8
 3341 0330 78000001 		e_bl __muldf3
 3342 0334 0240     		se_mtar %r8,%r4
GAS LISTING C:\Users\cerru\AppData\Local\Temp\ccX7DVb9.s 			page 61


 3343 0336 0137     		se_mr %r7,%r3
 3344              		.loc 3 458 0
 3345 0338 C831     		se_lwz %r3,32(%r1)
 3346 033a C941     		se_lwz %r4,36(%r1)
 3347 033c 0175     		se_mr %r5,%r7
 3348 033e 0306     		se_mfar %r6,%r8
 3349 0340 78000001 		e_bl __subdf3
 3350 0344 0240     		se_mtar %r8,%r4
 3351 0346 0137     		se_mr %r7,%r3
 3352 0348 0173     		se_mr %r3,%r7
 3353 034a 0304     		se_mfar %r4,%r8
 3354 034c 78000001 		e_bl format_angle
 3355 0350 0240     		se_mtar %r8,%r4
 3356 0352 0137     		se_mr %r7,%r3
 3357 0354 70C0E000 		e_lis %r6,actual@ha
 3358 0358 1CC60000 		e_la %r6,actual@l(%r6)
 3359 035c D476     		se_stw %r7,16(%r6)
 3360 035e 55060014 		e_stw %r8,20(%r6)
 3361              		.loc 3 463 0
 3362 0362 CB31     		se_lwz %r3,44(%r1)
 3363 0364 78000001 		e_bl __floatsidf
 3364 0368 014D     		se_mr %r29,%r4
 3365 036a 013C     		se_mr %r28,%r3
 3366 036c 70E0E000 		e_lis %r7,actual@ha
 3367 0370 1CE70000 		e_la %r7,actual@l(%r7)
 3368 0374 51070014 		e_lwz %r8,20(%r7)
 3369 0378 C477     		se_lwz %r7,16(%r7)
 3370 037a 0173     		se_mr %r3,%r7
 3371 037c 0304     		se_mfar %r4,%r8
 3372 037e 78000001 		e_bl format_angle
 3373 0382 0146     		se_mr %r6,%r4
 3374 0384 0135     		se_mr %r5,%r3
 3375 0386 18E18030 		e_addi %r7,%r1,48
 3376 038a 1BC18038 		e_addi %r30,%r1,56
 3377 038e 1BE18040 		e_addi %r31,%r1,64
 3378 0392 18018034 		e_addi %r0,%r1,52
 3379 0396 01C3     		se_mr %r3,%r28
 3380 0398 01D4     		se_mr %r4,%r29
 3381 039a 02E0     		se_mtar %r8,%r30
 3382 039c 02F1     		se_mtar %r9,%r31
 3383 039e 0202     		se_mtar %r10,%r0
 3384 03a0 78000001 		e_bl memorizza_ostacoli
 3385 03a4 0137     		se_mr %r7,%r3
 3386 03a6 2A07     		se_cmpi %r7,0
 3387 03a8 7F800020 		e_mcrf %cr7,%cr0
 3388 03ac 7CE00026 		mfcr %r7
 3389 03b0 74E7E007 		e_rlwinm %r7,%r7,28,0xf0000000
 3390 03b4 7CE80120 		mtcrf 128,%r7
 3391 03b8 7A1201CA 		e_beq %cr0,.L133
 3392              		.loc 3 466 0
 3393 03bc C371     		se_lwz %r7,12(%r1)
 3394 03be 2A17     		se_cmpi %r7,1
 3395 03c0 7F800020 		e_mcrf %cr7,%cr0
 3396 03c4 7CE00026 		mfcr %r7
 3397 03c8 74E7E007 		e_rlwinm %r7,%r7,28,0xf0000000
 3398 03cc 7CE80120 		mtcrf 128,%r7
 3399 03d0 7A02003C 		e_bne %cr0,.L137
GAS LISTING C:\Users\cerru\AppData\Local\Temp\ccX7DVb9.s 			page 62


 3400              		.loc 3 467 0
 3401 03d4 4807     		se_li %r7,0
 3402 03d6 D371     		se_stw %r7,12(%r1)
 3403              		.loc 3 468 0
 3404 03d8 70E0E000 		e_lis %r7,first_obstacle@ha
 3405 03dc 1CE70000 		e_la %r7,first_obstacle@l(%r7)
 3406 03e0 70C0E000 		e_lis %r6,last_obstacle@ha
 3407 03e4 1CC60000 		e_la %r6,last_obstacle@l(%r6)
 3408 03e8 C006     		se_lwz %r0,0(%r6)
 3409 03ea C136     		se_lwz %r3,4(%r6)
 3410 03ec C246     		se_lwz %r4,8(%r6)
 3411 03ee C356     		se_lwz %r5,12(%r6)
 3412 03f0 D007     		se_stw %r0,0(%r7)
 3413 03f2 D137     		se_stw %r3,4(%r7)
 3414 03f4 D247     		se_stw %r4,8(%r7)
 3415 03f6 D357     		se_stw %r5,12(%r7)
 3416 03f8 C436     		se_lwz %r3,16(%r6)
 3417 03fa C546     		se_lwz %r4,20(%r6)
 3418 03fc C656     		se_lwz %r5,24(%r6)
 3419 03fe C766     		se_lwz %r6,28(%r6)
 3420 0400 D437     		se_stw %r3,16(%r7)
 3421 0402 D547     		se_stw %r4,20(%r7)
 3422 0404 D657     		se_stw %r5,24(%r7)
 3423 0406 D767     		se_stw %r6,28(%r7)
 3424 0408 7800017A 		e_b .L133
 3425              	.L137:
 3426              		.loc 3 471 0
 3427 040c 70E0E000 		e_lis %r7,rotazione_inversa@ha
 3428 0410 50E70000 		e_lwz %r7,rotazione_inversa@l(%r7)
 3429 0414 2A17     		se_cmpi %r7,1
 3430 0416 7F800020 		e_mcrf %cr7,%cr0
 3431 041a 7CE00026 		mfcr %r7
 3432 041e 74E7E007 		e_rlwinm %r7,%r7,28,0xf0000000
 3433 0422 7CE80120 		mtcrf 128,%r7
 3434 0426 7A02008C 		e_bne %cr0,.L138
 3435              		.loc 3 472 0
 3436 042a 70E0E000 		e_lis %r7,last_obstacle@ha
 3437 042e 1CE70000 		e_la %r7,last_obstacle@l(%r7)
 3438 0432 C037     		se_lwz %r3,0(%r7)
 3439 0434 C147     		se_lwz %r4,4(%r7)
 3440 0436 C257     		se_lwz %r5,8(%r7)
 3441 0438 C367     		se_lwz %r6,12(%r7)
 3442 043a 54610050 		e_stw %r3,80(%r1)
 3443 043e 54810054 		e_stw %r4,84(%r1)
 3444 0442 54A10058 		e_stw %r5,88(%r1)
 3445 0446 54C1005C 		e_stw %r6,92(%r1)
 3446 044a C447     		se_lwz %r4,16(%r7)
 3447 044c C557     		se_lwz %r5,20(%r7)
 3448 044e C667     		se_lwz %r6,24(%r7)
 3449 0450 C777     		se_lwz %r7,28(%r7)
 3450 0452 54810060 		e_stw %r4,96(%r1)
 3451 0456 54A10064 		e_stw %r5,100(%r1)
 3452 045a 54C10068 		e_stw %r6,104(%r1)
 3453 045e 54E1006C 		e_stw %r7,108(%r1)
 3454 0462 70E0E000 		e_lis %r7,precedent_obstacle@ha
 3455 0466 1CE70000 		e_la %r7,precedent_obstacle@l(%r7)
 3456 046a C037     		se_lwz %r3,0(%r7)
GAS LISTING C:\Users\cerru\AppData\Local\Temp\ccX7DVb9.s 			page 63


 3457 046c C147     		se_lwz %r4,4(%r7)
 3458 046e C257     		se_lwz %r5,8(%r7)
 3459 0470 C367     		se_lwz %r6,12(%r7)
 3460 0472 54610070 		e_stw %r3,112(%r1)
 3461 0476 54810074 		e_stw %r4,116(%r1)
 3462 047a 54A10078 		e_stw %r5,120(%r1)
 3463 047e 54C1007C 		e_stw %r6,124(%r1)
 3464 0482 C447     		se_lwz %r4,16(%r7)
 3465 0484 C557     		se_lwz %r5,20(%r7)
 3466 0486 C667     		se_lwz %r6,24(%r7)
 3467 0488 C777     		se_lwz %r7,28(%r7)
 3468 048a 54810080 		e_stw %r4,128(%r1)
 3469 048e 54A10084 		e_stw %r5,132(%r1)
 3470 0492 54C10088 		e_stw %r6,136(%r1)
 3471 0496 54E1008C 		e_stw %r7,140(%r1)
 3472 049a 18C18050 		e_addi %r6,%r1,80
 3473 049e 18E18070 		e_addi %r7,%r1,112
 3474 04a2 0163     		se_mr %r3,%r6
 3475 04a4 0174     		se_mr %r4,%r7
 3476 04a6 78000001 		e_bl corridoio_tra_due_punti
 3477 04aa D431     		se_stw %r3,16(%r1)
 3478 04ac D541     		se_stw %r4,20(%r1)
 3479 04ae 78000088 		e_b .L139
 3480              	.L138:
 3481              		.loc 3 474 0
 3482 04b2 70E0E000 		e_lis %r7,precedent_obstacle@ha
 3483 04b6 1CE70000 		e_la %r7,precedent_obstacle@l(%r7)
 3484 04ba C037     		se_lwz %r3,0(%r7)
 3485 04bc C147     		se_lwz %r4,4(%r7)
 3486 04be C257     		se_lwz %r5,8(%r7)
 3487 04c0 C367     		se_lwz %r6,12(%r7)
 3488 04c2 54610050 		e_stw %r3,80(%r1)
 3489 04c6 54810054 		e_stw %r4,84(%r1)
 3490 04ca 54A10058 		e_stw %r5,88(%r1)
 3491 04ce 54C1005C 		e_stw %r6,92(%r1)
 3492 04d2 C447     		se_lwz %r4,16(%r7)
 3493 04d4 C557     		se_lwz %r5,20(%r7)
 3494 04d6 C667     		se_lwz %r6,24(%r7)
 3495 04d8 C777     		se_lwz %r7,28(%r7)
 3496 04da 54810060 		e_stw %r4,96(%r1)
 3497 04de 54A10064 		e_stw %r5,100(%r1)
 3498 04e2 54C10068 		e_stw %r6,104(%r1)
 3499 04e6 54E1006C 		e_stw %r7,108(%r1)
 3500 04ea 70E0E000 		e_lis %r7,last_obstacle@ha
 3501 04ee 1CE70000 		e_la %r7,last_obstacle@l(%r7)
 3502 04f2 C037     		se_lwz %r3,0(%r7)
 3503 04f4 C147     		se_lwz %r4,4(%r7)
 3504 04f6 C257     		se_lwz %r5,8(%r7)
 3505 04f8 C367     		se_lwz %r6,12(%r7)
 3506 04fa 54610070 		e_stw %r3,112(%r1)
 3507 04fe 54810074 		e_stw %r4,116(%r1)
 3508 0502 54A10078 		e_stw %r5,120(%r1)
 3509 0506 54C1007C 		e_stw %r6,124(%r1)
 3510 050a C447     		se_lwz %r4,16(%r7)
 3511 050c C557     		se_lwz %r5,20(%r7)
 3512 050e C667     		se_lwz %r6,24(%r7)
 3513 0510 C777     		se_lwz %r7,28(%r7)
GAS LISTING C:\Users\cerru\AppData\Local\Temp\ccX7DVb9.s 			page 64


 3514 0512 54810080 		e_stw %r4,128(%r1)
 3515 0516 54A10084 		e_stw %r5,132(%r1)
 3516 051a 54C10088 		e_stw %r6,136(%r1)
 3517 051e 54E1008C 		e_stw %r7,140(%r1)
 3518 0522 18C18050 		e_addi %r6,%r1,80
 3519 0526 18E18070 		e_addi %r7,%r1,112
 3520 052a 0163     		se_mr %r3,%r6
 3521 052c 0174     		se_mr %r4,%r7
 3522 052e 78000001 		e_bl corridoio_tra_due_punti
 3523 0532 D431     		se_stw %r3,16(%r1)
 3524 0534 D541     		se_stw %r4,20(%r1)
 3525              	.L139:
 3526              		.loc 3 476 0
 3527 0536 C431     		se_lwz %r3,16(%r1)
 3528 0538 C541     		se_lwz %r4,20(%r1)
 3529 053a 4805     		se_li %r5,0
 3530 053c 4806     		se_li %r6,0
 3531 053e 78000001 		e_bl __nedf2
 3532 0542 0137     		se_mr %r7,%r3
 3533 0544 2A07     		se_cmpi %r7,0
 3534 0546 7F800020 		e_mcrf %cr7,%cr0
 3535 054a 7CE00026 		mfcr %r7
 3536 054e 74E7E007 		e_rlwinm %r7,%r7,28,0xf0000000
 3537 0552 7CE80120 		mtcrf 128,%r7
 3538 0556 7A12002C 		e_beq %cr0,.L133
 3539              		.loc 3 477 0
 3540 055a 53E1004C 		e_lwz %r31,76(%r1)
 3541 055e 18FF8001 		e_addi %r7,%r31,1
 3542 0562 54E1004C 		e_stw %r7,76(%r1)
 3543 0566 C431     		se_lwz %r3,16(%r1)
 3544 0568 C541     		se_lwz %r4,20(%r1)
 3545 056a 78000001 		e_bl __fixdfsi
 3546 056e 0135     		se_mr %r5,%r3
 3547 0570 70E0E000 		e_lis %r7,passaggi@ha
 3548 0574 1CC70000 		e_la %r6,passaggi@l(%r7)
 3549 0578 7FE71070 		e_slwi %r7,%r31,2
 3550 057c 7CE63A14 		add %r7,%r6,%r7
 3551 0580 D057     		se_stw %r5,0(%r7)
 3552              	.L133:
 3553              	.LBE16:
 3554              	.LBE17:
 3555              		.loc 3 482 0
 3556 0582 79FFFB74 		e_b .L141
 3557              	.L152:
 3558              		.loc 3 484 0
 3559 0586 50E1004C 		e_lwz %r7,76(%r1)
 3560 058a 18C78001 		e_addi %r6,%r7,1
 3561 058e 54C1004C 		e_stw %r6,76(%r1)
 3562 0592 70C0E000 		e_lis %r6,passaggi@ha
 3563 0596 1CC60000 		e_la %r6,passaggi@l(%r6)
 3564 059a 6C27     		se_slwi %r7, 2
 3565 059c 7CE63A14 		add %r7,%r6,%r7
 3566 05a0 4806     		se_li %r6,0
 3567 05a2 D067     		se_stw %r6,0(%r7)
 3568              	.L142:
 3569              		.loc 3 487 0
 3570 05a4 70E0E000 		e_lis %r7,rotazione_inversa@ha
GAS LISTING C:\Users\cerru\AppData\Local\Temp\ccX7DVb9.s 			page 65


 3571 05a8 50E70000 		e_lwz %r7,rotazione_inversa@l(%r7)
 3572 05ac 2A17     		se_cmpi %r7,1
 3573 05ae 7F800020 		e_mcrf %cr7,%cr0
 3574 05b2 7CE00026 		mfcr %r7
 3575 05b6 74E7E007 		e_rlwinm %r7,%r7,28,0xf0000000
 3576 05ba 7CE80120 		mtcrf 128,%r7
 3577 05be 7A02008C 		e_bne %cr0,.L143
 3578              		.loc 3 488 0
 3579 05c2 70E0E000 		e_lis %r7,first_obstacle@ha
 3580 05c6 1CE70000 		e_la %r7,first_obstacle@l(%r7)
 3581 05ca C037     		se_lwz %r3,0(%r7)
 3582 05cc C147     		se_lwz %r4,4(%r7)
 3583 05ce C257     		se_lwz %r5,8(%r7)
 3584 05d0 C367     		se_lwz %r6,12(%r7)
 3585 05d2 54610050 		e_stw %r3,80(%r1)
 3586 05d6 54810054 		e_stw %r4,84(%r1)
 3587 05da 54A10058 		e_stw %r5,88(%r1)
 3588 05de 54C1005C 		e_stw %r6,92(%r1)
 3589 05e2 C447     		se_lwz %r4,16(%r7)
 3590 05e4 C557     		se_lwz %r5,20(%r7)
 3591 05e6 C667     		se_lwz %r6,24(%r7)
 3592 05e8 C777     		se_lwz %r7,28(%r7)
 3593 05ea 54810060 		e_stw %r4,96(%r1)
 3594 05ee 54A10064 		e_stw %r5,100(%r1)
 3595 05f2 54C10068 		e_stw %r6,104(%r1)
 3596 05f6 54E1006C 		e_stw %r7,108(%r1)
 3597 05fa 70E0E000 		e_lis %r7,last_obstacle@ha
 3598 05fe 1CE70000 		e_la %r7,last_obstacle@l(%r7)
 3599 0602 C037     		se_lwz %r3,0(%r7)
 3600 0604 C147     		se_lwz %r4,4(%r7)
 3601 0606 C257     		se_lwz %r5,8(%r7)
 3602 0608 C367     		se_lwz %r6,12(%r7)
 3603 060a 54610070 		e_stw %r3,112(%r1)
 3604 060e 54810074 		e_stw %r4,116(%r1)
 3605 0612 54A10078 		e_stw %r5,120(%r1)
 3606 0616 54C1007C 		e_stw %r6,124(%r1)
 3607 061a C447     		se_lwz %r4,16(%r7)
 3608 061c C557     		se_lwz %r5,20(%r7)
 3609 061e C667     		se_lwz %r6,24(%r7)
 3610 0620 C777     		se_lwz %r7,28(%r7)
 3611 0622 54810080 		e_stw %r4,128(%r1)
 3612 0626 54A10084 		e_stw %r5,132(%r1)
 3613 062a 54C10088 		e_stw %r6,136(%r1)
 3614 062e 54E1008C 		e_stw %r7,140(%r1)
 3615 0632 18C18050 		e_addi %r6,%r1,80
 3616 0636 18E18070 		e_addi %r7,%r1,112
 3617 063a 0163     		se_mr %r3,%r6
 3618 063c 0174     		se_mr %r4,%r7
 3619 063e 78000001 		e_bl corridoio_tra_due_punti
 3620 0642 D431     		se_stw %r3,16(%r1)
 3621 0644 D541     		se_stw %r4,20(%r1)
 3622 0646 78000088 		e_b .L144
 3623              	.L143:
 3624              		.loc 3 490 0
 3625 064a 70E0E000 		e_lis %r7,last_obstacle@ha
 3626 064e 1CE70000 		e_la %r7,last_obstacle@l(%r7)
 3627 0652 C037     		se_lwz %r3,0(%r7)
GAS LISTING C:\Users\cerru\AppData\Local\Temp\ccX7DVb9.s 			page 66


 3628 0654 C147     		se_lwz %r4,4(%r7)
 3629 0656 C257     		se_lwz %r5,8(%r7)
 3630 0658 C367     		se_lwz %r6,12(%r7)
 3631 065a 54610050 		e_stw %r3,80(%r1)
 3632 065e 54810054 		e_stw %r4,84(%r1)
 3633 0662 54A10058 		e_stw %r5,88(%r1)
 3634 0666 54C1005C 		e_stw %r6,92(%r1)
 3635 066a C447     		se_lwz %r4,16(%r7)
 3636 066c C557     		se_lwz %r5,20(%r7)
 3637 066e C667     		se_lwz %r6,24(%r7)
 3638 0670 C777     		se_lwz %r7,28(%r7)
 3639 0672 54810060 		e_stw %r4,96(%r1)
 3640 0676 54A10064 		e_stw %r5,100(%r1)
 3641 067a 54C10068 		e_stw %r6,104(%r1)
 3642 067e 54E1006C 		e_stw %r7,108(%r1)
 3643 0682 70E0E000 		e_lis %r7,first_obstacle@ha
 3644 0686 1CE70000 		e_la %r7,first_obstacle@l(%r7)
 3645 068a C037     		se_lwz %r3,0(%r7)
 3646 068c C147     		se_lwz %r4,4(%r7)
 3647 068e C257     		se_lwz %r5,8(%r7)
 3648 0690 C367     		se_lwz %r6,12(%r7)
 3649 0692 54610070 		e_stw %r3,112(%r1)
 3650 0696 54810074 		e_stw %r4,116(%r1)
 3651 069a 54A10078 		e_stw %r5,120(%r1)
 3652 069e 54C1007C 		e_stw %r6,124(%r1)
 3653 06a2 C447     		se_lwz %r4,16(%r7)
 3654 06a4 C557     		se_lwz %r5,20(%r7)
 3655 06a6 C667     		se_lwz %r6,24(%r7)
 3656 06a8 C777     		se_lwz %r7,28(%r7)
 3657 06aa 54810080 		e_stw %r4,128(%r1)
 3658 06ae 54A10084 		e_stw %r5,132(%r1)
 3659 06b2 54C10088 		e_stw %r6,136(%r1)
 3660 06b6 54E1008C 		e_stw %r7,140(%r1)
 3661 06ba 18C18050 		e_addi %r6,%r1,80
 3662 06be 18E18070 		e_addi %r7,%r1,112
 3663 06c2 0163     		se_mr %r3,%r6
 3664 06c4 0174     		se_mr %r4,%r7
 3665 06c6 78000001 		e_bl corridoio_tra_due_punti
 3666 06ca D431     		se_stw %r3,16(%r1)
 3667 06cc D541     		se_stw %r4,20(%r1)
 3668              	.L144:
 3669              		.loc 3 492 0
 3670 06ce C431     		se_lwz %r3,16(%r1)
 3671 06d0 C541     		se_lwz %r4,20(%r1)
 3672 06d2 4805     		se_li %r5,0
 3673 06d4 4806     		se_li %r6,0
 3674 06d6 78000001 		e_bl __nedf2
 3675 06da 0137     		se_mr %r7,%r3
 3676 06dc 2A07     		se_cmpi %r7,0
 3677 06de 7F800020 		e_mcrf %cr7,%cr0
 3678 06e2 7CE00026 		mfcr %r7
 3679 06e6 74E7E007 		e_rlwinm %r7,%r7,28,0xf0000000
 3680 06ea 7CE80120 		mtcrf 128,%r7
 3681 06ee 7A12002C 		e_beq %cr0,.L145
 3682              		.loc 3 493 0
 3683 06f2 53E1004C 		e_lwz %r31,76(%r1)
 3684 06f6 18FF8001 		e_addi %r7,%r31,1
GAS LISTING C:\Users\cerru\AppData\Local\Temp\ccX7DVb9.s 			page 67


 3685 06fa 54E1004C 		e_stw %r7,76(%r1)
 3686 06fe C431     		se_lwz %r3,16(%r1)
 3687 0700 C541     		se_lwz %r4,20(%r1)
 3688 0702 78000001 		e_bl __fixdfsi
 3689 0706 0135     		se_mr %r5,%r3
 3690 0708 70E0E000 		e_lis %r7,passaggi@ha
 3691 070c 1CC70000 		e_la %r6,passaggi@l(%r7)
 3692 0710 7FE71070 		e_slwi %r7,%r31,2
 3693 0714 7CE63A14 		add %r7,%r6,%r7
 3694 0718 D057     		se_stw %r5,0(%r7)
 3695              	.L145:
 3696              		.loc 3 495 0
 3697 071a 70E0E000 		e_lis %r7,rotazione_inversa@ha
 3698 071e 50E70000 		e_lwz %r7,rotazione_inversa@l(%r7)
 3699 0722 2A07     		se_cmpi %r7,0
 3700 0724 7F800020 		e_mcrf %cr7,%cr0
 3701 0728 4807     		se_li %r7,0
 3702 072a 4816     		se_li %r6,1
 3703 072c 7CE63F9E 		isel %r7,%r6,%r7,30
 3704 0730 00C7     		se_extzb %r7
 3705 0732 0176     		se_mr %r6,%r7
 3706 0734 70E0E000 		e_lis %r7,rotazione_inversa@ha
 3707 0738 54C70000 		e_stw %r6,rotazione_inversa@l(%r7)
 3708              		.loc 3 496 0
 3709 073c 50E1004C 		e_lwz %r7,76(%r1)
 3710              		.loc 3 497 0
 3711 0740 0173     		se_mr %r3,%r7
 3712 0742 500100A4 		e_lwz %r0,164(%r1)
 3713 0746 0090     		se_mtlr %r0
 3714 0748 53810090 		e_lwz %r28,144(%r1)
 3715 074c 53A10094 		e_lwz %r29,148(%r1)
 3716 0750 53C10098 		e_lwz %r30,152(%r1)
 3717 0754 53E1009C 		e_lwz %r31,156(%r1)
 3718 0758 182180A0 		e_addi %r1,%r1,160
 3719              	.LCFI51:
 3720              		.cfi_restore 31
 3721              		.cfi_restore 30
 3722              		.cfi_restore 29
 3723              		.cfi_restore 28
 3724              		.cfi_def_cfa_offset 0
 3725 075c 0004     		se_blr
 3726              		.cfi_endproc
 3727              	.LFE29:
 3728              		.size	rileva_ostacoli, .-rileva_ostacoli
 3729              		.section	.text.memorizza_ostacoli,"axv",@progbits
 3730              		.align 1
 3731              		.p2align 4,,15
 3732              		.globl memorizza_ostacoli
 3733              		.type	memorizza_ostacoli, @function
 3734              	memorizza_ostacoli:
 3735              	.LFB30:
 3736              		.loc 3 509 0
 3737              		.cfi_startproc
 3738 0000 18210698 		e_stwu %r1,-104(%r1)
 3739              	.LCFI52:
 3740              		.cfi_def_cfa_offset 104
 3741 0004 0080     		se_mflr %r0
GAS LISTING C:\Users\cerru\AppData\Local\Temp\ccX7DVb9.s 			page 68


 3742 0006 5401006C 		e_stw %r0,108(%r1)
 3743 000a 1BC10960 		e_stmw %r30,96(%r1)
 3744              		.cfi_offset 65, 4
 3745              		.cfi_offset 30, -8
 3746              		.cfi_offset 31, -4
 3747 000e D631     		se_stw %r3,24(%r1)
 3748 0010 D741     		se_stw %r4,28(%r1)
 3749 0012 D851     		se_stw %r5,32(%r1)
 3750 0014 D961     		se_stw %r6,36(%r1)
 3751 0016 DA71     		se_stw %r7,40(%r1)
 3752 0018 5501002C 		e_stw %r8,44(%r1)
 3753 001c 55210030 		e_stw %r9,48(%r1)
 3754 0020 55410034 		e_stw %r10,52(%r1)
 3755              		.loc 3 511 0
 3756 0024 C631     		se_lwz %r3,24(%r1)
 3757 0026 C741     		se_lwz %r4,28(%r1)
 3758 0028 70A8E079 		e_lis %r5,0x4079
 3759 002c 4806     		se_li %r6,0
 3760 002e 78000001 		e_bl __divdf3
 3761 0032 0240     		se_mtar %r8,%r4
 3762 0034 0137     		se_mr %r7,%r3
 3763 0036 0173     		se_mr %r3,%r7
 3764 0038 0304     		se_mfar %r4,%r8
 3765 003a 78000001 		e_bl ceil
 3766 003e 0240     		se_mtar %r8,%r4
 3767 0040 0137     		se_mr %r7,%r3
 3768 0042 0173     		se_mr %r3,%r7
 3769 0044 0304     		se_mfar %r4,%r8
 3770 0046 78000001 		e_bl __fixdfsi
 3771 004a 0137     		se_mr %r7,%r3
 3772 004c 18E784FF 		e_addi %r7,%r7,-1
 3773 0050 D371     		se_stw %r7,12(%r1)
 3774              		.loc 3 512 0
 3775 0052 CA71     		se_lwz %r7,40(%r1)
 3776 0054 C067     		se_lwz %r6,0(%r7)
 3777 0056 C371     		se_lwz %r7,12(%r1)
 3778 0058 7F863800 		cmp %cr7,%r6,%r7
 3779 005c 7CE00026 		mfcr %r7
 3780 0060 74E7E007 		e_rlwinm %r7,%r7,28,0xf0000000
 3781 0064 7CE80120 		mtcrf 128,%r7
 3782 0068 7A020072 		e_bne %cr0,.L154
 3783              		.loc 3 512 0 is_stmt 0 discriminator 1
 3784 006c C371     		se_lwz %r7,12(%r1)
 3785 006e 2A47     		se_cmpi %r7,4
 3786 0070 7F800020 		e_mcrf %cr7,%cr0
 3787 0074 7CE00026 		mfcr %r7
 3788 0078 74E7E007 		e_rlwinm %r7,%r7,28,0xf0000000
 3789 007c 7CE80120 		mtcrf 128,%r7
 3790 0080 7A120052 		e_beq %cr0,.L155
 3791              		.loc 3 513 0 is_stmt 1
 3792 0084 CB71     		se_lwz %r7,44(%r1)
 3793 0086 51070004 		e_lwz %r8,4(%r7)
 3794 008a C077     		se_lwz %r7,0(%r7)
 3795 008c C831     		se_lwz %r3,32(%r1)
 3796 008e C941     		se_lwz %r4,36(%r1)
 3797 0090 0175     		se_mr %r5,%r7
 3798 0092 0306     		se_mfar %r6,%r8
GAS LISTING C:\Users\cerru\AppData\Local\Temp\ccX7DVb9.s 			page 69


 3799 0094 78000001 		e_bl __subdf3
 3800 0098 0240     		se_mtar %r8,%r4
 3801 009a 0137     		se_mr %r7,%r3
 3802 009c 18FEC77F 		e_andi %r30,%r7,2147483647
 3803 00a0 030F     		se_mfar %r31,%r8
 3804 00a2 01E3     		se_mr %r3,%r30
 3805 00a4 01F4     		se_mr %r4,%r31
 3806 00a6 78000001 		e_bl __fixdfsi
 3807 00aa 0135     		se_mr %r5,%r3
 3808 00ac 70E0E000 		e_lis %r7,m@ha
 3809 00b0 1CC70000 		e_la %r6,m@l(%r7)
 3810 00b4 C371     		se_lwz %r7,12(%r1)
 3811 00b6 6C27     		se_slwi %r7, 2
 3812 00b8 7CE63A14 		add %r7,%r6,%r7
 3813 00bc C077     		se_lwz %r7,0(%r7)
 3814 00be 7F853800 		cmp %cr7,%r5,%r7
 3815 00c2 7CE00026 		mfcr %r7
 3816 00c6 74E7E007 		e_rlwinm %r7,%r7,28,0xf0000000
 3817 00ca 7CE80120 		mtcrf 128,%r7
 3818 00ce 7A00000C 		e_bge %cr0,.L154
 3819              	.L155:
 3820              		.loc 3 514 0
 3821 00d2 4807     		se_li %r7,0
 3822 00d4 D271     		se_stw %r7,8(%r1)
 3823 00d6 780000EC 		e_b .L156
 3824              	.L154:
 3825              		.loc 3 516 0
 3826 00da CA71     		se_lwz %r7,40(%r1)
 3827 00dc C077     		se_lwz %r7,0(%r7)
 3828 00de 2A47     		se_cmpi %r7,4
 3829 00e0 7F800020 		e_mcrf %cr7,%cr0
 3830 00e4 7CE00026 		mfcr %r7
 3831 00e8 74E7E007 		e_rlwinm %r7,%r7,28,0xf0000000
 3832 00ec 7CE80120 		mtcrf 128,%r7
 3833 00f0 7A12003E 		e_beq %cr0,.L157
 3834              		.loc 3 516 0 is_stmt 0 discriminator 1
 3835 00f4 C371     		se_lwz %r7,12(%r1)
 3836 00f6 2A47     		se_cmpi %r7,4
 3837 00f8 7F800020 		e_mcrf %cr7,%cr0
 3838 00fc 7CE00026 		mfcr %r7
 3839 0100 74E7E007 		e_rlwinm %r7,%r7,28,0xf0000000
 3840 0104 7CE80120 		mtcrf 128,%r7
 3841 0108 7A020026 		e_bne %cr0,.L157
 3842              		.loc 3 517 0 is_stmt 1
 3843 010c CD71     		se_lwz %r7,52(%r1)
 3844 010e C077     		se_lwz %r7,0(%r7)
 3845 0110 0173     		se_mr %r3,%r7
 3846 0112 78000001 		e_bl __floatsidf
 3847 0116 0240     		se_mtar %r8,%r4
 3848 0118 0137     		se_mr %r7,%r3
 3849 011a D671     		se_stw %r7,24(%r1)
 3850 011c 5501001C 		e_stw %r8,28(%r1)
 3851              		.loc 3 518 0
 3852 0120 CC71     		se_lwz %r7,48(%r1)
 3853 0122 51070004 		e_lwz %r8,4(%r7)
 3854 0126 C077     		se_lwz %r7,0(%r7)
 3855 0128 D871     		se_stw %r7,32(%r1)
GAS LISTING C:\Users\cerru\AppData\Local\Temp\ccX7DVb9.s 			page 70


 3856 012a 55010024 		e_stw %r8,36(%r1)
 3857              	.L157:
 3858              		.loc 3 520 0
 3859 012e 70E0E000 		e_lis %r7,precedent_obstacle@ha
 3860 0132 1CE70000 		e_la %r7,precedent_obstacle@l(%r7)
 3861 0136 70C0E000 		e_lis %r6,last_obstacle@ha
 3862 013a 1CC60000 		e_la %r6,last_obstacle@l(%r6)
 3863 013e C006     		se_lwz %r0,0(%r6)
 3864 0140 C136     		se_lwz %r3,4(%r6)
 3865 0142 C246     		se_lwz %r4,8(%r6)
 3866 0144 C356     		se_lwz %r5,12(%r6)
 3867 0146 D007     		se_stw %r0,0(%r7)
 3868 0148 D137     		se_stw %r3,4(%r7)
 3869 014a D247     		se_stw %r4,8(%r7)
 3870 014c D357     		se_stw %r5,12(%r7)
 3871 014e C436     		se_lwz %r3,16(%r6)
 3872 0150 C546     		se_lwz %r4,20(%r6)
 3873 0152 C656     		se_lwz %r5,24(%r6)
 3874 0154 C766     		se_lwz %r6,28(%r6)
 3875 0156 D437     		se_stw %r3,16(%r7)
 3876 0158 D547     		se_stw %r4,20(%r7)
 3877 015a D657     		se_stw %r5,24(%r7)
 3878 015c D767     		se_stw %r6,28(%r7)
 3879              		.loc 3 521 0
 3880 015e 70E0E000 		e_lis %r7,last_obstacle@ha
 3881 0162 1FE70000 		e_la %r31,last_obstacle@l(%r7)
 3882 0166 18E18040 		e_addi %r7,%r1,64
 3883 016a 0173     		se_mr %r3,%r7
 3884 016c C651     		se_lwz %r5,24(%r1)
 3885 016e C761     		se_lwz %r6,28(%r1)
 3886 0170 C871     		se_lwz %r7,32(%r1)
 3887 0172 51010024 		e_lwz %r8,36(%r1)
 3888 0176 78000001 		e_bl punto_rispetto_al_centro
 3889 017a 50810040 		e_lwz %r4,64(%r1)
 3890 017e 50A10044 		e_lwz %r5,68(%r1)
 3891 0182 50C10048 		e_lwz %r6,72(%r1)
 3892 0186 50E1004C 		e_lwz %r7,76(%r1)
 3893 018a D04F     		se_stw %r4,0(%r31)
 3894 018c D15F     		se_stw %r5,4(%r31)
 3895 018e D26F     		se_stw %r6,8(%r31)
 3896 0190 D37F     		se_stw %r7,12(%r31)
 3897 0192 50810050 		e_lwz %r4,80(%r1)
 3898 0196 50A10054 		e_lwz %r5,84(%r1)
 3899 019a 50C10058 		e_lwz %r6,88(%r1)
 3900 019e 50E1005C 		e_lwz %r7,92(%r1)
 3901 01a2 D44F     		se_stw %r4,16(%r31)
 3902 01a4 D55F     		se_stw %r5,20(%r31)
 3903 01a6 D66F     		se_stw %r6,24(%r31)
 3904 01a8 D77F     		se_stw %r7,28(%r31)
 3905              		.loc 3 522 0
 3906 01aa CB61     		se_lwz %r6,44(%r1)
 3907 01ac C871     		se_lwz %r7,32(%r1)
 3908 01ae 51010024 		e_lwz %r8,36(%r1)
 3909 01b2 D076     		se_stw %r7,0(%r6)
 3910 01b4 55060004 		e_stw %r8,4(%r6)
 3911              		.loc 3 523 0
 3912 01b8 CA71     		se_lwz %r7,40(%r1)
GAS LISTING C:\Users\cerru\AppData\Local\Temp\ccX7DVb9.s 			page 71


 3913 01ba C361     		se_lwz %r6,12(%r1)
 3914 01bc D067     		se_stw %r6,0(%r7)
 3915              		.loc 3 524 0
 3916 01be 4817     		se_li %r7,1
 3917 01c0 D271     		se_stw %r7,8(%r1)
 3918              	.L156:
 3919              		.loc 3 526 0
 3920 01c2 C631     		se_lwz %r3,24(%r1)
 3921 01c4 C741     		se_lwz %r4,28(%r1)
 3922 01c6 78000001 		e_bl __fixdfsi
 3923 01ca 0136     		se_mr %r6,%r3
 3924 01cc CD71     		se_lwz %r7,52(%r1)
 3925 01ce D067     		se_stw %r6,0(%r7)
 3926              		.loc 3 527 0
 3927 01d0 CC61     		se_lwz %r6,48(%r1)
 3928 01d2 C871     		se_lwz %r7,32(%r1)
 3929 01d4 51010024 		e_lwz %r8,36(%r1)
 3930 01d8 D076     		se_stw %r7,0(%r6)
 3931 01da 55060004 		e_stw %r8,4(%r6)
 3932              		.loc 3 528 0
 3933 01de C271     		se_lwz %r7,8(%r1)
 3934              		.loc 3 530 0
 3935 01e0 0173     		se_mr %r3,%r7
 3936 01e2 5001006C 		e_lwz %r0,108(%r1)
 3937 01e6 0090     		se_mtlr %r0
 3938 01e8 1BC10860 		e_lmw %r30,96(%r1)
 3939 01ec 18218068 		e_addi %r1,%r1,104
 3940              	.LCFI53:
 3941              		.cfi_restore 31
 3942              		.cfi_restore 30
 3943              		.cfi_def_cfa_offset 0
 3944 01f0 0004     		se_blr
 3945              		.cfi_endproc
 3946              	.LFE30:
 3947              		.size	memorizza_ostacoli, .-memorizza_ostacoli
 3948              		.globl __ledf2
 3949              		.section	.rodata
 3950 014e 0000     		.align 2
 3951              	.LC14:
 3952 0150 0A0A436F 		.string	"\n\nCorridoio_tra_due_punti\n"
 3952      72726964 
 3952      6F696F5F 
 3952      7472615F 
 3952      6475655F 
 3953 016b 00       		.align 2
 3954              	.LC15:
 3955 016c 6F737461 		.string	"ostacolo_A.x: %f\n"
 3955      636F6C6F 
 3955      5F412E78 
 3955      3A202566 
 3955      0A00
 3956 017e 0000     		.align 2
 3957              	.LC16:
 3958 0180 6F737461 		.string	"ostacolo_A.y: %f\n"
 3958      636F6C6F 
 3958      5F412E79 
 3958      3A202566 
GAS LISTING C:\Users\cerru\AppData\Local\Temp\ccX7DVb9.s 			page 72


 3958      0A00
 3959 0192 0000     		.align 2
 3960              	.LC17:
 3961 0194 6F737461 		.string	"ostacolo_A.a: %f\n"
 3961      636F6C6F 
 3961      5F412E61 
 3961      3A202566 
 3961      0A00
 3962 01a6 0000     		.align 2
 3963              	.LC18:
 3964 01a8 6F737461 		.string	"ostacolo_A.d: %f\n"
 3964      636F6C6F 
 3964      5F412E64 
 3964      3A202566 
 3964      0A00
 3965 01ba 0000     		.align 2
 3966              	.LC19:
 3967 01bc 6F737461 		.string	"ostacolo_B.x: %f\n"
 3967      636F6C6F 
 3967      5F422E78 
 3967      3A202566 
 3967      0A00
 3968 01ce 0000     		.align 2
 3969              	.LC20:
 3970 01d0 6F737461 		.string	"ostacolo_B.y: %f\n"
 3970      636F6C6F 
 3970      5F422E79 
 3970      3A202566 
 3970      0A00
 3971 01e2 0000     		.align 2
 3972              	.LC21:
 3973 01e4 6F737461 		.string	"ostacolo_B.a: %f\n"
 3973      636F6C6F 
 3973      5F422E61 
 3973      3A202566 
 3973      0A00
 3974 01f6 0000     		.align 2
 3975              	.LC22:
 3976 01f8 6F737461 		.string	"ostacolo_B.d: %f\n"
 3976      636F6C6F 
 3976      5F422E64 
 3976      3A202566 
 3976      0A00
 3977 020a 0000     		.align 2
 3978              	.LC23:
 3979 020c 795F6D65 		.string	"y_medio: %f\n"
 3979      64696F3A 
 3979      2025660A 
 3979      00
 3980 0219 000000   		.align 2
 3981              	.LC24:
 3982 021c 785F6D65 		.string	"x_medio: %f\n"
 3982      64696F3A 
 3982      2025660A 
 3982      00
 3983 0229 000000   		.align 2
 3984              	.LC25:
GAS LISTING C:\Users\cerru\AppData\Local\Temp\ccX7DVb9.s 			page 73


 3985 022c 70617373 		.string	"passage.distance_a_to_center: %f\n"
 3985      6167652E 
 3985      64697374 
 3985      616E6365 
 3985      5F615F74 
 3986 024e 0000     		.align 2
 3987              	.LC26:
 3988 0250 70617373 		.string	"passage.distance_b_to_center: %f\n"
 3988      6167652E 
 3988      64697374 
 3988      616E6365 
 3988      5F625F74 
 3989 0272 0000     		.align 2
 3990              	.LC27:
 3991 0274 70617373 		.string	"passage.angle: %f\n\n"
 3991      6167652E 
 3991      616E676C 
 3991      653A2025 
 3991      660A0A00 
 3992              		.section	.text.corridoio_tra_due_punti,"axv",@progbits
 3993              		.align 1
 3994              		.p2align 4,,15
 3995              		.globl corridoio_tra_due_punti
 3996              		.type	corridoio_tra_due_punti, @function
 3997              	corridoio_tra_due_punti:
 3998              	.LFB31:
 3999              		.loc 3 538 0
 4000              		.cfi_startproc
 4001 0000 18210680 		e_stwu %r1,-128(%r1)
 4002              	.LCFI54:
 4003              		.cfi_def_cfa_offset 128
 4004 0004 0080     		se_mflr %r0
 4005 0006 54010084 		e_stw %r0,132(%r1)
 4006 000a 56C10058 		e_stw %r22,88(%r1)
 4007 000e 56E1005C 		e_stw %r23,92(%r1)
 4008 0012 57010060 		e_stw %r24,96(%r1)
 4009 0016 57210064 		e_stw %r25,100(%r1)
 4010 001a 57410068 		e_stw %r26,104(%r1)
 4011 001e 5761006C 		e_stw %r27,108(%r1)
 4012 0022 57810070 		e_stw %r28,112(%r1)
 4013 0026 57A10074 		e_stw %r29,116(%r1)
 4014 002a 57C10078 		e_stw %r30,120(%r1)
 4015 002e 57E1007C 		e_stw %r31,124(%r1)
 4016              		.cfi_offset 65, 4
 4017              		.cfi_offset 22, -40
 4018              		.cfi_offset 23, -36
 4019              		.cfi_offset 24, -32
 4020              		.cfi_offset 25, -28
 4021              		.cfi_offset 26, -24
 4022              		.cfi_offset 27, -20
 4023              		.cfi_offset 28, -16
 4024              		.cfi_offset 29, -12
 4025              		.cfi_offset 30, -8
 4026              		.cfi_offset 31, -4
 4027 0032 013F     		se_mr %r31,%r3
 4028 0034 014E     		se_mr %r30,%r4
 4029              		.loc 3 541 0
GAS LISTING C:\Users\cerru\AppData\Local\Temp\ccX7DVb9.s 			page 74


 4030 0036 C05F     		se_lwz %r5,0(%r31)
 4031 0038 C16F     		se_lwz %r6,4(%r31)
 4032 003a C07E     		se_lwz %r7,0(%r30)
 4033 003c 511E0004 		e_lwz %r8,4(%r30)
 4034 0040 0153     		se_mr %r3,%r5
 4035 0042 0164     		se_mr %r4,%r6
 4036 0044 0175     		se_mr %r5,%r7
 4037 0046 0306     		se_mfar %r6,%r8
 4038 0048 78000001 		e_bl __adddf3
 4039 004c 0240     		se_mtar %r8,%r4
 4040 004e 0137     		se_mr %r7,%r3
 4041 0050 0173     		se_mr %r3,%r7
 4042 0052 0304     		se_mfar %r4,%r8
 4043 0054 6215     		se_bgeni %r5,1
 4044 0056 4806     		se_li %r6,0
 4045 0058 78000001 		e_bl __divdf3
 4046 005c 0240     		se_mtar %r8,%r4
 4047 005e 0137     		se_mr %r7,%r3
 4048 0060 DA71     		se_stw %r7,40(%r1)
 4049 0062 5501002C 		e_stw %r8,44(%r1)
 4050              		.loc 3 542 0
 4051 0066 C25F     		se_lwz %r5,8(%r31)
 4052 0068 C36F     		se_lwz %r6,12(%r31)
 4053 006a C27E     		se_lwz %r7,8(%r30)
 4054 006c 511E000C 		e_lwz %r8,12(%r30)
 4055 0070 0153     		se_mr %r3,%r5
 4056 0072 0164     		se_mr %r4,%r6
 4057 0074 0175     		se_mr %r5,%r7
 4058 0076 0306     		se_mfar %r6,%r8
 4059 0078 78000001 		e_bl __adddf3
 4060 007c 0240     		se_mtar %r8,%r4
 4061 007e 0137     		se_mr %r7,%r3
 4062 0080 0173     		se_mr %r3,%r7
 4063 0082 0304     		se_mfar %r4,%r8
 4064 0084 6215     		se_bgeni %r5,1
 4065 0086 4806     		se_li %r6,0
 4066 0088 78000001 		e_bl __divdf3
 4067 008c 0240     		se_mtar %r8,%r4
 4068 008e 0137     		se_mr %r7,%r3
 4069 0090 DC71     		se_stw %r7,48(%r1)
 4070 0092 55010034 		e_stw %r8,52(%r1)
 4071              		.loc 3 544 0
 4072 0096 4BC7     		se_li %r7,60
 4073 0098 D871     		se_stw %r7,32(%r1)
 4074 009a 4807     		se_li %r7,0
 4075 009c D971     		se_stw %r7,36(%r1)
 4076              		.loc 3 547 0
 4077 009e C65E     		se_lwz %r5,24(%r30)
 4078 00a0 C76E     		se_lwz %r6,28(%r30)
 4079 00a2 C67F     		se_lwz %r7,24(%r31)
 4080 00a4 511F001C 		e_lwz %r8,28(%r31)
 4081 00a8 0153     		se_mr %r3,%r5
 4082 00aa 0164     		se_mr %r4,%r6
 4083 00ac 0175     		se_mr %r5,%r7
 4084 00ae 0306     		se_mfar %r6,%r8
 4085 00b0 78000001 		e_bl __ledf2
 4086 00b4 0137     		se_mr %r7,%r3
GAS LISTING C:\Users\cerru\AppData\Local\Temp\ccX7DVb9.s 			page 75


 4087 00b6 2A07     		se_cmpi %r7,0
 4088 00b8 7F800020 		e_mcrf %cr7,%cr0
 4089 00bc 7CE00026 		mfcr %r7
 4090 00c0 74E7E007 		e_rlwinm %r7,%r7,28,0xf0000000
 4091 00c4 7CE80120 		mtcrf 128,%r7
 4092 00c8 7A110028 		e_bgt %cr0,.L194
 4093              		.loc 3 547 0 is_stmt 0 discriminator 1
 4094 00cc C65F     		se_lwz %r5,24(%r31)
 4095 00ce C76F     		se_lwz %r6,28(%r31)
 4096 00d0 C67E     		se_lwz %r7,24(%r30)
 4097 00d2 511E001C 		e_lwz %r8,28(%r30)
 4098 00d6 0153     		se_mr %r3,%r5
 4099 00d8 0164     		se_mr %r4,%r6
 4100 00da 0175     		se_mr %r5,%r7
 4101 00dc 0306     		se_mfar %r6,%r8
 4102 00de 78000001 		e_bl __subdf3
 4103 00e2 0240     		se_mtar %r8,%r4
 4104 00e4 0137     		se_mr %r7,%r3
 4105 00e6 18FCC77F 		e_andi %r28,%r7,2147483647
 4106 00ea 030D     		se_mfar %r29,%r8
 4107 00ec 7800003E 		e_b .L162
 4108              	.L194:
 4109              		.loc 3 547 0 discriminator 2
 4110 00f0 C65F     		se_lwz %r5,24(%r31)
 4111 00f2 C76F     		se_lwz %r6,28(%r31)
 4112 00f4 C67E     		se_lwz %r7,24(%r30)
 4113 00f6 511E001C 		e_lwz %r8,28(%r30)
 4114 00fa 0153     		se_mr %r3,%r5
 4115 00fc 0164     		se_mr %r4,%r6
 4116 00fe 0175     		se_mr %r5,%r7
 4117 0100 0306     		se_mfar %r6,%r8
 4118 0102 78000001 		e_bl __subdf3
 4119 0106 0240     		se_mtar %r8,%r4
 4120 0108 0137     		se_mr %r7,%r3
 4121 010a 18F6C77F 		e_andi %r22,%r7,2147483647
 4122 010e 7D174378 		mr %r23,%r8
 4123 0112 7068E076 		e_lis %r3,0x4076
 4124 0116 6503     		se_bseti %r3,16
 4125 0118 4804     		se_li %r4,0
 4126 011a 03E5     		se_mfar %r5,%r22
 4127 011c 03F6     		se_mfar %r6,%r23
 4128 011e 78000001 		e_bl __subdf3
 4129 0122 0240     		se_mtar %r8,%r4
 4130 0124 0137     		se_mr %r7,%r3
 4131 0126 030D     		se_mfar %r29,%r8
 4132 0128 017C     		se_mr %r28,%r7
 4133              	.L162:
 4134              		.loc 3 546 0 is_stmt 1
 4135 012a DEC1     		se_stw %r28,56(%r1)
 4136 012c DFD1     		se_stw %r29,60(%r1)
 4137              		.loc 3 549 0
 4138 012e C871     		se_lwz %r7,32(%r1)
 4139 0130 6C17     		se_slwi %r7, 1
 4140 0132 0173     		se_mr %r3,%r7
 4141 0134 78000001 		e_bl __floatsidf
 4142 0138 0240     		se_mtar %r8,%r4
 4143 013a 0137     		se_mr %r7,%r3
GAS LISTING C:\Users\cerru\AppData\Local\Temp\ccX7DVb9.s 			page 76


 4144 013c 0173     		se_mr %r3,%r7
 4145 013e 0304     		se_mfar %r4,%r8
 4146 0140 CE51     		se_lwz %r5,56(%r1)
 4147 0142 CF61     		se_lwz %r6,60(%r1)
 4148 0144 78000001 		e_bl __ltdf2
 4149 0148 0137     		se_mr %r7,%r3
 4150 014a 2A07     		se_cmpi %r7,0
 4151 014c 7F800020 		e_mcrf %cr7,%cr0
 4152 0150 7CE00026 		mfcr %r7
 4153 0154 74E7E007 		e_rlwinm %r7,%r7,28,0xf0000000
 4154 0158 7CE80120 		mtcrf 128,%r7
 4155 015c 7A00000C 		e_bge %cr0,.L195
 4156              		.loc 3 550 0
 4157 0160 4817     		se_li %r7,1
 4158 0162 D971     		se_stw %r7,36(%r1)
 4159 0164 78000096 		e_b .L165
 4160              	.L195:
 4161              		.loc 3 552 0
 4162 0168 4AD7     		se_li %r7,45
 4163 016a D871     		se_stw %r7,32(%r1)
 4164              		.loc 3 553 0
 4165 016c C07F     		se_lwz %r7,0(%r31)
 4166 016e 511F0004 		e_lwz %r8,4(%r31)
 4167 0172 0173     		se_mr %r3,%r7
 4168 0174 0304     		se_mfar %r4,%r8
 4169 0176 70A8E059 		e_lis %r5,0x4059
 4170 017a 4806     		se_li %r6,0
 4171 017c 78000001 		e_bl __gtdf2
 4172 0180 0137     		se_mr %r7,%r3
 4173 0182 2A07     		se_cmpi %r7,0
 4174 0184 7F800020 		e_mcrf %cr7,%cr0
 4175 0188 7CE00026 		mfcr %r7
 4176 018c 74E7E007 		e_rlwinm %r7,%r7,28,0xf0000000
 4177 0190 7CE80120 		mtcrf 128,%r7
 4178 0194 7A010066 		e_ble %cr0,.L165
 4179              		.loc 3 553 0 is_stmt 0 discriminator 1
 4180 0198 C07E     		se_lwz %r7,0(%r30)
 4181 019a 511E0004 		e_lwz %r8,4(%r30)
 4182 019e 0173     		se_mr %r3,%r7
 4183 01a0 0304     		se_mfar %r4,%r8
 4184 01a2 70A8E059 		e_lis %r5,0x4059
 4185 01a6 4806     		se_li %r6,0
 4186 01a8 78000001 		e_bl __gtdf2
 4187 01ac 0137     		se_mr %r7,%r3
 4188 01ae 2A07     		se_cmpi %r7,0
 4189 01b0 7F800020 		e_mcrf %cr7,%cr0
 4190 01b4 7CE00026 		mfcr %r7
 4191 01b8 74E7E007 		e_rlwinm %r7,%r7,28,0xf0000000
 4192 01bc 7CE80120 		mtcrf 128,%r7
 4193 01c0 7A01003A 		e_ble %cr0,.L165
 4194              		.loc 3 553 0 discriminator 2
 4195 01c4 C871     		se_lwz %r7,32(%r1)
 4196 01c6 6C17     		se_slwi %r7, 1
 4197 01c8 0173     		se_mr %r3,%r7
 4198 01ca 78000001 		e_bl __floatsidf
 4199 01ce 0240     		se_mtar %r8,%r4
 4200 01d0 0137     		se_mr %r7,%r3
GAS LISTING C:\Users\cerru\AppData\Local\Temp\ccX7DVb9.s 			page 77


 4201 01d2 0173     		se_mr %r3,%r7
 4202 01d4 0304     		se_mfar %r4,%r8
 4203 01d6 CE51     		se_lwz %r5,56(%r1)
 4204 01d8 CF61     		se_lwz %r6,60(%r1)
 4205 01da 78000001 		e_bl __ltdf2
 4206 01de 0137     		se_mr %r7,%r3
 4207 01e0 2A07     		se_cmpi %r7,0
 4208 01e2 7F800020 		e_mcrf %cr7,%cr0
 4209 01e6 7CE00026 		mfcr %r7
 4210 01ea 74E7E007 		e_rlwinm %r7,%r7,28,0xf0000000
 4211 01ee 7CE80120 		mtcrf 128,%r7
 4212 01f2 7A000008 		e_bge %cr0,.L165
 4213              		.loc 3 554 0 is_stmt 1
 4214 01f6 4817     		se_li %r7,1
 4215 01f8 D971     		se_stw %r7,36(%r1)
 4216              	.L165:
 4217              		.loc 3 558 0
 4218 01fa C971     		se_lwz %r7,36(%r1)
 4219 01fc 2A07     		se_cmpi %r7,0
 4220 01fe 7F800020 		e_mcrf %cr7,%cr0
 4221 0202 7CE00026 		mfcr %r7
 4222 0206 74E7E007 		e_rlwinm %r7,%r7,28,0xf0000000
 4223 020a 7CE80120 		mtcrf 128,%r7
 4224 020e 7A1200D2 		e_beq %cr0,.L169
 4225              	.LBB18:
 4226              		.loc 3 559 0
 4227 0212 C6CF     		se_lwz %r28,24(%r31)
 4228 0214 C7DF     		se_lwz %r29,28(%r31)
 4229 0216 CE31     		se_lwz %r3,56(%r1)
 4230 0218 CF41     		se_lwz %r4,60(%r1)
 4231 021a 6215     		se_bgeni %r5,1
 4232 021c 4806     		se_li %r6,0
 4233 021e 78000001 		e_bl __divdf3
 4234 0222 0240     		se_mtar %r8,%r4
 4235 0224 0137     		se_mr %r7,%r3
 4236 0226 01C3     		se_mr %r3,%r28
 4237 0228 01D4     		se_mr %r4,%r29
 4238 022a 0175     		se_mr %r5,%r7
 4239 022c 0306     		se_mfar %r6,%r8
 4240 022e 78000001 		e_bl __subdf3
 4241 0232 0240     		se_mtar %r8,%r4
 4242 0234 0137     		se_mr %r7,%r3
 4243 0236 0173     		se_mr %r3,%r7
 4244 0238 0304     		se_mfar %r4,%r8
 4245 023a 78000001 		e_bl format_angle
 4246 023e 54610040 		e_stw %r3,64(%r1)
 4247 0242 54810044 		e_stw %r4,68(%r1)
 4248              		.loc 3 560 0
 4249 0246 C6CF     		se_lwz %r28,24(%r31)
 4250 0248 C7DF     		se_lwz %r29,28(%r31)
 4251 024a C831     		se_lwz %r3,32(%r1)
 4252 024c 78000001 		e_bl __floatsidf
 4253 0250 0240     		se_mtar %r8,%r4
 4254 0252 0137     		se_mr %r7,%r3
 4255 0254 01C3     		se_mr %r3,%r28
 4256 0256 01D4     		se_mr %r4,%r29
 4257 0258 0175     		se_mr %r5,%r7
GAS LISTING C:\Users\cerru\AppData\Local\Temp\ccX7DVb9.s 			page 78


 4258 025a 0306     		se_mfar %r6,%r8
 4259 025c 78000001 		e_bl __subdf3
 4260 0260 0240     		se_mtar %r8,%r4
 4261 0262 0137     		se_mr %r7,%r3
 4262 0264 0173     		se_mr %r3,%r7
 4263 0266 0304     		se_mfar %r4,%r8
 4264 0268 78000001 		e_bl format_angle
 4265 026c D231     		se_stw %r3,8(%r1)
 4266 026e D341     		se_stw %r4,12(%r1)
 4267              		.loc 3 561 0
 4268 0270 C271     		se_lwz %r7,8(%r1)
 4269 0272 18F8C77F 		e_andi %r24,%r7,2147483647
 4270 0276 C391     		se_lwz %r25,12(%r1)
 4271 0278 50E10040 		e_lwz %r7,64(%r1)
 4272 027c 18FAC77F 		e_andi %r26,%r7,2147483647
 4273 0280 53610044 		e_lwz %r27,68(%r1)
 4274 0284 0183     		se_mr %r3,%r24
 4275 0286 0194     		se_mr %r4,%r25
 4276 0288 01A5     		se_mr %r5,%r26
 4277 028a 01B6     		se_mr %r6,%r27
 4278 028c 78000001 		e_bl __ltdf2
 4279 0290 0137     		se_mr %r7,%r3
 4280 0292 2A07     		se_cmpi %r7,0
 4281 0294 7F800020 		e_mcrf %cr7,%cr0
 4282 0298 7CE00026 		mfcr %r7
 4283 029c 74E7E007 		e_rlwinm %r7,%r7,28,0xf0000000
 4284 02a0 7CE80120 		mtcrf 128,%r7
 4285 02a4 7A00000E 		e_bge %cr0,.L196
 4286              		.loc 3 561 0 is_stmt 0 discriminator 1
 4287 02a8 C271     		se_lwz %r7,8(%r1)
 4288 02aa 5101000C 		e_lwz %r8,12(%r1)
 4289 02ae 7800000C 		e_b .L172
 4290              	.L196:
 4291              		.loc 3 561 0 discriminator 2
 4292 02b2 50E10040 		e_lwz %r7,64(%r1)
 4293 02b6 51010044 		e_lwz %r8,68(%r1)
 4294              	.L172:
 4295              		.loc 3 561 0 discriminator 4
 4296 02ba D271     		se_stw %r7,8(%r1)
 4297 02bc 5501000C 		e_stw %r8,12(%r1)
 4298              		.loc 3 562 0 is_stmt 1 discriminator 4
 4299 02c0 70E8E079 		e_lis %r7,0x4079
 4300 02c4 71000000 		e_li %r8,0
 4301 02c8 D471     		se_stw %r7,16(%r1)
 4302 02ca 55010014 		e_stw %r8,20(%r1)
 4303              		.loc 3 563 0 discriminator 4
 4304 02ce 70E8E079 		e_lis %r7,0x4079
 4305 02d2 71000000 		e_li %r8,0
 4306 02d6 D671     		se_stw %r7,24(%r1)
 4307 02d8 5501001C 		e_stw %r8,28(%r1)
 4308              	.LBE18:
 4309 02dc 780000C4 		e_b .L173
 4310              	.L169:
 4311              		.loc 3 565 0
 4312 02e0 CA31     		se_lwz %r3,40(%r1)
 4313 02e2 CB41     		se_lwz %r4,44(%r1)
 4314 02e4 CC51     		se_lwz %r5,48(%r1)
GAS LISTING C:\Users\cerru\AppData\Local\Temp\ccX7DVb9.s 			page 79


 4315 02e6 CD61     		se_lwz %r6,52(%r1)
 4316 02e8 78000001 		e_bl ang_from_x_y
 4317 02ec D231     		se_stw %r3,8(%r1)
 4318 02ee D341     		se_stw %r4,12(%r1)
 4319              		.loc 3 566 0
 4320 02f0 C67F     		se_lwz %r7,24(%r31)
 4321 02f2 511F001C 		e_lwz %r8,28(%r31)
 4322 02f6 C231     		se_lwz %r3,8(%r1)
 4323 02f8 C341     		se_lwz %r4,12(%r1)
 4324 02fa 0175     		se_mr %r5,%r7
 4325 02fc 0306     		se_mfar %r6,%r8
 4326 02fe 78000001 		e_bl __subdf3
 4327 0302 0240     		se_mtar %r8,%r4
 4328 0304 0137     		se_mr %r7,%r3
 4329 0306 54E10048 		e_stw %r7,72(%r1)
 4330 030a 5501004C 		e_stw %r8,76(%r1)
 4331              		.loc 3 567 0
 4332 030e C67E     		se_lwz %r7,24(%r30)
 4333 0310 511E001C 		e_lwz %r8,28(%r30)
 4334 0314 0173     		se_mr %r3,%r7
 4335 0316 0304     		se_mfar %r4,%r8
 4336 0318 C251     		se_lwz %r5,8(%r1)
 4337 031a C361     		se_lwz %r6,12(%r1)
 4338 031c 78000001 		e_bl __subdf3
 4339 0320 0240     		se_mtar %r8,%r4
 4340 0322 0137     		se_mr %r7,%r3
 4341 0324 54E10050 		e_stw %r7,80(%r1)
 4342 0328 55010054 		e_stw %r8,84(%r1)
 4343              		.loc 3 570 0
 4344 032c C4CF     		se_lwz %r28,16(%r31)
 4345 032e C5DF     		se_lwz %r29,20(%r31)
 4346 0330 50610048 		e_lwz %r3,72(%r1)
 4347 0334 5081004C 		e_lwz %r4,76(%r1)
 4348 0338 78000001 		e_bl deg_to_rad
 4349 033c 0240     		se_mtar %r8,%r4
 4350 033e 0137     		se_mr %r7,%r3
 4351 0340 0173     		se_mr %r3,%r7
 4352 0342 0304     		se_mfar %r4,%r8
 4353 0344 78000001 		e_bl sin
 4354 0348 0240     		se_mtar %r8,%r4
 4355 034a 0137     		se_mr %r7,%r3
 4356 034c 01C3     		se_mr %r3,%r28
 4357 034e 01D4     		se_mr %r4,%r29
 4358 0350 0175     		se_mr %r5,%r7
 4359 0352 0306     		se_mfar %r6,%r8
 4360 0354 78000001 		e_bl __muldf3
 4361 0358 0240     		se_mtar %r8,%r4
 4362 035a 0137     		se_mr %r7,%r3
 4363 035c 18E6C77F 		e_andi %r6,%r7,2147483647
 4364 0360 D461     		se_stw %r6,16(%r1)
 4365 0362 55010014 		e_stw %r8,20(%r1)
 4366              		.loc 3 571 0
 4367 0366 C4CE     		se_lwz %r28,16(%r30)
 4368 0368 C5DE     		se_lwz %r29,20(%r30)
 4369 036a 50610050 		e_lwz %r3,80(%r1)
 4370 036e 50810054 		e_lwz %r4,84(%r1)
 4371 0372 78000001 		e_bl deg_to_rad
GAS LISTING C:\Users\cerru\AppData\Local\Temp\ccX7DVb9.s 			page 80


 4372 0376 0240     		se_mtar %r8,%r4
 4373 0378 0137     		se_mr %r7,%r3
 4374 037a 0173     		se_mr %r3,%r7
 4375 037c 0304     		se_mfar %r4,%r8
 4376 037e 78000001 		e_bl sin
 4377 0382 0240     		se_mtar %r8,%r4
 4378 0384 0137     		se_mr %r7,%r3
 4379 0386 01C3     		se_mr %r3,%r28
 4380 0388 01D4     		se_mr %r4,%r29
 4381 038a 0175     		se_mr %r5,%r7
 4382 038c 0306     		se_mfar %r6,%r8
 4383 038e 78000001 		e_bl __muldf3
 4384 0392 0240     		se_mtar %r8,%r4
 4385 0394 0137     		se_mr %r7,%r3
 4386 0396 18E6C77F 		e_andi %r6,%r7,2147483647
 4387 039a D661     		se_stw %r6,24(%r1)
 4388 039c 5501001C 		e_stw %r8,28(%r1)
 4389              	.L173:
 4390              		.loc 3 575 0
 4391 03a0 70E0015E 		e_li %r7,350
 4392 03a4 0173     		se_mr %r3,%r7
 4393 03a6 78000001 		e_bl __floatsidf
 4394 03aa 0240     		se_mtar %r8,%r4
 4395 03ac 0137     		se_mr %r7,%r3
 4396 03ae 0173     		se_mr %r3,%r7
 4397 03b0 0304     		se_mfar %r4,%r8
 4398 03b2 C451     		se_lwz %r5,16(%r1)
 4399 03b4 C561     		se_lwz %r6,20(%r1)
 4400 03b6 78000001 		e_bl __ltdf2
 4401 03ba 0137     		se_mr %r7,%r3
 4402 03bc 2A07     		se_cmpi %r7,0
 4403 03be 7F800020 		e_mcrf %cr7,%cr0
 4404 03c2 7CE00026 		mfcr %r7
 4405 03c6 74E7E007 		e_rlwinm %r7,%r7,28,0xf0000000
 4406 03ca 7CE80120 		mtcrf 128,%r7
 4407 03ce 7A00007E 		e_bge %cr0,.L174
 4408              		.loc 3 575 0 is_stmt 0 discriminator 1
 4409 03d2 70E0015E 		e_li %r7,350
 4410 03d6 0173     		se_mr %r3,%r7
 4411 03d8 78000001 		e_bl __floatsidf
 4412 03dc 0240     		se_mtar %r8,%r4
 4413 03de 0137     		se_mr %r7,%r3
 4414 03e0 0173     		se_mr %r3,%r7
 4415 03e2 0304     		se_mfar %r4,%r8
 4416 03e4 C651     		se_lwz %r5,24(%r1)
 4417 03e6 C761     		se_lwz %r6,28(%r1)
 4418 03e8 78000001 		e_bl __ltdf2
 4419 03ec 0137     		se_mr %r7,%r3
 4420 03ee 2A07     		se_cmpi %r7,0
 4421 03f0 7F800020 		e_mcrf %cr7,%cr0
 4422 03f4 7CE00026 		mfcr %r7
 4423 03f8 74E7E007 		e_rlwinm %r7,%r7,28,0xf0000000
 4424 03fc 7CE80120 		mtcrf 128,%r7
 4425 0400 7A00004C 		e_bge %cr0,.L174
 4426              		.loc 3 576 0 is_stmt 1
 4427 0404 C231     		se_lwz %r3,8(%r1)
 4428 0406 C341     		se_lwz %r4,12(%r1)
GAS LISTING C:\Users\cerru\AppData\Local\Temp\ccX7DVb9.s 			page 81


 4429 0408 4805     		se_li %r5,0
 4430 040a 4806     		se_li %r6,0
 4431 040c 78000001 		e_bl __nedf2
 4432 0410 0137     		se_mr %r7,%r3
 4433 0412 2A07     		se_cmpi %r7,0
 4434 0414 7F800020 		e_mcrf %cr7,%cr0
 4435 0418 7CE00026 		mfcr %r7
 4436 041c 74E7E007 		e_rlwinm %r7,%r7,28,0xf0000000
 4437 0420 7CE80120 		mtcrf 128,%r7
 4438 0424 7A12000E 		e_beq %cr0,.L197
 4439              		.loc 3 576 0 is_stmt 0 discriminator 1
 4440 0428 C271     		se_lwz %r7,8(%r1)
 4441 042a 5101000C 		e_lwz %r8,12(%r1)
 4442 042e 78000014 		e_b .L179
 4443              	.L197:
 4444              		.loc 3 576 0 discriminator 2
 4445 0432 70E7E71A 		e_lis %r7,0x3f1a
 4446 0436 70E6C6E2 		e_or2i %r7,14050
 4447 043a 711DE31C 		e_lis %r8,0xeb1c
 4448 043e 7108C32D 		e_or2i %r8,17197
 4449              	.L179:
 4450              		.loc 3 576 0 discriminator 4
 4451 0442 D271     		se_stw %r7,8(%r1)
 4452 0444 5501000C 		e_stw %r8,12(%r1)
 4453 0448 78000010 		e_b .L180
 4454              	.L174:
 4455              		.loc 3 578 0 is_stmt 1
 4456 044c 4807     		se_li %r7,0
 4457 044e 71000000 		e_li %r8,0
 4458 0452 D271     		se_stw %r7,8(%r1)
 4459 0454 5501000C 		e_stw %r8,12(%r1)
 4460              	.L180:
 4461              		.loc 3 581 0
 4462 0458 4807     		se_li %r7,0
 4463 045a 2A07     		se_cmpi %r7,0
 4464 045c 7F800020 		e_mcrf %cr7,%cr0
 4465 0460 7CE00026 		mfcr %r7
 4466 0464 74E7E007 		e_rlwinm %r7,%r7,28,0xf0000000
 4467 0468 7CE80120 		mtcrf 128,%r7
 4468 046c 7A020028 		e_bne %cr0,.L181
 4469              		.loc 3 581 0 is_stmt 0 discriminator 1
 4470 0470 C231     		se_lwz %r3,8(%r1)
 4471 0472 C341     		se_lwz %r4,12(%r1)
 4472 0474 4805     		se_li %r5,0
 4473 0476 4806     		se_li %r6,0
 4474 0478 78000001 		e_bl __nedf2
 4475 047c 0137     		se_mr %r7,%r3
 4476 047e 2A07     		se_cmpi %r7,0
 4477 0480 7F800020 		e_mcrf %cr7,%cr0
 4478 0484 7CE00026 		mfcr %r7
 4479 0488 74E7E007 		e_rlwinm %r7,%r7,28,0xf0000000
 4480 048c 7CE80120 		mtcrf 128,%r7
 4481 0490 7A120110 		e_beq %cr0,.L182
 4482              	.L181:
 4483              		.loc 3 582 0 is_stmt 1
 4484 0494 70E0E000 		e_lis %r7,.LC14@ha
 4485 0498 1C670000 		e_la %r3,.LC14@l(%r7)
GAS LISTING C:\Users\cerru\AppData\Local\Temp\ccX7DVb9.s 			page 82


 4486 049c 78000001 		e_bl trace
 4487              		.loc 3 583 0
 4488 04a0 C07F     		se_lwz %r7,0(%r31)
 4489 04a2 511F0004 		e_lwz %r8,4(%r31)
 4490 04a6 70C0E000 		e_lis %r6,.LC15@ha
 4491 04aa 1C660000 		e_la %r3,.LC15@l(%r6)
 4492 04ae 0175     		se_mr %r5,%r7
 4493 04b0 0306     		se_mfar %r6,%r8
 4494 04b2 78000001 		e_bl trace
 4495              		.loc 3 584 0
 4496 04b6 C27F     		se_lwz %r7,8(%r31)
 4497 04b8 511F000C 		e_lwz %r8,12(%r31)
 4498 04bc 70C0E000 		e_lis %r6,.LC16@ha
 4499 04c0 1C660000 		e_la %r3,.LC16@l(%r6)
 4500 04c4 0175     		se_mr %r5,%r7
 4501 04c6 0306     		se_mfar %r6,%r8
 4502 04c8 78000001 		e_bl trace
 4503              		.loc 3 585 0
 4504 04cc C67F     		se_lwz %r7,24(%r31)
 4505 04ce 511F001C 		e_lwz %r8,28(%r31)
 4506 04d2 70C0E000 		e_lis %r6,.LC17@ha
 4507 04d6 1C660000 		e_la %r3,.LC17@l(%r6)
 4508 04da 0175     		se_mr %r5,%r7
 4509 04dc 0306     		se_mfar %r6,%r8
 4510 04de 78000001 		e_bl trace
 4511              		.loc 3 586 0
 4512 04e2 C47F     		se_lwz %r7,16(%r31)
 4513 04e4 511F0014 		e_lwz %r8,20(%r31)
 4514 04e8 70C0E000 		e_lis %r6,.LC18@ha
 4515 04ec 1C660000 		e_la %r3,.LC18@l(%r6)
 4516 04f0 0175     		se_mr %r5,%r7
 4517 04f2 0306     		se_mfar %r6,%r8
 4518 04f4 78000001 		e_bl trace
 4519              		.loc 3 587 0
 4520 04f8 C07E     		se_lwz %r7,0(%r30)
 4521 04fa 511E0004 		e_lwz %r8,4(%r30)
 4522 04fe 70C0E000 		e_lis %r6,.LC19@ha
 4523 0502 1C660000 		e_la %r3,.LC19@l(%r6)
 4524 0506 0175     		se_mr %r5,%r7
 4525 0508 0306     		se_mfar %r6,%r8
 4526 050a 78000001 		e_bl trace
 4527              		.loc 3 588 0
 4528 050e C27E     		se_lwz %r7,8(%r30)
 4529 0510 511E000C 		e_lwz %r8,12(%r30)
 4530 0514 70C0E000 		e_lis %r6,.LC20@ha
 4531 0518 1C660000 		e_la %r3,.LC20@l(%r6)
 4532 051c 0175     		se_mr %r5,%r7
 4533 051e 0306     		se_mfar %r6,%r8
 4534 0520 78000001 		e_bl trace
 4535              		.loc 3 589 0
 4536 0524 C67E     		se_lwz %r7,24(%r30)
 4537 0526 511E001C 		e_lwz %r8,28(%r30)
 4538 052a 70C0E000 		e_lis %r6,.LC21@ha
 4539 052e 1C660000 		e_la %r3,.LC21@l(%r6)
 4540 0532 0175     		se_mr %r5,%r7
 4541 0534 0306     		se_mfar %r6,%r8
 4542 0536 78000001 		e_bl trace
GAS LISTING C:\Users\cerru\AppData\Local\Temp\ccX7DVb9.s 			page 83


 4543              		.loc 3 590 0
 4544 053a C47E     		se_lwz %r7,16(%r30)
 4545 053c 511E0014 		e_lwz %r8,20(%r30)
 4546 0540 70C0E000 		e_lis %r6,.LC22@ha
 4547 0544 1C660000 		e_la %r3,.LC22@l(%r6)
 4548 0548 0175     		se_mr %r5,%r7
 4549 054a 0306     		se_mfar %r6,%r8
 4550 054c 78000001 		e_bl trace
 4551              		.loc 3 591 0
 4552 0550 70E0E000 		e_lis %r7,.LC23@ha
 4553 0554 1C670000 		e_la %r3,.LC23@l(%r7)
 4554 0558 CC51     		se_lwz %r5,48(%r1)
 4555 055a CD61     		se_lwz %r6,52(%r1)
 4556 055c 78000001 		e_bl trace
 4557              		.loc 3 592 0
 4558 0560 70E0E000 		e_lis %r7,.LC24@ha
 4559 0564 1C670000 		e_la %r3,.LC24@l(%r7)
 4560 0568 CA51     		se_lwz %r5,40(%r1)
 4561 056a CB61     		se_lwz %r6,44(%r1)
 4562 056c 78000001 		e_bl trace
 4563              		.loc 3 593 0
 4564 0570 70E0E000 		e_lis %r7,.LC25@ha
 4565 0574 1C670000 		e_la %r3,.LC25@l(%r7)
 4566 0578 C451     		se_lwz %r5,16(%r1)
 4567 057a C561     		se_lwz %r6,20(%r1)
 4568 057c 78000001 		e_bl trace
 4569              		.loc 3 594 0
 4570 0580 70E0E000 		e_lis %r7,.LC26@ha
 4571 0584 1C670000 		e_la %r3,.LC26@l(%r7)
 4572 0588 C651     		se_lwz %r5,24(%r1)
 4573 058a C761     		se_lwz %r6,28(%r1)
 4574 058c 78000001 		e_bl trace
 4575              		.loc 3 595 0
 4576 0590 70E0E000 		e_lis %r7,.LC27@ha
 4577 0594 1C670000 		e_la %r3,.LC27@l(%r7)
 4578 0598 C251     		se_lwz %r5,8(%r1)
 4579 059a C361     		se_lwz %r6,12(%r1)
 4580 059c 78000001 		e_bl trace
 4581              	.L182:
 4582              		.loc 3 597 0
 4583 05a0 C271     		se_lwz %r7,8(%r1)
 4584 05a2 5101000C 		e_lwz %r8,12(%r1)
 4585              		.loc 3 598 0
 4586 05a6 0173     		se_mr %r3,%r7
 4587 05a8 0304     		se_mfar %r4,%r8
 4588 05aa 50010084 		e_lwz %r0,132(%r1)
 4589 05ae 0090     		se_mtlr %r0
 4590 05b0 52C10058 		e_lwz %r22,88(%r1)
 4591 05b4 52E1005C 		e_lwz %r23,92(%r1)
 4592 05b8 53010060 		e_lwz %r24,96(%r1)
 4593 05bc 53210064 		e_lwz %r25,100(%r1)
 4594 05c0 53410068 		e_lwz %r26,104(%r1)
 4595 05c4 5361006C 		e_lwz %r27,108(%r1)
 4596 05c8 53810070 		e_lwz %r28,112(%r1)
 4597 05cc 53A10074 		e_lwz %r29,116(%r1)
 4598 05d0 53C10078 		e_lwz %r30,120(%r1)
 4599 05d4 53E1007C 		e_lwz %r31,124(%r1)
GAS LISTING C:\Users\cerru\AppData\Local\Temp\ccX7DVb9.s 			page 84


 4600 05d8 18218080 		e_addi %r1,%r1,128
 4601              	.LCFI55:
 4602              		.cfi_restore 31
 4603              		.cfi_restore 30
 4604              		.cfi_restore 29
 4605              		.cfi_restore 28
 4606              		.cfi_restore 27
 4607              		.cfi_restore 26
 4608              		.cfi_restore 25
 4609              		.cfi_restore 24
 4610              		.cfi_restore 23
 4611              		.cfi_restore 22
 4612              		.cfi_def_cfa_offset 0
 4613 05dc 0004     		se_blr
 4614              		.cfi_endproc
 4615              	.LFE31:
 4616              		.size	corridoio_tra_due_punti, .-corridoio_tra_due_punti
 4617              		.section	.text.punto_rispetto_al_centro,"axv",@progbits
 4618              		.align 1
 4619              		.p2align 4,,15
 4620              		.globl punto_rispetto_al_centro
 4621              		.type	punto_rispetto_al_centro, @function
 4622              	punto_rispetto_al_centro:
 4623              	.LFB32:
 4624              		.loc 3 606 0
 4625              		.cfi_startproc
 4626 0000 182106A0 		e_stwu %r1,-96(%r1)
 4627              	.LCFI56:
 4628              		.cfi_def_cfa_offset 96
 4629 0004 0080     		se_mflr %r0
 4630 0006 54010064 		e_stw %r0,100(%r1)
 4631              		.cfi_offset 65, 4
 4632 000a 54610048 		e_stw %r3,72(%r1)
 4633 000e 54A10050 		e_stw %r5,80(%r1)
 4634 0012 54C10054 		e_stw %r6,84(%r1)
 4635 0016 54E10058 		e_stw %r7,88(%r1)
 4636 001a 5501005C 		e_stw %r8,92(%r1)
 4637              		.loc 3 607 0
 4638 001e 70E000F0 		e_li %r7,240
 4639 0022 0173     		se_mr %r3,%r7
 4640 0024 78000001 		e_bl __floatsidf
 4641 0028 0240     		se_mtar %r8,%r4
 4642 002a 0137     		se_mr %r7,%r3
 4643 002c 0173     		se_mr %r3,%r7
 4644 002e 0304     		se_mfar %r4,%r8
 4645 0030 50A10050 		e_lwz %r5,80(%r1)
 4646 0034 50C10054 		e_lwz %r6,84(%r1)
 4647 0038 78000001 		e_bl __adddf3
 4648 003c 0240     		se_mtar %r8,%r4
 4649 003e 0137     		se_mr %r7,%r3
 4650 0040 D271     		se_stw %r7,8(%r1)
 4651 0042 5501000C 		e_stw %r8,12(%r1)
 4652              		.loc 3 608 0
 4653 0046 50610058 		e_lwz %r3,88(%r1)
 4654 004a 5081005C 		e_lwz %r4,92(%r1)
 4655 004e 78000001 		e_bl deg_to_rad
 4656 0052 0240     		se_mtar %r8,%r4
GAS LISTING C:\Users\cerru\AppData\Local\Temp\ccX7DVb9.s 			page 85


 4657 0054 0137     		se_mr %r7,%r3
 4658 0056 0173     		se_mr %r3,%r7
 4659 0058 0304     		se_mfar %r4,%r8
 4660 005a 78000001 		e_bl cos
 4661 005e 0240     		se_mtar %r8,%r4
 4662 0060 0137     		se_mr %r7,%r3
 4663 0062 0173     		se_mr %r3,%r7
 4664 0064 0304     		se_mfar %r4,%r8
 4665 0066 C251     		se_lwz %r5,8(%r1)
 4666 0068 C361     		se_lwz %r6,12(%r1)
 4667 006a 78000001 		e_bl __muldf3
 4668 006e 0240     		se_mtar %r8,%r4
 4669 0070 0137     		se_mr %r7,%r3
 4670 0072 D471     		se_stw %r7,16(%r1)
 4671 0074 55010014 		e_stw %r8,20(%r1)
 4672              		.loc 3 609 0
 4673 0078 50610058 		e_lwz %r3,88(%r1)
 4674 007c 5081005C 		e_lwz %r4,92(%r1)
 4675 0080 78000001 		e_bl deg_to_rad
 4676 0084 0240     		se_mtar %r8,%r4
 4677 0086 0137     		se_mr %r7,%r3
 4678 0088 0173     		se_mr %r3,%r7
 4679 008a 0304     		se_mfar %r4,%r8
 4680 008c 78000001 		e_bl sin
 4681 0090 0240     		se_mtar %r8,%r4
 4682 0092 0137     		se_mr %r7,%r3
 4683 0094 0173     		se_mr %r3,%r7
 4684 0096 0304     		se_mfar %r4,%r8
 4685 0098 C251     		se_lwz %r5,8(%r1)
 4686 009a C361     		se_lwz %r6,12(%r1)
 4687 009c 78000001 		e_bl __muldf3
 4688 00a0 0240     		se_mtar %r8,%r4
 4689 00a2 0137     		se_mr %r7,%r3
 4690 00a4 D671     		se_stw %r7,24(%r1)
 4691 00a6 5501001C 		e_stw %r8,28(%r1)
 4692              		.loc 3 610 0
 4693 00aa C471     		se_lwz %r7,16(%r1)
 4694 00ac 51010014 		e_lwz %r8,20(%r1)
 4695 00b0 D871     		se_stw %r7,32(%r1)
 4696 00b2 55010024 		e_stw %r8,36(%r1)
 4697 00b6 C671     		se_lwz %r7,24(%r1)
 4698 00b8 5101001C 		e_lwz %r8,28(%r1)
 4699 00bc DA71     		se_stw %r7,40(%r1)
 4700 00be 5501002C 		e_stw %r8,44(%r1)
 4701 00c2 C271     		se_lwz %r7,8(%r1)
 4702 00c4 5101000C 		e_lwz %r8,12(%r1)
 4703 00c8 DC71     		se_stw %r7,48(%r1)
 4704 00ca 55010034 		e_stw %r8,52(%r1)
 4705 00ce 50E10058 		e_lwz %r7,88(%r1)
 4706 00d2 5101005C 		e_lwz %r8,92(%r1)
 4707 00d6 DE71     		se_stw %r7,56(%r1)
 4708 00d8 5501003C 		e_stw %r8,60(%r1)
 4709              		.loc 3 611 0
 4710 00dc 50E10048 		e_lwz %r7,72(%r1)
 4711 00e0 C831     		se_lwz %r3,32(%r1)
 4712 00e2 C941     		se_lwz %r4,36(%r1)
 4713 00e4 CA51     		se_lwz %r5,40(%r1)
GAS LISTING C:\Users\cerru\AppData\Local\Temp\ccX7DVb9.s 			page 86


 4714 00e6 CB61     		se_lwz %r6,44(%r1)
 4715 00e8 D037     		se_stw %r3,0(%r7)
 4716 00ea D147     		se_stw %r4,4(%r7)
 4717 00ec D257     		se_stw %r5,8(%r7)
 4718 00ee D367     		se_stw %r6,12(%r7)
 4719 00f0 CC31     		se_lwz %r3,48(%r1)
 4720 00f2 CD41     		se_lwz %r4,52(%r1)
 4721 00f4 CE51     		se_lwz %r5,56(%r1)
 4722 00f6 CF61     		se_lwz %r6,60(%r1)
 4723 00f8 D437     		se_stw %r3,16(%r7)
 4724 00fa D547     		se_stw %r4,20(%r7)
 4725 00fc D657     		se_stw %r5,24(%r7)
 4726 00fe D767     		se_stw %r6,28(%r7)
 4727              		.loc 3 612 0
 4728 0100 50610048 		e_lwz %r3,72(%r1)
 4729 0104 50010064 		e_lwz %r0,100(%r1)
 4730 0108 0090     		se_mtlr %r0
 4731 010a 18218060 		e_addi %r1,%r1,96
 4732              	.LCFI57:
 4733              		.cfi_def_cfa_offset 0
 4734 010e 0004     		se_blr
 4735              		.cfi_endproc
 4736              	.LFE32:
 4737              		.size	punto_rispetto_al_centro, .-punto_rispetto_al_centro
 4738              		.section	.text.controlla_passaggio,"axv",@progbits
 4739              		.align 1
 4740              		.p2align 4,,15
 4741              		.globl controlla_passaggio
 4742              		.type	controlla_passaggio, @function
 4743              	controlla_passaggio:
 4744              	.LFB33:
 4745              		.loc 3 621 0
 4746              		.cfi_startproc
 4747 0000 182106A8 		e_stwu %r1,-88(%r1)
 4748              	.LCFI58:
 4749              		.cfi_def_cfa_offset 88
 4750 0004 0080     		se_mflr %r0
 4751 0006 5401005C 		e_stw %r0,92(%r1)
 4752 000a 1A410920 		e_stmw %r18,32(%r1)
 4753              		.cfi_offset 65, 4
 4754              		.cfi_offset 18, -56
 4755              		.cfi_offset 19, -52
 4756              		.cfi_offset 20, -48
 4757              		.cfi_offset 21, -44
 4758              		.cfi_offset 22, -40
 4759              		.cfi_offset 23, -36
 4760              		.cfi_offset 24, -32
 4761              		.cfi_offset 25, -28
 4762              		.cfi_offset 26, -24
 4763              		.cfi_offset 27, -20
 4764              		.cfi_offset 28, -16
 4765              		.cfi_offset 29, -12
 4766              		.cfi_offset 30, -8
 4767              		.cfi_offset 31, -4
 4768 000e D631     		se_stw %r3,24(%r1)
 4769 0010 D741     		se_stw %r4,28(%r1)
 4770              	.LBB19:
GAS LISTING C:\Users\cerru\AppData\Local\Temp\ccX7DVb9.s 			page 87


 4771              		.loc 3 622 0
 4772 0012 4807     		se_li %r7,0
 4773 0014 D271     		se_stw %r7,8(%r1)
 4774 0016 780005EA 		e_b .L201
 4775              	.L223:
 4776              	.LBB20:
 4777              		.loc 3 624 0
 4778 001a 4807     		se_li %r7,0
 4779 001c D371     		se_stw %r7,12(%r1)
 4780              		.loc 3 625 0
 4781 001e 70E0E000 		e_lis %r7,num_v_c@ha
 4782 0022 50E70000 		e_lwz %r7,num_v_c@l(%r7)
 4783 0026 2A07     		se_cmpi %r7,0
 4784 0028 7F800020 		e_mcrf %cr7,%cr0
 4785 002c 7CE00026 		mfcr %r7
 4786 0030 74E7E007 		e_rlwinm %r7,%r7,28,0xf0000000
 4787 0034 7CE80120 		mtcrf 128,%r7
 4788 0038 7A010276 		e_ble %cr0,.L202
 4789              		.loc 3 626 0
 4790 003c C731     		se_lwz %r3,28(%r1)
 4791 003e 78000001 		e_bl __floatsidf
 4792 0042 024B     		se_mtar %r19,%r4
 4793 0044 023A     		se_mtar %r18,%r3
 4794 0046 70E0E000 		e_lis %r7,vicoli_cechi@ha
 4795 004a 1CA70000 		e_la %r5,vicoli_cechi@l(%r7)
 4796 004e C271     		se_lwz %r7,8(%r1)
 4797 0050 0176     		se_mr %r6,%r7
 4798 0052 7CC71870 		e_slwi %r7,%r6,3
 4799 0056 0176     		se_mr %r6,%r7
 4800 0058 7CC71070 		e_slwi %r7,%r6,2
 4801 005c 0667     		se_sub %r7, %r6
 4802 005e 7CE53A14 		add %r7,%r5,%r7
 4803 0062 20F7     		se_addi %r7,16
 4804 0064 51070004 		e_lwz %r8,4(%r7)
 4805 0068 C077     		se_lwz %r7,0(%r7)
 4806 006a 0173     		se_mr %r3,%r7
 4807 006c 0304     		se_mfar %r4,%r8
 4808 006e 70A8E024 		e_lis %r5,0x4024
 4809 0072 4806     		se_li %r6,0
 4810 0074 78000001 		e_bl __subdf3
 4811 0078 0240     		se_mtar %r8,%r4
 4812 007a 0137     		se_mr %r7,%r3
 4813              		.loc 3 629 0
 4814 007c 03A3     		se_mfar %r3,%r18
 4815 007e 03B4     		se_mfar %r4,%r19
 4816 0080 0175     		se_mr %r5,%r7
 4817 0082 0306     		se_mfar %r6,%r8
 4818 0084 78000001 		e_bl __gtdf2
 4819 0088 0137     		se_mr %r7,%r3
 4820 008a 2A07     		se_cmpi %r7,0
 4821 008c 7F800020 		e_mcrf %cr7,%cr0
 4822 0090 7CE00026 		mfcr %r7
 4823 0094 74E7E007 		e_rlwinm %r7,%r7,28,0xf0000000
 4824 0098 7CE80120 		mtcrf 128,%r7
 4825 009c 7A01020E 		e_ble %cr0,.L203
 4826              		.loc 3 627 0
 4827 00a0 C731     		se_lwz %r3,28(%r1)
GAS LISTING C:\Users\cerru\AppData\Local\Temp\ccX7DVb9.s 			page 88


 4828 00a2 78000001 		e_bl __floatsidf
 4829 00a6 024B     		se_mtar %r19,%r4
 4830 00a8 023A     		se_mtar %r18,%r3
 4831 00aa 70E0E000 		e_lis %r7,vicoli_cechi@ha
 4832 00ae 1CA70000 		e_la %r5,vicoli_cechi@l(%r7)
 4833 00b2 C271     		se_lwz %r7,8(%r1)
 4834 00b4 0176     		se_mr %r6,%r7
 4835 00b6 7CC71870 		e_slwi %r7,%r6,3
 4836 00ba 0176     		se_mr %r6,%r7
 4837 00bc 7CC71070 		e_slwi %r7,%r6,2
 4838 00c0 0667     		se_sub %r7, %r6
 4839 00c2 7CE53A14 		add %r7,%r5,%r7
 4840 00c6 20F7     		se_addi %r7,16
 4841 00c8 51070004 		e_lwz %r8,4(%r7)
 4842 00cc C077     		se_lwz %r7,0(%r7)
 4843 00ce 0173     		se_mr %r3,%r7
 4844 00d0 0304     		se_mfar %r4,%r8
 4845 00d2 70A8E024 		e_lis %r5,0x4024
 4846 00d6 4806     		se_li %r6,0
 4847 00d8 78000001 		e_bl __adddf3
 4848 00dc 0240     		se_mtar %r8,%r4
 4849 00de 0137     		se_mr %r7,%r3
 4850              		.loc 3 626 0
 4851 00e0 03A3     		se_mfar %r3,%r18
 4852 00e2 03B4     		se_mfar %r4,%r19
 4853 00e4 0175     		se_mr %r5,%r7
 4854 00e6 0306     		se_mfar %r6,%r8
 4855 00e8 78000001 		e_bl __ltdf2
 4856 00ec 0137     		se_mr %r7,%r3
 4857 00ee 2A07     		se_cmpi %r7,0
 4858 00f0 7F800020 		e_mcrf %cr7,%cr0
 4859 00f4 7CE00026 		mfcr %r7
 4860 00f8 74E7E007 		e_rlwinm %r7,%r7,28,0xf0000000
 4861 00fc 7CE80120 		mtcrf 128,%r7
 4862 0100 7A0001AA 		e_bge %cr0,.L203
 4863              		.loc 3 628 0
 4864 0104 70E0E000 		e_lis %r7,actual@ha
 4865 0108 1CE70000 		e_la %r7,actual@l(%r7)
 4866 010c 52470000 		e_lwz %r18,0(%r7)
 4867 0110 52670004 		e_lwz %r19,4(%r7)
 4868 0114 70E0E000 		e_lis %r7,vicoli_cechi@ha
 4869 0118 1CA70000 		e_la %r5,vicoli_cechi@l(%r7)
 4870 011c C271     		se_lwz %r7,8(%r1)
 4871 011e 0176     		se_mr %r6,%r7
 4872 0120 7CC71870 		e_slwi %r7,%r6,3
 4873 0124 0176     		se_mr %r6,%r7
 4874 0126 7CC71070 		e_slwi %r7,%r6,2
 4875 012a 0667     		se_sub %r7, %r6
 4876 012c 7CE53A14 		add %r7,%r5,%r7
 4877 0130 51070004 		e_lwz %r8,4(%r7)
 4878 0134 C077     		se_lwz %r7,0(%r7)
 4879 0136 0173     		se_mr %r3,%r7
 4880 0138 0304     		se_mfar %r4,%r8
 4881 013a 70A8E024 		e_lis %r5,0x4024
 4882 013e 4806     		se_li %r6,0
 4883 0140 78000001 		e_bl __subdf3
 4884 0144 0240     		se_mtar %r8,%r4
GAS LISTING C:\Users\cerru\AppData\Local\Temp\ccX7DVb9.s 			page 89


 4885 0146 0137     		se_mr %r7,%r3
 4886              		.loc 3 627 0
 4887 0148 03A3     		se_mfar %r3,%r18
 4888 014a 03B4     		se_mfar %r4,%r19
 4889 014c 0175     		se_mr %r5,%r7
 4890 014e 0306     		se_mfar %r6,%r8
 4891 0150 78000001 		e_bl __gtdf2
 4892 0154 0137     		se_mr %r7,%r3
 4893 0156 2A07     		se_cmpi %r7,0
 4894 0158 7F800020 		e_mcrf %cr7,%cr0
 4895 015c 7CE00026 		mfcr %r7
 4896 0160 74E7E007 		e_rlwinm %r7,%r7,28,0xf0000000
 4897 0164 7CE80120 		mtcrf 128,%r7
 4898 0168 7A010142 		e_ble %cr0,.L203
 4899              		.loc 3 628 0
 4900 016c 70E0E000 		e_lis %r7,actual@ha
 4901 0170 1CE70000 		e_la %r7,actual@l(%r7)
 4902 0174 52470000 		e_lwz %r18,0(%r7)
 4903 0178 52670004 		e_lwz %r19,4(%r7)
 4904 017c 70E0E000 		e_lis %r7,vicoli_cechi@ha
 4905 0180 1CA70000 		e_la %r5,vicoli_cechi@l(%r7)
 4906 0184 C271     		se_lwz %r7,8(%r1)
 4907 0186 0176     		se_mr %r6,%r7
 4908 0188 7CC71870 		e_slwi %r7,%r6,3
 4909 018c 0176     		se_mr %r6,%r7
 4910 018e 7CC71070 		e_slwi %r7,%r6,2
 4911 0192 0667     		se_sub %r7, %r6
 4912 0194 7CE53A14 		add %r7,%r5,%r7
 4913 0198 51070004 		e_lwz %r8,4(%r7)
 4914 019c C077     		se_lwz %r7,0(%r7)
 4915 019e 0173     		se_mr %r3,%r7
 4916 01a0 0304     		se_mfar %r4,%r8
 4917 01a2 70A8E024 		e_lis %r5,0x4024
 4918 01a6 4806     		se_li %r6,0
 4919 01a8 78000001 		e_bl __adddf3
 4920 01ac 0240     		se_mtar %r8,%r4
 4921 01ae 0137     		se_mr %r7,%r3
 4922 01b0 03A3     		se_mfar %r3,%r18
 4923 01b2 03B4     		se_mfar %r4,%r19
 4924 01b4 0175     		se_mr %r5,%r7
 4925 01b6 0306     		se_mfar %r6,%r8
 4926 01b8 78000001 		e_bl __ltdf2
 4927 01bc 0137     		se_mr %r7,%r3
 4928 01be 2A07     		se_cmpi %r7,0
 4929 01c0 7F800020 		e_mcrf %cr7,%cr0
 4930 01c4 7CE00026 		mfcr %r7
 4931 01c8 74E7E007 		e_rlwinm %r7,%r7,28,0xf0000000
 4932 01cc 7CE80120 		mtcrf 128,%r7
 4933 01d0 7A0000DA 		e_bge %cr0,.L203
 4934              		.loc 3 629 0 discriminator 1
 4935 01d4 70E0E000 		e_lis %r7,actual@ha
 4936 01d8 1CE70000 		e_la %r7,actual@l(%r7)
 4937 01dc 52470008 		e_lwz %r18,8(%r7)
 4938 01e0 5267000C 		e_lwz %r19,12(%r7)
 4939 01e4 70E0E000 		e_lis %r7,vicoli_cechi@ha
 4940 01e8 1CA70000 		e_la %r5,vicoli_cechi@l(%r7)
 4941 01ec C271     		se_lwz %r7,8(%r1)
GAS LISTING C:\Users\cerru\AppData\Local\Temp\ccX7DVb9.s 			page 90


 4942 01ee 0176     		se_mr %r6,%r7
 4943 01f0 7CC71870 		e_slwi %r7,%r6,3
 4944 01f4 0176     		se_mr %r6,%r7
 4945 01f6 7CC71070 		e_slwi %r7,%r6,2
 4946 01fa 0667     		se_sub %r7, %r6
 4947 01fc 7CE53A14 		add %r7,%r5,%r7
 4948 0200 5107000C 		e_lwz %r8,12(%r7)
 4949 0204 C277     		se_lwz %r7,8(%r7)
 4950 0206 0173     		se_mr %r3,%r7
 4951 0208 0304     		se_mfar %r4,%r8
 4952 020a 70A8E024 		e_lis %r5,0x4024
 4953 020e 4806     		se_li %r6,0
 4954 0210 78000001 		e_bl __subdf3
 4955 0214 0240     		se_mtar %r8,%r4
 4956 0216 0137     		se_mr %r7,%r3
 4957              		.loc 3 628 0 discriminator 1
 4958 0218 03A3     		se_mfar %r3,%r18
 4959 021a 03B4     		se_mfar %r4,%r19
 4960 021c 0175     		se_mr %r5,%r7
 4961 021e 0306     		se_mfar %r6,%r8
 4962 0220 78000001 		e_bl __gtdf2
 4963 0224 0137     		se_mr %r7,%r3
 4964 0226 2A07     		se_cmpi %r7,0
 4965 0228 7F800020 		e_mcrf %cr7,%cr0
 4966 022c 7CE00026 		mfcr %r7
 4967 0230 74E7E007 		e_rlwinm %r7,%r7,28,0xf0000000
 4968 0234 7CE80120 		mtcrf 128,%r7
 4969 0238 7A010072 		e_ble %cr0,.L203
 4970              		.loc 3 629 0 discriminator 3
 4971 023c 70E0E000 		e_lis %r7,actual@ha
 4972 0240 1CE70000 		e_la %r7,actual@l(%r7)
 4973 0244 52470008 		e_lwz %r18,8(%r7)
 4974 0248 5267000C 		e_lwz %r19,12(%r7)
 4975 024c 70E0E000 		e_lis %r7,vicoli_cechi@ha
 4976 0250 1CA70000 		e_la %r5,vicoli_cechi@l(%r7)
 4977 0254 C271     		se_lwz %r7,8(%r1)
 4978 0256 0176     		se_mr %r6,%r7
 4979 0258 7CC71870 		e_slwi %r7,%r6,3
 4980 025c 0176     		se_mr %r6,%r7
 4981 025e 7CC71070 		e_slwi %r7,%r6,2
 4982 0262 0667     		se_sub %r7, %r6
 4983 0264 7CE53A14 		add %r7,%r5,%r7
 4984 0268 5107000C 		e_lwz %r8,12(%r7)
 4985 026c C277     		se_lwz %r7,8(%r7)
 4986 026e 0173     		se_mr %r3,%r7
 4987 0270 0304     		se_mfar %r4,%r8
 4988 0272 70A8E024 		e_lis %r5,0x4024
 4989 0276 4806     		se_li %r6,0
 4990 0278 78000001 		e_bl __adddf3
 4991 027c 0240     		se_mtar %r8,%r4
 4992 027e 0137     		se_mr %r7,%r3
 4993 0280 03A3     		se_mfar %r3,%r18
 4994 0282 03B4     		se_mfar %r4,%r19
 4995 0284 0175     		se_mr %r5,%r7
 4996 0286 0306     		se_mfar %r6,%r8
 4997 0288 78000001 		e_bl __ltdf2
 4998 028c 0137     		se_mr %r7,%r3
GAS LISTING C:\Users\cerru\AppData\Local\Temp\ccX7DVb9.s 			page 91


 4999 028e 2A07     		se_cmpi %r7,0
 5000 0290 7F800020 		e_mcrf %cr7,%cr0
 5001 0294 7CE00026 		mfcr %r7
 5002 0298 74E7E007 		e_rlwinm %r7,%r7,28,0xf0000000
 5003 029c 7CE80120 		mtcrf 128,%r7
 5004 02a0 7A00000A 		e_bge %cr0,.L203
 5005              		.loc 3 629 0 is_stmt 0 discriminator 2
 5006 02a4 4817     		se_li %r7,1
 5007 02a6 78000006 		e_b .L210
 5008              	.L203:
 5009              		.loc 3 629 0 discriminator 1
 5010 02aa 4807     		se_li %r7,0
 5011              	.L210:
 5012              		.loc 3 626 0 is_stmt 1
 5013 02ac D371     		se_stw %r7,12(%r1)
 5014              	.L202:
 5015              		.loc 3 631 0
 5016 02ae C371     		se_lwz %r7,12(%r1)
 5017 02b0 2A07     		se_cmpi %r7,0
 5018 02b2 7F800020 		e_mcrf %cr7,%cr0
 5019 02b6 7CE00026 		mfcr %r7
 5020 02ba 74E7E007 		e_rlwinm %r7,%r7,28,0xf0000000
 5021 02be 7CE80120 		mtcrf 128,%r7
 5022 02c2 7A020338 		e_bne %cr0,.L211
 5023              	.LBB21:
 5024              		.loc 3 632 0
 5025 02c6 C731     		se_lwz %r3,28(%r1)
 5026 02c8 78000001 		e_bl __floatsidf
 5027 02cc 024B     		se_mtar %r19,%r4
 5028 02ce 023A     		se_mtar %r18,%r3
 5029 02d0 70E0E000 		e_lis %r7,actual@ha
 5030 02d4 1CE70000 		e_la %r7,actual@l(%r7)
 5031 02d8 51070014 		e_lwz %r8,20(%r7)
 5032 02dc C477     		se_lwz %r7,16(%r7)
 5033 02de 0173     		se_mr %r3,%r7
 5034 02e0 0304     		se_mfar %r4,%r8
 5035 02e2 78000001 		e_bl format_angle
 5036 02e6 0240     		se_mtar %r8,%r4
 5037 02e8 0137     		se_mr %r7,%r3
 5038 02ea 03A3     		se_mfar %r3,%r18
 5039 02ec 03B4     		se_mfar %r4,%r19
 5040 02ee 0175     		se_mr %r5,%r7
 5041 02f0 0306     		se_mfar %r6,%r8
 5042 02f2 78000001 		e_bl __subdf3
 5043 02f6 0240     		se_mtar %r8,%r4
 5044 02f8 0137     		se_mr %r7,%r3
 5045 02fa 0173     		se_mr %r3,%r7
 5046 02fc 0304     		se_mfar %r4,%r8
 5047 02fe 78000001 		e_bl format_angle
 5048 0302 D431     		se_stw %r3,16(%r1)
 5049 0304 D541     		se_stw %r4,20(%r1)
 5050              		.loc 3 633 0
 5051 0306 C471     		se_lwz %r7,16(%r1)
 5052 0308 18FEC77F 		e_andi %r30,%r7,2147483647
 5053 030c C5F1     		se_lwz %r31,20(%r1)
 5054 030e 72600001 		e_li %r19,1
 5055 0312 01E3     		se_mr %r3,%r30
GAS LISTING C:\Users\cerru\AppData\Local\Temp\ccX7DVb9.s 			page 92


 5056 0314 01F4     		se_mr %r4,%r31
 5057 0316 70A8E060 		e_lis %r5,0x4060
 5058 031a 18A5D1E0 		e_ori %r5,%r5,57344
 5059 031e 4806     		se_li %r6,0
 5060 0320 78000001 		e_bl __gtdf2
 5061 0324 0137     		se_mr %r7,%r3
 5062 0326 2A07     		se_cmpi %r7,0
 5063 0328 7F800020 		e_mcrf %cr7,%cr0
 5064 032c 7CE00026 		mfcr %r7
 5065 0330 74E7E007 		e_rlwinm %r7,%r7,28,0xf0000000
 5066 0334 7CE80120 		mtcrf 128,%r7
 5067 0338 7A110008 		e_bgt %cr0,.L212
 5068 033c 72600000 		e_li %r19,0
 5069              	.L212:
 5070 0340 7667063F 		e_rlwinm %r7,%r19,0,0xff
 5071 0344 18E7E001 		e_xori %r7,%r7,1
 5072 0348 00C7     		se_extzb %r7
 5073 034a 2A07     		se_cmpi %r7,0
 5074 034c 7F800020 		e_mcrf %cr7,%cr0
 5075 0350 7CE00026 		mfcr %r7
 5076 0354 74E7E007 		e_rlwinm %r7,%r7,28,0xf0000000
 5077 0358 7CE80120 		mtcrf 128,%r7
 5078 035c 7A020090 		e_bne %cr0,.L213
 5079              		.loc 3 633 0 is_stmt 0 discriminator 1
 5080 0360 C471     		se_lwz %r7,16(%r1)
 5081 0362 18FCC77F 		e_andi %r28,%r7,2147483647
 5082 0366 C5D1     		se_lwz %r29,20(%r1)
 5083 0368 72600001 		e_li %r19,1
 5084 036c 01C3     		se_mr %r3,%r28
 5085 036e 01D4     		se_mr %r4,%r29
 5086 0370 70A8E06C 		e_lis %r5,0x406c
 5087 0374 6525     		se_bseti %r5,18
 5088 0376 4806     		se_li %r6,0
 5089 0378 78000001 		e_bl __ltdf2
 5090 037c 0137     		se_mr %r7,%r3
 5091 037e 2A07     		se_cmpi %r7,0
 5092 0380 7F800020 		e_mcrf %cr7,%cr0
 5093 0384 7CE00026 		mfcr %r7
 5094 0388 74E7E007 		e_rlwinm %r7,%r7,28,0xf0000000
 5095 038c 7CE80120 		mtcrf 128,%r7
 5096 0390 7A100008 		e_blt %cr0,.L214
 5097 0394 72600000 		e_li %r19,0
 5098              	.L214:
 5099 0398 7667063F 		e_rlwinm %r7,%r19,0,0xff
 5100 039c 18E7E001 		e_xori %r7,%r7,1
 5101 03a0 00C7     		se_extzb %r7
 5102 03a2 2A07     		se_cmpi %r7,0
 5103 03a4 7F800020 		e_mcrf %cr7,%cr0
 5104 03a8 7CE00026 		mfcr %r7
 5105 03ac 74E7E007 		e_rlwinm %r7,%r7,28,0xf0000000
 5106 03b0 7CE80120 		mtcrf 128,%r7
 5107 03b4 7A020038 		e_bne %cr0,.L213
 5108              		.loc 3 633 0 discriminator 2
 5109 03b8 C671     		se_lwz %r7,24(%r1)
 5110 03ba 2A17     		se_cmpi %r7,1
 5111 03bc 7F800020 		e_mcrf %cr7,%cr0
 5112 03c0 7CE00026 		mfcr %r7
GAS LISTING C:\Users\cerru\AppData\Local\Temp\ccX7DVb9.s 			page 93


 5113 03c4 74E7E007 		e_rlwinm %r7,%r7,28,0xf0000000
 5114 03c8 7CE80120 		mtcrf 128,%r7
 5115 03cc 7A120020 		e_beq %cr0,.L213
 5116              		.loc 3 634 0 is_stmt 1
 5117 03d0 C671     		se_lwz %r7,24(%r1)
 5118 03d2 18C784FF 		e_addi %r6,%r7,-1
 5119 03d6 C271     		se_lwz %r7,8(%r1)
 5120 03d8 7F863800 		cmp %cr7,%r6,%r7
 5121 03dc 7CE00026 		mfcr %r7
 5122 03e0 74E7E007 		e_rlwinm %r7,%r7,28,0xf0000000
 5123 03e4 7CE80120 		mtcrf 128,%r7
 5124 03e8 7A020212 		e_bne %cr0,.L211
 5125              	.L213:
 5126              		.loc 3 635 0
 5127 03ec C431     		se_lwz %r3,16(%r1)
 5128 03ee C541     		se_lwz %r4,20(%r1)
 5129 03f0 4805     		se_li %r5,0
 5130 03f2 4806     		se_li %r6,0
 5131 03f4 78000001 		e_bl __ltdf2
 5132 03f8 0137     		se_mr %r7,%r3
 5133 03fa 2A07     		se_cmpi %r7,0
 5134 03fc 7F800020 		e_mcrf %cr7,%cr0
 5135 0400 7CE00026 		mfcr %r7
 5136 0404 74E7E007 		e_rlwinm %r7,%r7,28,0xf0000000
 5137 0408 7CE80120 		mtcrf 128,%r7
 5138 040c 7A000022 		e_bge %cr0,.L234
 5139              		.loc 3 636 0
 5140 0410 C471     		se_lwz %r7,16(%r1)
 5141 0412 18FAC77F 		e_andi %r26,%r7,2147483647
 5142 0416 C5B1     		se_lwz %r27,20(%r1)
 5143 0418 01A3     		se_mr %r3,%r26
 5144 041a 01B4     		se_mr %r4,%r27
 5145 041c 78000001 		e_bl __fixdfsi
 5146 0420 0137     		se_mr %r7,%r3
 5147 0422 0173     		se_mr %r3,%r7
 5148 0424 4814     		se_li %r4,1
 5149 0426 78000001 		e_bl move
 5150 042a 78000042 		e_b .L217
 5151              	.L234:
 5152              		.loc 3 637 0
 5153 042e C431     		se_lwz %r3,16(%r1)
 5154 0430 C541     		se_lwz %r4,20(%r1)
 5155 0432 4805     		se_li %r5,0
 5156 0434 4806     		se_li %r6,0
 5157 0436 78000001 		e_bl __gtdf2
 5158 043a 0137     		se_mr %r7,%r3
 5159 043c 2A07     		se_cmpi %r7,0
 5160 043e 7F800020 		e_mcrf %cr7,%cr0
 5161 0442 7CE00026 		mfcr %r7
 5162 0446 74E7E007 		e_rlwinm %r7,%r7,28,0xf0000000
 5163 044a 7CE80120 		mtcrf 128,%r7
 5164 044e 7A01001E 		e_ble %cr0,.L217
 5165              		.loc 3 638 0
 5166 0452 C471     		se_lwz %r7,16(%r1)
 5167 0454 18F8C77F 		e_andi %r24,%r7,2147483647
 5168 0458 C591     		se_lwz %r25,20(%r1)
 5169 045a 0183     		se_mr %r3,%r24
GAS LISTING C:\Users\cerru\AppData\Local\Temp\ccX7DVb9.s 			page 94


 5170 045c 0194     		se_mr %r4,%r25
 5171 045e 78000001 		e_bl __fixdfsi
 5172 0462 0137     		se_mr %r7,%r3
 5173 0464 0173     		se_mr %r3,%r7
 5174 0466 4804     		se_li %r4,0
 5175 0468 78000001 		e_bl move
 5176              	.L217:
 5177              		.loc 3 642 0
 5178 046c C471     		se_lwz %r7,16(%r1)
 5179 046e 18F6C77F 		e_andi %r22,%r7,2147483647
 5180 0472 52E10014 		e_lwz %r23,20(%r1)
 5181 0476 03E3     		se_mfar %r3,%r22
 5182 0478 03F4     		se_mfar %r4,%r23
 5183 047a 70A8E060 		e_lis %r5,0x4060
 5184 047e 18A5D1E0 		e_ori %r5,%r5,57344
 5185 0482 4806     		se_li %r6,0
 5186 0484 78000001 		e_bl __gtdf2
 5187 0488 0137     		se_mr %r7,%r3
 5188 048a 2A07     		se_cmpi %r7,0
 5189 048c 7F800020 		e_mcrf %cr7,%cr0
 5190 0490 7CE00026 		mfcr %r7
 5191 0494 74E7E007 		e_rlwinm %r7,%r7,28,0xf0000000
 5192 0498 7CE80120 		mtcrf 128,%r7
 5193 049c 7A0100E8 		e_ble %cr0,.L219
 5194              		.loc 3 642 0 is_stmt 0 discriminator 1
 5195 04a0 C471     		se_lwz %r7,16(%r1)
 5196 04a2 18F4C77F 		e_andi %r20,%r7,2147483647
 5197 04a6 52A10014 		e_lwz %r21,20(%r1)
 5198 04aa 03C3     		se_mfar %r3,%r20
 5199 04ac 03D4     		se_mfar %r4,%r21
 5200 04ae 70A8E06C 		e_lis %r5,0x406c
 5201 04b2 6525     		se_bseti %r5,18
 5202 04b4 4806     		se_li %r6,0
 5203 04b6 78000001 		e_bl __ltdf2
 5204 04ba 0137     		se_mr %r7,%r3
 5205 04bc 2A07     		se_cmpi %r7,0
 5206 04be 7F800020 		e_mcrf %cr7,%cr0
 5207 04c2 7CE00026 		mfcr %r7
 5208 04c6 74E7E007 		e_rlwinm %r7,%r7,28,0xf0000000
 5209 04ca 7CE80120 		mtcrf 128,%r7
 5210 04ce 7A0000B6 		e_bge %cr0,.L219
 5211              		.loc 3 643 0 is_stmt 1
 5212 04d2 70E0E000 		e_lis %r7,num_v_c@ha
 5213 04d6 50A70000 		e_lwz %r5,num_v_c@l(%r7)
 5214 04da 70E0E000 		e_lis %r7,precedent_position@ha
 5215 04de 1CE70000 		e_la %r7,precedent_position@l(%r7)
 5216 04e2 51070014 		e_lwz %r8,20(%r7)
 5217 04e6 C477     		se_lwz %r7,16(%r7)
 5218 04e8 70C0E000 		e_lis %r6,vicoli_cechi@ha
 5219 04ec 1C860000 		e_la %r4,vicoli_cechi@l(%r6)
 5220 04f0 7CA61870 		e_slwi %r6,%r5,3
 5221 04f4 0165     		se_mr %r5,%r6
 5222 04f6 7CA61070 		e_slwi %r6,%r5,2
 5223 04fa 0656     		se_sub %r6, %r5
 5224 04fc 7CC43214 		add %r6,%r4,%r6
 5225 0500 20F6     		se_addi %r6,16
 5226 0502 D076     		se_stw %r7,0(%r6)
GAS LISTING C:\Users\cerru\AppData\Local\Temp\ccX7DVb9.s 			page 95


 5227 0504 55060004 		e_stw %r8,4(%r6)
 5228              		.loc 3 644 0
 5229 0508 70E0E000 		e_lis %r7,num_v_c@ha
 5230 050c 50A70000 		e_lwz %r5,num_v_c@l(%r7)
 5231 0510 70E0E000 		e_lis %r7,precedent_position@ha
 5232 0514 1CE70000 		e_la %r7,precedent_position@l(%r7)
 5233 0518 51070004 		e_lwz %r8,4(%r7)
 5234 051c C077     		se_lwz %r7,0(%r7)
 5235 051e 70C0E000 		e_lis %r6,vicoli_cechi@ha
 5236 0522 1C860000 		e_la %r4,vicoli_cechi@l(%r6)
 5237 0526 7CA61870 		e_slwi %r6,%r5,3
 5238 052a 0165     		se_mr %r5,%r6
 5239 052c 7CA61070 		e_slwi %r6,%r5,2
 5240 0530 0656     		se_sub %r6, %r5
 5241 0532 7CC43214 		add %r6,%r4,%r6
 5242 0536 D076     		se_stw %r7,0(%r6)
 5243 0538 55060004 		e_stw %r8,4(%r6)
 5244              		.loc 3 645 0
 5245 053c 70E0E000 		e_lis %r7,num_v_c@ha
 5246 0540 50A70000 		e_lwz %r5,num_v_c@l(%r7)
 5247 0544 70E0E000 		e_lis %r7,precedent_position@ha
 5248 0548 1CE70000 		e_la %r7,precedent_position@l(%r7)
 5249 054c 5107000C 		e_lwz %r8,12(%r7)
 5250 0550 C277     		se_lwz %r7,8(%r7)
 5251 0552 70C0E000 		e_lis %r6,vicoli_cechi@ha
 5252 0556 1C860000 		e_la %r4,vicoli_cechi@l(%r6)
 5253 055a 7CA61870 		e_slwi %r6,%r5,3
 5254 055e 0165     		se_mr %r5,%r6
 5255 0560 7CA61070 		e_slwi %r6,%r5,2
 5256 0564 0656     		se_sub %r6, %r5
 5257 0566 7CC43214 		add %r6,%r4,%r6
 5258 056a D276     		se_stw %r7,8(%r6)
 5259 056c 5506000C 		e_stw %r8,12(%r6)
 5260              		.loc 3 646 0
 5261 0570 70E0E000 		e_lis %r7,num_v_c@ha
 5262 0574 50E70000 		e_lwz %r7,num_v_c@l(%r7)
 5263 0578 18C78001 		e_addi %r6,%r7,1
 5264 057c 70E0E000 		e_lis %r7,num_v_c@ha
 5265 0580 54C70000 		e_stw %r6,num_v_c@l(%r7)
 5266              	.L219:
 5267              		.loc 3 650 0
 5268 0584 70E0E000 		e_lis %r7,actual@ha
 5269 0588 1CE70000 		e_la %r7,actual@l(%r7)
 5270 058c 51070014 		e_lwz %r8,20(%r7)
 5271 0590 C477     		se_lwz %r7,16(%r7)
 5272 0592 70C0E000 		e_lis %r6,precedent_position@ha
 5273 0596 1CC60000 		e_la %r6,precedent_position@l(%r6)
 5274 059a D476     		se_stw %r7,16(%r6)
 5275 059c 55060014 		e_stw %r8,20(%r6)
 5276              		.loc 3 651 0
 5277 05a0 70E0E000 		e_lis %r7,actual@ha
 5278 05a4 1CE70000 		e_la %r7,actual@l(%r7)
 5279 05a8 51070004 		e_lwz %r8,4(%r7)
 5280 05ac C077     		se_lwz %r7,0(%r7)
 5281 05ae 70C0E000 		e_lis %r6,precedent_position@ha
 5282 05b2 1CC60000 		e_la %r6,precedent_position@l(%r6)
 5283 05b6 D076     		se_stw %r7,0(%r6)
GAS LISTING C:\Users\cerru\AppData\Local\Temp\ccX7DVb9.s 			page 96


 5284 05b8 55060004 		e_stw %r8,4(%r6)
 5285              		.loc 3 652 0
 5286 05bc 70E0E000 		e_lis %r7,actual@ha
 5287 05c0 1CE70000 		e_la %r7,actual@l(%r7)
 5288 05c4 5107000C 		e_lwz %r8,12(%r7)
 5289 05c8 C277     		se_lwz %r7,8(%r7)
 5290 05ca 70C0E000 		e_lis %r6,precedent_position@ha
 5291 05ce 1CC60000 		e_la %r6,precedent_position@l(%r6)
 5292 05d2 D276     		se_stw %r7,8(%r6)
 5293 05d4 5506000C 		e_stw %r8,12(%r6)
 5294              		.loc 3 653 0
 5295 05d8 70E00514 		e_li %r7,1300
 5296 05dc 1CE7FED4 		e_add16i %r7,%r7,-300
 5297 05e0 4B26     		se_li %r6,50
 5298 05e2 0667     		se_sub %r7, %r6
 5299 05e4 0173     		se_mr %r3,%r7
 5300 05e6 4824     		se_li %r4,2
 5301 05e8 78000001 		e_bl move
 5302              		.loc 3 654 0
 5303 05ec 706003E8 		e_li %r3,1000
 5304 05f0 78000001 		e_bl osalThreadDelayMilliseconds
 5305              		.loc 3 655 0
 5306 05f4 4817     		se_li %r7,1
 5307 05f6 7800002A 		e_b .L222
 5308              	.L211:
 5309              	.LBE21:
 5310              	.LBE20:
 5311              		.loc 3 622 0 discriminator 2
 5312 05fa C271     		se_lwz %r7,8(%r1)
 5313 05fc 2007     		se_addi %r7,1
 5314 05fe D271     		se_stw %r7,8(%r1)
 5315              	.L201:
 5316              		.loc 3 622 0 is_stmt 0 discriminator 1
 5317 0600 70E0E000 		e_lis %r7,num_v_c@ha
 5318 0604 50E70000 		e_lwz %r7,num_v_c@l(%r7)
 5319 0608 C261     		se_lwz %r6,8(%r1)
 5320 060a 7F863800 		cmp %cr7,%r6,%r7
 5321 060e 7CE00026 		mfcr %r7
 5322 0612 74E7E007 		e_rlwinm %r7,%r7,28,0xf0000000
 5323 0616 7CE80120 		mtcrf 128,%r7
 5324 061a 7A01FA00 		e_ble %cr0,.L223
 5325              	.LBE19:
 5326              		.loc 3 659 0 is_stmt 1
 5327 061e 4807     		se_li %r7,0
 5328              	.L222:
 5329              		.loc 3 660 0
 5330 0620 0173     		se_mr %r3,%r7
 5331 0622 5001005C 		e_lwz %r0,92(%r1)
 5332 0626 0090     		se_mtlr %r0
 5333 0628 1A410820 		e_lmw %r18,32(%r1)
 5334 062c 18218058 		e_addi %r1,%r1,88
 5335              	.LCFI59:
 5336              		.cfi_restore 31
 5337              		.cfi_restore 30
 5338              		.cfi_restore 29
 5339              		.cfi_restore 28
 5340              		.cfi_restore 27
GAS LISTING C:\Users\cerru\AppData\Local\Temp\ccX7DVb9.s 			page 97


 5341              		.cfi_restore 26
 5342              		.cfi_restore 25
 5343              		.cfi_restore 24
 5344              		.cfi_restore 23
 5345              		.cfi_restore 22
 5346              		.cfi_restore 21
 5347              		.cfi_restore 20
 5348              		.cfi_restore 19
 5349              		.cfi_restore 18
 5350              		.cfi_def_cfa_offset 0
 5351 0630 0004     		se_blr
 5352              		.cfi_endproc
 5353              	.LFE33:
 5354              		.size	controlla_passaggio, .-controlla_passaggio
 5355              		.section	.data.p.17808,"aw",@progbits
 5356              		.align 2
 5357              		.type	p.17808, @object
 5358              		.size	p.17808, 4
 5359              	p.17808:
 5360 0000 00000000 		.long	__heap_base__
 5361              		.section	.bss.newp.17809,"aw",@nobits
 5362              		.align 2
 5363              		.type	newp.17809, @object
 5364              		.size	newp.17809, 4
 5365              	newp.17809:
 5366 0000 00000000 		.zero	4
 5367              		.section	".text","axv"
 5368              	.Letext0:
 5369              		.file 4 "c:\\autodevkitstudio-2.1\\eclipse\\plugins\\com.st.tools.spc5.tools.gnu.gcc.ppcvle.win32_
 5370              		.file 5 "c:\\autodevkitstudio-2.1\\eclipse\\plugins\\com.st.tools.spc5.tools.gnu.gcc.ppcvle.win32_
 5371              		.file 6 "c:\\autodevkitstudio-2.1\\eclipse\\plugins\\com.st.tools.spc5.tools.gnu.gcc.ppcvle.win32_
 5372              		.file 7 "<built-in>"
 5373              		.file 8 "c:\\autodevkitstudio-2.1\\eclipse\\plugins\\com.st.tools.spc5.tools.gnu.gcc.ppcvle.win32_
 5374              		.file 9 "main.h"
 5375              		.file 10 "./components/spc582bxx_platform_component_rla/lib/include/typedefs.h"
 5376              		.file 11 "./components/spc582bxx_low_level_drivers_component_rla/lib/include/spc5_linflex.h"
 5377              		.file 12 "./components/spc582bxx_low_level_drivers_component_rla/lib/include/serial_lld.h"
 5378              		.file 13 "./components/spc582bxx_low_level_drivers_component_rla/lib/include/i2c_lld.h"
 5379              		.file 14 "./components/aek_sns_vl53l1x1_component_rla/cfg/AEK_SNS_VL53L1X1_cfg.h"
 5380              		.file 15 "./components/aek_sns_vl53l1x1_component_rla/lib/include/uld_include/VL53L1X_api.h"
 5381              		.file 16 "./components/aek_sns_vl53l1x1_component_rla/lib/include/uld_include/uld_api.h"
 5382              		.file 17 "./components/aek_ev_vnhx7xxx_component_rla/cfg/EV_VNHx7xxx_cfg.h"
 5383              		.file 18 "./components/aek_mot_sm81m1_component_rla/cfg/AEK_MOT_SM81M1_cfg.h"
 5384              		.file 19 "./components/aek_sns_vl53l1x1_component_rla/lib/include/AEK_SNS_VL53L1X1.h"
 5385              		.file 20 "./components/spc582bxx_low_level_drivers_component_rla/cfg/serial_lld_cfg.h"