GAS LISTING C:\Users\nascapro\AppData\Local\Temp\cczORafq.s 			page 1


   1              		.file	"osal.c"
   2              		.section	".text","axv"
   3              	.Ltext0:
   4              		.cfi_sections	.debug_frame
   5              		.section	.text.irqGetMsr,"axv",@progbits
   6              		.align 1
   7              		.p2align 4,,15
   8              		.type	irqGetMsr, @function
   9              	irqGetMsr:
  10              	.LFB0:
  11              		.file 1 "./components/spc582bxx_irq_component_rla/lib/include/irq.h"
  12              		.loc 1 83 0
  13              		.cfi_startproc
  14 0000 182106E8 		e_stwu %r1,-24(%r1)
  15              	.LCFI0:
  16              		.cfi_def_cfa_offset 24
  17              		.loc 1 85 0
  18 0004 4807     		se_li %r7,0
  19 0006 D271     		se_stw %r7,8(%r1)
  20              		.loc 1 87 0
  21              	 # 87 "./components/spc582bxx_irq_component_rla/lib/include/irq.h" 1
  22 0008 7CE000A6 		mfmsr %r7
  23              	 # 0 "" 2
  24 000c D271     		se_stw %r7,8(%r1)
  25              		.loc 1 89 0
  26 000e C271     		se_lwz %r7,8(%r1)
  27              		.loc 1 90 0
  28 0010 0173     		se_mr %r3,%r7
  29 0012 2171     		se_addi %r1,24
  30              	.LCFI1:
  31              		.cfi_def_cfa_offset 0
  32 0014 0004     		se_blr
  33              		.cfi_endproc
  34              	.LFE0:
  35              		.size	irqGetMsr, .-irqGetMsr
  36              		.section	.text.irqGetExtIntEnable,"axv",@progbits
  37              		.align 1
  38              		.p2align 4,,15
  39              		.type	irqGetExtIntEnable, @function
  40              	irqGetExtIntEnable:
  41              	.LFB1:
  42              		.loc 1 98 0
  43              		.cfi_startproc
  44 0000 182106E8 		e_stwu %r1,-24(%r1)
  45              	.LCFI2:
  46              		.cfi_def_cfa_offset 24
  47 0004 0080     		se_mflr %r0
  48 0006 D701     		se_stw %r0,28(%r1)
  49              		.cfi_offset 65, 4
  50              		.loc 1 102 0
  51 0008 78000001 		e_bl irqGetMsr
  52 000c D231     		se_stw %r3,8(%r1)
  53              		.loc 1 104 0
  54 000e C271     		se_lwz %r7,8(%r1)
  55 0010 68F7     		se_srwi %r7,15
  56 0012 2E17     		se_andi %r7,1
  57              		.loc 1 105 0
GAS LISTING C:\Users\nascapro\AppData\Local\Temp\cczORafq.s 			page 2


  58 0014 0173     		se_mr %r3,%r7
  59 0016 C701     		se_lwz %r0,28(%r1)
  60 0018 0090     		se_mtlr %r0
  61 001a 2171     		se_addi %r1,24
  62              	.LCFI3:
  63              		.cfi_def_cfa_offset 0
  64 001c 0004     		se_blr
  65              		.cfi_endproc
  66              	.LFE1:
  67              		.size	irqGetExtIntEnable, .-irqGetExtIntEnable
  68              		.section	.bss.osalTimeOps,"aw",@nobits
  69              		.align 2
  70              		.type	osalTimeOps, @object
  71              		.size	osalTimeOps, 48
  72              	osalTimeOps:
  73 0000 00000000 		.zero	48
  73      00000000 
  73      00000000 
  73      00000000 
  73      00000000 
  74              		.section	.bss.osal_ticks_per_sec,"aw",@nobits
  75              		.align 2
  76              		.type	osal_ticks_per_sec, @object
  77              		.size	osal_ticks_per_sec, 4
  78              	osal_ticks_per_sec:
  79 0000 00000000 		.zero	4
  80              		.section	.bss.osalsystime,"aw",@nobits
  81              		.align 2
  82              		.type	osalsystime, @object
  83              		.size	osalsystime, 4
  84              	osalsystime:
  85 0000 00000000 		.zero	4
  86              		.section	.bss.osalIsrCnt,"aw",@nobits
  87              		.align 2
  88              		.type	osalIsrCnt, @object
  89              		.size	osalIsrCnt, 4
  90              	osalIsrCnt:
  91 0000 00000000 		.zero	4
  92              		.section	.bss.osalIsExtIntEnable,"aw",@nobits
  93              		.align 2
  94              		.type	osalIsExtIntEnable, @object
  95              		.size	osalIsExtIntEnable, 4
  96              	osalIsExtIntEnable:
  97 0000 00000000 		.zero	4
  98              		.section	.text.osalSysTimeSetup,"axv",@progbits
  99              		.align 1
 100              		.p2align 4,,15
 101              		.globl osalSysTimeSetup
 102              		.type	osalSysTimeSetup, @function
 103              	osalSysTimeSetup:
 104              	.LFB2:
 105              		.file 2 "./components/spc582bxx_osal_component_rla/lib/src/osal.c"
 106              		.loc 2 102 0
 107              		.cfi_startproc
 108 0000 182106F0 		e_stwu %r1,-16(%r1)
 109              	.LCFI4:
 110              		.cfi_def_cfa_offset 16
GAS LISTING C:\Users\nascapro\AppData\Local\Temp\cczORafq.s 			page 3


 111 0004 0080     		se_mflr %r0
 112 0006 D501     		se_stw %r0,20(%r1)
 113              		.cfi_offset 65, 4
 114 0008 D231     		se_stw %r3,8(%r1)
 115              		.loc 2 104 0
 116 000a 70E0E000 		e_lis %r7,osal_ticks_per_sec@ha
 117 000e C261     		se_lwz %r6,8(%r1)
 118 0010 54C70000 		e_stw %r6,osal_ticks_per_sec@l(%r7)
 119              		.loc 2 106 0
 120 0014 C231     		se_lwz %r3,8(%r1)
 121 0016 78000001 		e_bl sysTimeSetup
 122              		.loc 2 108 0
 123 001a 70E0E000 		e_lis %r7,osalsystime@ha
 124 001e 1CE70000 		e_la %r7,osalsystime@l(%r7)
 125              		.loc 2 109 0
 126 0022 0173     		se_mr %r3,%r7
 127 0024 C501     		se_lwz %r0,20(%r1)
 128 0026 0090     		se_mtlr %r0
 129 0028 20F1     		se_addi %r1,16
 130              	.LCFI5:
 131              		.cfi_def_cfa_offset 0
 132 002a 0004     		se_blr
 133              		.cfi_endproc
 134              	.LFE2:
 135              		.size	osalSysTimeSetup, .-osalSysTimeSetup
 136              		.section	.text.osalSysTimeReset,"axv",@progbits
 137              		.align 1
 138              		.p2align 4,,15
 139              		.globl osalSysTimeReset
 140              		.type	osalSysTimeReset, @function
 141              	osalSysTimeReset:
 142              	.LFB3:
 143              		.loc 2 117 0
 144              		.cfi_startproc
 145 0000 182106F8 		e_stwu %r1,-8(%r1)
 146              	.LCFI6:
 147              		.cfi_def_cfa_offset 8
 148 0004 0080     		se_mflr %r0
 149 0006 D301     		se_stw %r0,12(%r1)
 150              		.cfi_offset 65, 4
 151              		.loc 2 119 0
 152 0008 78000001 		e_bl sysTimeReset
 153              		.loc 2 120 0
 154 000c C301     		se_lwz %r0,12(%r1)
 155 000e 0090     		se_mtlr %r0
 156 0010 2071     		se_addi %r1,8
 157              	.LCFI7:
 158              		.cfi_def_cfa_offset 0
 159 0012 0004     		se_blr
 160              		.cfi_endproc
 161              	.LFE3:
 162              		.size	osalSysTimeReset, .-osalSysTimeReset
 163              		.section	.text.osalSysTime_S2ST,"axv",@progbits
 164              		.align 1
 165              		.p2align 4,,15
 166              		.type	osalSysTime_S2ST, @function
 167              	osalSysTime_S2ST:
GAS LISTING C:\Users\nascapro\AppData\Local\Temp\cczORafq.s 			page 4


 168              	.LFB4:
 169              		.loc 2 132 0
 170              		.cfi_startproc
 171 0000 182106F0 		e_stwu %r1,-16(%r1)
 172              	.LCFI8:
 173              		.cfi_def_cfa_offset 16
 174 0004 D231     		se_stw %r3,8(%r1)
 175              		.loc 2 133 0
 176 0006 70E0E000 		e_lis %r7,osal_ticks_per_sec@ha
 177 000a 50C70000 		e_lwz %r6,osal_ticks_per_sec@l(%r7)
 178 000e C271     		se_lwz %r7,8(%r1)
 179 0010 0567     		se_mullw %r7,%r6
 180              		.loc 2 134 0
 181 0012 0173     		se_mr %r3,%r7
 182 0014 20F1     		se_addi %r1,16
 183              	.LCFI9:
 184              		.cfi_def_cfa_offset 0
 185 0016 0004     		se_blr
 186              		.cfi_endproc
 187              	.LFE4:
 188              		.size	osalSysTime_S2ST, .-osalSysTime_S2ST
 189              		.section	.text.osalSysTime_MS2ST,"axv",@progbits
 190              		.align 1
 191              		.p2align 4,,15
 192              		.type	osalSysTime_MS2ST, @function
 193              	osalSysTime_MS2ST:
 194              	.LFB5:
 195              		.loc 2 146 0
 196              		.cfi_startproc
 197 0000 182106F0 		e_stwu %r1,-16(%r1)
 198              	.LCFI10:
 199              		.cfi_def_cfa_offset 16
 200 0004 D231     		se_stw %r3,8(%r1)
 201              		.loc 2 147 0
 202 0006 C271     		se_lwz %r7,8(%r1)
 203 0008 2A07     		se_cmpi %r7,0
 204 000a 7F800020 		e_mcrf %cr7,%cr0
 205 000e 7CE00026 		mfcr %r7
 206 0012 74E7E007 		e_rlwinm %r7,%r7,28,0xf0000000
 207 0016 7CE80120 		mtcrf 128,%r7
 208 001a 7A120028 		e_beq %cr0,.L11
 209              		.loc 2 148 0 discriminator 1
 210 001e 70E0E000 		e_lis %r7,osal_ticks_per_sec@ha
 211 0022 50C70000 		e_lwz %r6,osal_ticks_per_sec@l(%r7)
 212 0026 C271     		se_lwz %r7,8(%r1)
 213 0028 0567     		se_mullw %r7,%r6
 214 002a 18C784FF 		e_addi %r6,%r7,-1
 215 002e 70E2E062 		e_lis %r7,0x1062
 216 0032 70E9C5D3 		e_or2i %r7,19923
 217 0036 7CE63816 		mulhwu %r7,%r6,%r7
 218 003a 6867     		se_srwi %r7,6
 219              		.loc 2 147 0 discriminator 1
 220 003c 2007     		se_addi %r7,1
 221 003e 78000006 		e_b .L12
 222              	.L11:
 223              		.loc 2 147 0 is_stmt 0 discriminator 2
 224 0042 4807     		se_li %r7,0
GAS LISTING C:\Users\nascapro\AppData\Local\Temp\cczORafq.s 			page 5


 225              	.L12:
 226              		.loc 2 149 0 is_stmt 1 discriminator 4
 227 0044 0173     		se_mr %r3,%r7
 228 0046 20F1     		se_addi %r1,16
 229              	.LCFI11:
 230              		.cfi_def_cfa_offset 0
 231 0048 0004     		se_blr
 232              		.cfi_endproc
 233              	.LFE5:
 234              		.size	osalSysTime_MS2ST, .-osalSysTime_MS2ST
 235              		.section	.text.osalSysTime_US2ST,"axv",@progbits
 236              		.align 1
 237              		.p2align 4,,15
 238              		.type	osalSysTime_US2ST, @function
 239              	osalSysTime_US2ST:
 240              	.LFB6:
 241              		.loc 2 161 0
 242              		.cfi_startproc
 243 0000 182106F0 		e_stwu %r1,-16(%r1)
 244              	.LCFI12:
 245              		.cfi_def_cfa_offset 16
 246 0004 D231     		se_stw %r3,8(%r1)
 247              		.loc 2 162 0
 248 0006 C271     		se_lwz %r7,8(%r1)
 249 0008 2A07     		se_cmpi %r7,0
 250 000a 7F800020 		e_mcrf %cr7,%cr0
 251 000e 7CE00026 		mfcr %r7
 252 0012 74E7E007 		e_rlwinm %r7,%r7,28,0xf0000000
 253 0016 7CE80120 		mtcrf 128,%r7
 254 001a 7A120028 		e_beq %cr0,.L15
 255              		.loc 2 163 0 discriminator 1
 256 001e 70E0E000 		e_lis %r7,osal_ticks_per_sec@ha
 257 0022 50C70000 		e_lwz %r6,osal_ticks_per_sec@l(%r7)
 258 0026 C271     		se_lwz %r7,8(%r1)
 259 0028 0567     		se_mullw %r7,%r6
 260 002a 18C784FF 		e_addi %r6,%r7,-1
 261 002e 70E8E31B 		e_lis %r7,0x431b
 262 0032 70FBC683 		e_or2i %r7,56963
 263 0036 7CE63816 		mulhwu %r7,%r6,%r7
 264 003a 6927     		se_srwi %r7,18
 265              		.loc 2 162 0 discriminator 1
 266 003c 2007     		se_addi %r7,1
 267 003e 78000006 		e_b .L16
 268              	.L15:
 269              		.loc 2 162 0 is_stmt 0 discriminator 2
 270 0042 4807     		se_li %r7,0
 271              	.L16:
 272              		.loc 2 164 0 is_stmt 1 discriminator 4
 273 0044 0173     		se_mr %r3,%r7
 274 0046 20F1     		se_addi %r1,16
 275              	.LCFI13:
 276              		.cfi_def_cfa_offset 0
 277 0048 0004     		se_blr
 278              		.cfi_endproc
 279              	.LFE6:
 280              		.size	osalSysTime_US2ST, .-osalSysTime_US2ST
 281              		.section	.text.osalSysTime_ST2S,"axv",@progbits
GAS LISTING C:\Users\nascapro\AppData\Local\Temp\cczORafq.s 			page 6


 282              		.align 1
 283              		.p2align 4,,15
 284              		.type	osalSysTime_ST2S, @function
 285              	osalSysTime_ST2S:
 286              	.LFB7:
 287              		.loc 2 176 0
 288              		.cfi_startproc
 289 0000 182106F0 		e_stwu %r1,-16(%r1)
 290              	.LCFI14:
 291              		.cfi_def_cfa_offset 16
 292 0004 D231     		se_stw %r3,8(%r1)
 293              		.loc 2 177 0
 294 0006 70E0E000 		e_lis %r7,osal_ticks_per_sec@ha
 295 000a 50E70000 		e_lwz %r7,osal_ticks_per_sec@l(%r7)
 296 000e C261     		se_lwz %r6,8(%r1)
 297 0010 7CE63B96 		divwu %r7,%r6,%r7
 298              		.loc 2 178 0
 299 0014 0173     		se_mr %r3,%r7
 300 0016 20F1     		se_addi %r1,16
 301              	.LCFI15:
 302              		.cfi_def_cfa_offset 0
 303 0018 0004     		se_blr
 304              		.cfi_endproc
 305              	.LFE7:
 306              		.size	osalSysTime_ST2S, .-osalSysTime_ST2S
 307              		.section	.text.osalSysTime_ST2MS,"axv",@progbits
 308              		.align 1
 309              		.p2align 4,,15
 310              		.type	osalSysTime_ST2MS, @function
 311              	osalSysTime_ST2MS:
 312              	.LFB8:
 313              		.loc 2 190 0
 314              		.cfi_startproc
 315 0000 182106F0 		e_stwu %r1,-16(%r1)
 316              	.LCFI16:
 317              		.cfi_def_cfa_offset 16
 318 0004 D231     		se_stw %r3,8(%r1)
 319              		.loc 2 191 0
 320 0006 C271     		se_lwz %r7,8(%r1)
 321 0008 70A003E8 		e_li %r5,1000
 322 000c 7CC729D6 		mullw %r6,%r7,%r5
 323 0010 70E0E000 		e_lis %r7,osal_ticks_per_sec@ha
 324 0014 50E70000 		e_lwz %r7,osal_ticks_per_sec@l(%r7)
 325 0018 7CE63B96 		divwu %r7,%r6,%r7
 326              		.loc 2 192 0
 327 001c 0173     		se_mr %r3,%r7
 328 001e 20F1     		se_addi %r1,16
 329              	.LCFI17:
 330              		.cfi_def_cfa_offset 0
 331 0020 0004     		se_blr
 332              		.cfi_endproc
 333              	.LFE8:
 334              		.size	osalSysTime_ST2MS, .-osalSysTime_ST2MS
 335              		.section	.text.osalSysTime_ST2US,"axv",@progbits
 336              		.align 1
 337              		.p2align 4,,15
 338              		.type	osalSysTime_ST2US, @function
GAS LISTING C:\Users\nascapro\AppData\Local\Temp\cczORafq.s 			page 7


 339              	osalSysTime_ST2US:
 340              	.LFB9:
 341              		.loc 2 204 0
 342              		.cfi_startproc
 343 0000 182106F0 		e_stwu %r1,-16(%r1)
 344              	.LCFI18:
 345              		.cfi_def_cfa_offset 16
 346 0004 D231     		se_stw %r3,8(%r1)
 347              		.loc 2 205 0
 348 0006 C261     		se_lwz %r6,8(%r1)
 349 0008 70E0E00F 		e_lis %r7,0xf
 350 000c 70E8C240 		e_or2i %r7,16960
 351 0010 0576     		se_mullw %r6,%r7
 352 0012 70E0E000 		e_lis %r7,osal_ticks_per_sec@ha
 353 0016 50E70000 		e_lwz %r7,osal_ticks_per_sec@l(%r7)
 354 001a 7CE63B96 		divwu %r7,%r6,%r7
 355              		.loc 2 206 0
 356 001e 0173     		se_mr %r3,%r7
 357 0020 20F1     		se_addi %r1,16
 358              	.LCFI19:
 359              		.cfi_def_cfa_offset 0
 360 0022 0004     		se_blr
 361              		.cfi_endproc
 362              	.LFE9:
 363              		.size	osalSysTime_ST2US, .-osalSysTime_ST2US
 364              		.section	.text.osalSysTimeInit,"axv",@progbits
 365              		.align 1
 366              		.p2align 4,,15
 367              		.type	osalSysTimeInit, @function
 368              	osalSysTimeInit:
 369              	.LFB10:
 370              		.loc 2 214 0
 371              		.cfi_startproc
 372 0000 182106F8 		e_stwu %r1,-8(%r1)
 373              	.LCFI20:
 374              		.cfi_def_cfa_offset 8
 375 0004 0080     		se_mflr %r0
 376 0006 D301     		se_stw %r0,12(%r1)
 377              		.cfi_offset 65, 4
 378              		.loc 2 217 0
 379 0008 70E0E000 		e_lis %r7,osalsystime@ha
 380 000c 4806     		se_li %r6,0
 381 000e 54C70000 		e_stw %r6,osalsystime@l(%r7)
 382              		.loc 2 219 0
 383 0012 706003E8 		e_li %r3,1000
 384 0016 78000001 		e_bl osalSysTimeSetup
 385              		.loc 2 220 0
 386 001a C301     		se_lwz %r0,12(%r1)
 387 001c 0090     		se_mtlr %r0
 388 001e 2071     		se_addi %r1,8
 389              	.LCFI21:
 390              		.cfi_def_cfa_offset 0
 391 0020 0004     		se_blr
 392              		.cfi_endproc
 393              	.LFE10:
 394              		.size	osalSysTimeInit, .-osalSysTimeInit
 395              		.section	.text.osalSysTimeDelayTicks,"axv",@progbits
GAS LISTING C:\Users\nascapro\AppData\Local\Temp\cczORafq.s 			page 8


 396              		.align 1
 397              		.p2align 4,,15
 398              		.type	osalSysTimeDelayTicks, @function
 399              	osalSysTimeDelayTicks:
 400              	.LFB11:
 401              		.loc 2 229 0
 402              		.cfi_startproc
 403 0000 182106E0 		e_stwu %r1,-32(%r1)
 404              	.LCFI22:
 405              		.cfi_def_cfa_offset 32
 406 0004 D631     		se_stw %r3,24(%r1)
 407              		.loc 2 233 0
 408 0006 70E0E000 		e_lis %r7,osalsystime@ha
 409 000a 50E70000 		e_lwz %r7,osalsystime@l(%r7)
 410 000e D271     		se_stw %r7,8(%r1)
 411              		.loc 2 234 0
 412 0010 4400     		se_nop
 413              	.L26:
 414              		.loc 2 234 0 is_stmt 0 discriminator 1
 415 0012 C261     		se_lwz %r6,8(%r1)
 416 0014 C671     		se_lwz %r7,24(%r1)
 417 0016 0476     		se_add %r6,%r7
 418 0018 70E0E000 		e_lis %r7,osalsystime@ha
 419 001c 50E70000 		e_lwz %r7,osalsystime@l(%r7)
 420 0020 7F863840 		cmpl %cr7,%r6,%r7
 421 0024 7CE00026 		mfcr %r7
 422 0028 74E7E007 		e_rlwinm %r7,%r7,28,0xf0000000
 423 002c 7CE80120 		mtcrf 128,%r7
 424 0030 7A11FFE2 		e_bgt %cr0,.L26
 425              		.loc 2 237 0 is_stmt 1
 426 0034 21F1     		se_addi %r1,32
 427              	.LCFI23:
 428              		.cfi_def_cfa_offset 0
 429 0036 0004     		se_blr
 430              		.cfi_endproc
 431              	.LFE11:
 432              		.size	osalSysTimeDelayTicks, .-osalSysTimeDelayTicks
 433              		.section	.text.osalSysTimeGetTicks,"axv",@progbits
 434              		.align 1
 435              		.p2align 4,,15
 436              		.type	osalSysTimeGetTicks, @function
 437              	osalSysTimeGetTicks:
 438              	.LFB12:
 439              		.loc 2 246 0
 440              		.cfi_startproc
 441              		.loc 2 248 0
 442 0000 70E0E000 		e_lis %r7,osalsystime@ha
 443 0004 50E70000 		e_lwz %r7,osalsystime@l(%r7)
 444              		.loc 2 249 0
 445 0008 0173     		se_mr %r3,%r7
 446 000a 0004     		se_blr
 447              		.cfi_endproc
 448              	.LFE12:
 449              		.size	osalSysTimeGetTicks, .-osalSysTimeGetTicks
 450              		.section	.text.osalIsrDisable,"axv",@progbits
 451              		.align 1
 452              		.p2align 4,,15
GAS LISTING C:\Users\nascapro\AppData\Local\Temp\cczORafq.s 			page 9


 453              		.type	osalIsrDisable, @function
 454              	osalIsrDisable:
 455              	.LFB13:
 456              		.loc 2 260 0
 457              		.cfi_startproc
 458 0000 182106F8 		e_stwu %r1,-8(%r1)
 459              	.LCFI24:
 460              		.cfi_def_cfa_offset 8
 461 0004 0080     		se_mflr %r0
 462 0006 D301     		se_stw %r0,12(%r1)
 463              		.cfi_offset 65, 4
 464              		.loc 2 262 0
 465 0008 70E0E000 		e_lis %r7,osalIsrCnt@ha
 466 000c 50E70000 		e_lwz %r7,osalIsrCnt@l(%r7)
 467 0010 18C78001 		e_addi %r6,%r7,1
 468 0014 70E0E000 		e_lis %r7,osalIsrCnt@ha
 469 0018 54C70000 		e_stw %r6,osalIsrCnt@l(%r7)
 470              		.loc 2 263 0
 471 001c 70E0E000 		e_lis %r7,osalIsrCnt@ha
 472 0020 50E70000 		e_lwz %r7,osalIsrCnt@l(%r7)
 473 0024 2207     		se_cmpli %r7,1
 474 0026 7F800020 		e_mcrf %cr7,%cr0
 475 002a 7CE00026 		mfcr %r7
 476 002e 74E7E007 		e_rlwinm %r7,%r7,28,0xf0000000
 477 0032 7CE80120 		mtcrf 128,%r7
 478 0036 7A020034 		e_bne %cr0,.L29
 479              		.loc 2 264 0
 480 003a 78000001 		e_bl irqGetExtIntEnable
 481 003e 0136     		se_mr %r6,%r3
 482 0040 70E0E000 		e_lis %r7,osalIsExtIntEnable@ha
 483 0044 54C70000 		e_stw %r6,osalIsExtIntEnable@l(%r7)
 484              		.loc 2 265 0
 485 0048 70E0E000 		e_lis %r7,osalIsExtIntEnable@ha
 486 004c 50E70000 		e_lwz %r7,osalIsExtIntEnable@l(%r7)
 487 0050 2A07     		se_cmpi %r7,0
 488 0052 7F800020 		e_mcrf %cr7,%cr0
 489 0056 7CE00026 		mfcr %r7
 490 005a 74E7E007 		e_rlwinm %r7,%r7,28,0xf0000000
 491 005e 7CE80120 		mtcrf 128,%r7
 492 0062 7A120008 		e_beq %cr0,.L29
 493              		.loc 2 266 0
 494              	 # 266 "./components/spc582bxx_osal_component_rla/lib/src/osal.c" 1
 495 0066 7C000146 		wrteei  0
 496              	 # 0 "" 2
 497              	.L29:
 498              		.loc 2 269 0
 499 006a C301     		se_lwz %r0,12(%r1)
 500 006c 0090     		se_mtlr %r0
 501 006e 2071     		se_addi %r1,8
 502              	.LCFI25:
 503              		.cfi_def_cfa_offset 0
 504 0070 0004     		se_blr
 505              		.cfi_endproc
 506              	.LFE13:
 507              		.size	osalIsrDisable, .-osalIsrDisable
 508              		.section	.text.osalIsrEnable,"axv",@progbits
 509              		.align 1
GAS LISTING C:\Users\nascapro\AppData\Local\Temp\cczORafq.s 			page 10


 510              		.p2align 4,,15
 511              		.type	osalIsrEnable, @function
 512              	osalIsrEnable:
 513              	.LFB14:
 514              		.loc 2 276 0
 515              		.cfi_startproc
 516              		.loc 2 278 0
 517 0000 70E0E000 		e_lis %r7,osalIsrCnt@ha
 518 0004 50E70000 		e_lwz %r7,osalIsrCnt@l(%r7)
 519 0008 18C784FF 		e_addi %r6,%r7,-1
 520 000c 70E0E000 		e_lis %r7,osalIsrCnt@ha
 521 0010 54C70000 		e_stw %r6,osalIsrCnt@l(%r7)
 522              		.loc 2 279 0
 523 0014 70E0E000 		e_lis %r7,osalIsExtIntEnable@ha
 524 0018 50E70000 		e_lwz %r7,osalIsExtIntEnable@l(%r7)
 525 001c 2A07     		se_cmpi %r7,0
 526 001e 7F800020 		e_mcrf %cr7,%cr0
 527 0022 7CE00026 		mfcr %r7
 528 0026 74E7E007 		e_rlwinm %r7,%r7,28,0xf0000000
 529 002a 7CE80120 		mtcrf 128,%r7
 530 002e 7A120026 		e_beq %cr0,.L31
 531              		.loc 2 279 0 is_stmt 0 discriminator 1
 532 0032 70E0E000 		e_lis %r7,osalIsrCnt@ha
 533 0036 50E70000 		e_lwz %r7,osalIsrCnt@l(%r7)
 534 003a 2A07     		se_cmpi %r7,0
 535 003c 7F800020 		e_mcrf %cr7,%cr0
 536 0040 7CE00026 		mfcr %r7
 537 0044 74E7E007 		e_rlwinm %r7,%r7,28,0xf0000000
 538 0048 7CE80120 		mtcrf 128,%r7
 539 004c 7A020008 		e_bne %cr0,.L31
 540              		.loc 2 280 0 is_stmt 1
 541              	 # 280 "./components/spc582bxx_osal_component_rla/lib/src/osal.c" 1
 542 0050 7C008146 		wrteei  1
 543              	 # 0 "" 2
 544              	.L31:
 545              		.loc 2 282 0
 546 0054 0004     		se_blr
 547              		.cfi_endproc
 548              	.LFE14:
 549              		.size	osalIsrEnable, .-osalIsrEnable
 550              		.section	.text.vector226,"axv",@progbits
 551              		.align 1
 552              		.p2align 4,,15
 553              		.globl vector226
 554              		.type	vector226, @function
 555              	vector226:
 556              	.LFB15:
 557              		.loc 2 296 0
 558              		.cfi_startproc
 559 0000 182106F8 		e_stwu %r1,-8(%r1)
 560              	.LCFI26:
 561              		.cfi_def_cfa_offset 8
 562 0004 0080     		se_mflr %r0
 563 0006 D301     		se_stw %r0,12(%r1)
 564              		.cfi_offset 65, 4
 565              		.loc 2 300 0
 566 0008 78000001 		e_bl osalEnterCriticalFromISR
GAS LISTING C:\Users\nascapro\AppData\Local\Temp\cczORafq.s 			page 11


 567              		.loc 2 302 0
 568 000c 70E0E000 		e_lis %r7,osalsystime@ha
 569 0010 50E70000 		e_lwz %r7,osalsystime@l(%r7)
 570 0014 18C78001 		e_addi %r6,%r7,1
 571 0018 70E0E000 		e_lis %r7,osalsystime@ha
 572 001c 54C70000 		e_stw %r6,osalsystime@l(%r7)
 573              		.loc 2 304 0
 574 0020 78000001 		e_bl osalExitCriticalFromISR
 575              		.loc 2 306 0
 576 0024 78000001 		e_bl osalSysTimeReset
 577              		.loc 2 309 0
 578 0028 C301     		se_lwz %r0,12(%r1)
 579 002a 0090     		se_mtlr %r0
 580 002c 2071     		se_addi %r1,8
 581              	.LCFI27:
 582              		.cfi_def_cfa_offset 0
 583 002e 0004     		se_blr
 584              		.cfi_endproc
 585              	.LFE15:
 586              		.size	vector226, .-vector226
 587              		.section	.text.osalThreadDelaySeconds,"axv",@progbits
 588              		.align 1
 589              		.p2align 4,,15
 590              		.globl osalThreadDelaySeconds
 591              		.type	osalThreadDelaySeconds, @function
 592              	osalThreadDelaySeconds:
 593              	.LFB16:
 594              		.loc 2 328 0
 595              		.cfi_startproc
 596 0000 182106E8 		e_stwu %r1,-24(%r1)
 597              	.LCFI28:
 598              		.cfi_def_cfa_offset 24
 599 0004 0080     		se_mflr %r0
 600 0006 D701     		se_stw %r0,28(%r1)
 601 0008 D5F1     		se_stw %r31,20(%r1)
 602              		.cfi_offset 65, 4
 603              		.cfi_offset 31, -4
 604 000a D231     		se_stw %r3,8(%r1)
 605              		.loc 2 329 0
 606 000c 70E0E000 		e_lis %r7,osalTimeOps@ha
 607 0010 1CE70000 		e_la %r7,osalTimeOps@l(%r7)
 608 0014 C0F7     		se_lwz %r31,0(%r7)
 609 0016 C231     		se_lwz %r3,8(%r1)
 610 0018 78000001 		e_bl osalSysTime_S2ST
 611 001c 0137     		se_mr %r7,%r3
 612 001e 0173     		se_mr %r3,%r7
 613 0020 00BF     		se_mtctr %r31
 614 0022 0007     		se_bctrl
 615              		.loc 2 330 0
 616 0024 C701     		se_lwz %r0,28(%r1)
 617 0026 0090     		se_mtlr %r0
 618 0028 C5F1     		se_lwz %r31,20(%r1)
 619 002a 2171     		se_addi %r1,24
 620              	.LCFI29:
 621              		.cfi_restore 31
 622              		.cfi_def_cfa_offset 0
 623 002c 0004     		se_blr
GAS LISTING C:\Users\nascapro\AppData\Local\Temp\cczORafq.s 			page 12


 624              		.cfi_endproc
 625              	.LFE16:
 626              		.size	osalThreadDelaySeconds, .-osalThreadDelaySeconds
 627              		.section	.text.osalThreadDelayMilliseconds,"axv",@progbits
 628              		.align 1
 629              		.p2align 4,,15
 630              		.globl osalThreadDelayMilliseconds
 631              		.type	osalThreadDelayMilliseconds, @function
 632              	osalThreadDelayMilliseconds:
 633              	.LFB17:
 634              		.loc 2 342 0
 635              		.cfi_startproc
 636 0000 182106E8 		e_stwu %r1,-24(%r1)
 637              	.LCFI30:
 638              		.cfi_def_cfa_offset 24
 639 0004 0080     		se_mflr %r0
 640 0006 D701     		se_stw %r0,28(%r1)
 641 0008 D5F1     		se_stw %r31,20(%r1)
 642              		.cfi_offset 65, 4
 643              		.cfi_offset 31, -4
 644 000a D231     		se_stw %r3,8(%r1)
 645              		.loc 2 343 0
 646 000c 70E0E000 		e_lis %r7,osalTimeOps@ha
 647 0010 1CE70000 		e_la %r7,osalTimeOps@l(%r7)
 648 0014 C0F7     		se_lwz %r31,0(%r7)
 649 0016 C231     		se_lwz %r3,8(%r1)
 650 0018 78000001 		e_bl osalSysTime_MS2ST
 651 001c 0137     		se_mr %r7,%r3
 652 001e 0173     		se_mr %r3,%r7
 653 0020 00BF     		se_mtctr %r31
 654 0022 0007     		se_bctrl
 655              		.loc 2 344 0
 656 0024 C701     		se_lwz %r0,28(%r1)
 657 0026 0090     		se_mtlr %r0
 658 0028 C5F1     		se_lwz %r31,20(%r1)
 659 002a 2171     		se_addi %r1,24
 660              	.LCFI31:
 661              		.cfi_restore 31
 662              		.cfi_def_cfa_offset 0
 663 002c 0004     		se_blr
 664              		.cfi_endproc
 665              	.LFE17:
 666              		.size	osalThreadDelayMilliseconds, .-osalThreadDelayMilliseconds
 667              		.section	.text.osalThreadDelayMicroseconds,"axv",@progbits
 668              		.align 1
 669              		.p2align 4,,15
 670              		.globl osalThreadDelayMicroseconds
 671              		.type	osalThreadDelayMicroseconds, @function
 672              	osalThreadDelayMicroseconds:
 673              	.LFB18:
 674              		.loc 2 356 0
 675              		.cfi_startproc
 676 0000 182106E8 		e_stwu %r1,-24(%r1)
 677              	.LCFI32:
 678              		.cfi_def_cfa_offset 24
 679 0004 0080     		se_mflr %r0
 680 0006 D701     		se_stw %r0,28(%r1)
GAS LISTING C:\Users\nascapro\AppData\Local\Temp\cczORafq.s 			page 13


 681 0008 D5F1     		se_stw %r31,20(%r1)
 682              		.cfi_offset 65, 4
 683              		.cfi_offset 31, -4
 684 000a D231     		se_stw %r3,8(%r1)
 685              		.loc 2 357 0
 686 000c 70E0E000 		e_lis %r7,osalTimeOps@ha
 687 0010 1CE70000 		e_la %r7,osalTimeOps@l(%r7)
 688 0014 C0F7     		se_lwz %r31,0(%r7)
 689 0016 C231     		se_lwz %r3,8(%r1)
 690 0018 78000001 		e_bl osalSysTime_US2ST
 691 001c 0137     		se_mr %r7,%r3
 692 001e 0173     		se_mr %r3,%r7
 693 0020 00BF     		se_mtctr %r31
 694 0022 0007     		se_bctrl
 695              		.loc 2 358 0
 696 0024 C701     		se_lwz %r0,28(%r1)
 697 0026 0090     		se_mtlr %r0
 698 0028 C5F1     		se_lwz %r31,20(%r1)
 699 002a 2171     		se_addi %r1,24
 700              	.LCFI33:
 701              		.cfi_restore 31
 702              		.cfi_def_cfa_offset 0
 703 002c 0004     		se_blr
 704              		.cfi_endproc
 705              	.LFE18:
 706              		.size	osalThreadDelayMicroseconds, .-osalThreadDelayMicroseconds
 707              		.section	.text.osalThreadGetSeconds,"axv",@progbits
 708              		.align 1
 709              		.p2align 4,,15
 710              		.globl osalThreadGetSeconds
 711              		.type	osalThreadGetSeconds, @function
 712              	osalThreadGetSeconds:
 713              	.LFB19:
 714              		.loc 2 367 0
 715              		.cfi_startproc
 716 0000 182106F8 		e_stwu %r1,-8(%r1)
 717              	.LCFI34:
 718              		.cfi_def_cfa_offset 8
 719 0004 0080     		se_mflr %r0
 720 0006 D301     		se_stw %r0,12(%r1)
 721              		.cfi_offset 65, 4
 722              		.loc 2 368 0
 723 0008 70E0E000 		e_lis %r7,osalTimeOps@ha
 724 000c 1CE70000 		e_la %r7,osalTimeOps@l(%r7)
 725 0010 C177     		se_lwz %r7,4(%r7)
 726 0012 00B7     		se_mtctr %r7
 727 0014 0007     		se_bctrl
 728 0016 0137     		se_mr %r7,%r3
 729 0018 0173     		se_mr %r3,%r7
 730 001a 78000001 		e_bl osalSysTime_ST2S
 731 001e 0137     		se_mr %r7,%r3
 732              		.loc 2 369 0
 733 0020 0173     		se_mr %r3,%r7
 734 0022 C301     		se_lwz %r0,12(%r1)
 735 0024 0090     		se_mtlr %r0
 736 0026 2071     		se_addi %r1,8
 737              	.LCFI35:
GAS LISTING C:\Users\nascapro\AppData\Local\Temp\cczORafq.s 			page 14


 738              		.cfi_def_cfa_offset 0
 739 0028 0004     		se_blr
 740              		.cfi_endproc
 741              	.LFE19:
 742              		.size	osalThreadGetSeconds, .-osalThreadGetSeconds
 743              		.section	.text.osalThreadGetMilliseconds,"axv",@progbits
 744              		.align 1
 745              		.p2align 4,,15
 746              		.globl osalThreadGetMilliseconds
 747              		.type	osalThreadGetMilliseconds, @function
 748              	osalThreadGetMilliseconds:
 749              	.LFB20:
 750              		.loc 2 378 0
 751              		.cfi_startproc
 752 0000 182106F8 		e_stwu %r1,-8(%r1)
 753              	.LCFI36:
 754              		.cfi_def_cfa_offset 8
 755 0004 0080     		se_mflr %r0
 756 0006 D301     		se_stw %r0,12(%r1)
 757              		.cfi_offset 65, 4
 758              		.loc 2 379 0
 759 0008 70E0E000 		e_lis %r7,osalTimeOps@ha
 760 000c 1CE70000 		e_la %r7,osalTimeOps@l(%r7)
 761 0010 C177     		se_lwz %r7,4(%r7)
 762 0012 00B7     		se_mtctr %r7
 763 0014 0007     		se_bctrl
 764 0016 0137     		se_mr %r7,%r3
 765 0018 0173     		se_mr %r3,%r7
 766 001a 78000001 		e_bl osalSysTime_ST2MS
 767 001e 0137     		se_mr %r7,%r3
 768              		.loc 2 380 0
 769 0020 0173     		se_mr %r3,%r7
 770 0022 C301     		se_lwz %r0,12(%r1)
 771 0024 0090     		se_mtlr %r0
 772 0026 2071     		se_addi %r1,8
 773              	.LCFI37:
 774              		.cfi_def_cfa_offset 0
 775 0028 0004     		se_blr
 776              		.cfi_endproc
 777              	.LFE20:
 778              		.size	osalThreadGetMilliseconds, .-osalThreadGetMilliseconds
 779              		.section	.text.osalThreadGetMicroseconds,"axv",@progbits
 780              		.align 1
 781              		.p2align 4,,15
 782              		.globl osalThreadGetMicroseconds
 783              		.type	osalThreadGetMicroseconds, @function
 784              	osalThreadGetMicroseconds:
 785              	.LFB21:
 786              		.loc 2 389 0
 787              		.cfi_startproc
 788 0000 182106F8 		e_stwu %r1,-8(%r1)
 789              	.LCFI38:
 790              		.cfi_def_cfa_offset 8
 791 0004 0080     		se_mflr %r0
 792 0006 D301     		se_stw %r0,12(%r1)
 793              		.cfi_offset 65, 4
 794              		.loc 2 390 0
GAS LISTING C:\Users\nascapro\AppData\Local\Temp\cczORafq.s 			page 15


 795 0008 70E0E000 		e_lis %r7,osalTimeOps@ha
 796 000c 1CE70000 		e_la %r7,osalTimeOps@l(%r7)
 797 0010 C177     		se_lwz %r7,4(%r7)
 798 0012 00B7     		se_mtctr %r7
 799 0014 0007     		se_bctrl
 800 0016 0137     		se_mr %r7,%r3
 801 0018 0173     		se_mr %r3,%r7
 802 001a 78000001 		e_bl osalSysTime_ST2US
 803 001e 0137     		se_mr %r7,%r3
 804              		.loc 2 391 0
 805 0020 0173     		se_mr %r3,%r7
 806 0022 C301     		se_lwz %r0,12(%r1)
 807 0024 0090     		se_mtlr %r0
 808 0026 2071     		se_addi %r1,8
 809              	.LCFI39:
 810              		.cfi_def_cfa_offset 0
 811 0028 0004     		se_blr
 812              		.cfi_endproc
 813              	.LFE21:
 814              		.size	osalThreadGetMicroseconds, .-osalThreadGetMicroseconds
 815              		.section	.text.osalEnterCritical,"axv",@progbits
 816              		.align 1
 817              		.p2align 4,,15
 818              		.globl osalEnterCritical
 819              		.type	osalEnterCritical, @function
 820              	osalEnterCritical:
 821              	.LFB22:
 822              		.loc 2 399 0
 823              		.cfi_startproc
 824 0000 182106F8 		e_stwu %r1,-8(%r1)
 825              	.LCFI40:
 826              		.cfi_def_cfa_offset 8
 827 0004 0080     		se_mflr %r0
 828 0006 D301     		se_stw %r0,12(%r1)
 829              		.cfi_offset 65, 4
 830              		.loc 2 400 0
 831 0008 70E0E000 		e_lis %r7,osalTimeOps@ha
 832 000c 1CE70000 		e_la %r7,osalTimeOps@l(%r7)
 833 0010 C277     		se_lwz %r7,8(%r7)
 834 0012 00B7     		se_mtctr %r7
 835 0014 0007     		se_bctrl
 836              		.loc 2 401 0
 837 0016 C301     		se_lwz %r0,12(%r1)
 838 0018 0090     		se_mtlr %r0
 839 001a 2071     		se_addi %r1,8
 840              	.LCFI41:
 841              		.cfi_def_cfa_offset 0
 842 001c 0004     		se_blr
 843              		.cfi_endproc
 844              	.LFE22:
 845              		.size	osalEnterCritical, .-osalEnterCritical
 846              		.section	.text.osalExitCritical,"axv",@progbits
 847              		.align 1
 848              		.p2align 4,,15
 849              		.globl osalExitCritical
 850              		.type	osalExitCritical, @function
 851              	osalExitCritical:
GAS LISTING C:\Users\nascapro\AppData\Local\Temp\cczORafq.s 			page 16


 852              	.LFB23:
 853              		.loc 2 408 0
 854              		.cfi_startproc
 855 0000 182106F8 		e_stwu %r1,-8(%r1)
 856              	.LCFI42:
 857              		.cfi_def_cfa_offset 8
 858 0004 0080     		se_mflr %r0
 859 0006 D301     		se_stw %r0,12(%r1)
 860              		.cfi_offset 65, 4
 861              		.loc 2 409 0
 862 0008 70E0E000 		e_lis %r7,osalTimeOps@ha
 863 000c 1CE70000 		e_la %r7,osalTimeOps@l(%r7)
 864 0010 C377     		se_lwz %r7,12(%r7)
 865 0012 00B7     		se_mtctr %r7
 866 0014 0007     		se_bctrl
 867              		.loc 2 410 0
 868 0016 C301     		se_lwz %r0,12(%r1)
 869 0018 0090     		se_mtlr %r0
 870 001a 2071     		se_addi %r1,8
 871              	.LCFI43:
 872              		.cfi_def_cfa_offset 0
 873 001c 0004     		se_blr
 874              		.cfi_endproc
 875              	.LFE23:
 876              		.size	osalExitCritical, .-osalExitCritical
 877              		.section	.text.osalEnterCriticalFromISR,"axv",@progbits
 878              		.align 1
 879              		.p2align 4,,15
 880              		.globl osalEnterCriticalFromISR
 881              		.type	osalEnterCriticalFromISR, @function
 882              	osalEnterCriticalFromISR:
 883              	.LFB24:
 884              		.loc 2 417 0
 885              		.cfi_startproc
 886 0000 182106F8 		e_stwu %r1,-8(%r1)
 887              	.LCFI44:
 888              		.cfi_def_cfa_offset 8
 889 0004 0080     		se_mflr %r0
 890 0006 D301     		se_stw %r0,12(%r1)
 891              		.cfi_offset 65, 4
 892              		.loc 2 420 0
 893 0008 70E0E000 		e_lis %r7,osalTimeOps@ha
 894 000c 1CE70000 		e_la %r7,osalTimeOps@l(%r7)
 895 0010 C277     		se_lwz %r7,8(%r7)
 896 0012 00B7     		se_mtctr %r7
 897 0014 0007     		se_bctrl
 898              		.loc 2 422 0
 899 0016 C301     		se_lwz %r0,12(%r1)
 900 0018 0090     		se_mtlr %r0
 901 001a 2071     		se_addi %r1,8
 902              	.LCFI45:
 903              		.cfi_def_cfa_offset 0
 904 001c 0004     		se_blr
 905              		.cfi_endproc
 906              	.LFE24:
 907              		.size	osalEnterCriticalFromISR, .-osalEnterCriticalFromISR
 908              		.section	.text.osalExitCriticalFromISR,"axv",@progbits
GAS LISTING C:\Users\nascapro\AppData\Local\Temp\cczORafq.s 			page 17


 909              		.align 1
 910              		.p2align 4,,15
 911              		.globl osalExitCriticalFromISR
 912              		.type	osalExitCriticalFromISR, @function
 913              	osalExitCriticalFromISR:
 914              	.LFB25:
 915              		.loc 2 429 0
 916              		.cfi_startproc
 917 0000 182106F8 		e_stwu %r1,-8(%r1)
 918              	.LCFI46:
 919              		.cfi_def_cfa_offset 8
 920 0004 0080     		se_mflr %r0
 921 0006 D301     		se_stw %r0,12(%r1)
 922              		.cfi_offset 65, 4
 923              		.loc 2 432 0
 924 0008 70E0E000 		e_lis %r7,osalTimeOps@ha
 925 000c 1CE70000 		e_la %r7,osalTimeOps@l(%r7)
 926 0010 C377     		se_lwz %r7,12(%r7)
 927 0012 00B7     		se_mtctr %r7
 928 0014 0007     		se_bctrl
 929              		.loc 2 434 0
 930 0016 C301     		se_lwz %r0,12(%r1)
 931 0018 0090     		se_mtlr %r0
 932 001a 2071     		se_addi %r1,8
 933              	.LCFI47:
 934              		.cfi_def_cfa_offset 0
 935 001c 0004     		se_blr
 936              		.cfi_endproc
 937              	.LFE25:
 938              		.size	osalExitCriticalFromISR, .-osalExitCriticalFromISR
 939              		.section	.text.osalInit,"axv",@progbits
 940              		.align 1
 941              		.p2align 4,,15
 942              		.globl osalInit
 943              		.type	osalInit, @function
 944              	osalInit:
 945              	.LFB26:
 946              		.loc 2 442 0
 947              		.cfi_startproc
 948 0000 182106F8 		e_stwu %r1,-8(%r1)
 949              	.LCFI48:
 950              		.cfi_def_cfa_offset 8
 951 0004 0080     		se_mflr %r0
 952 0006 D301     		se_stw %r0,12(%r1)
 953              		.cfi_offset 65, 4
 954              		.loc 2 452 0
 955 0008 70E0E000 		e_lis %r7,osalTimeOps@ha
 956 000c 1C670000 		e_la %r3,osalTimeOps@l(%r7)
 957 0010 4804     		se_li %r4,0
 958 0012 4B05     		se_li %r5,48
 959 0014 78000001 		e_bl memset
 960              		.loc 2 553 0
 961 0018 70E0E000 		e_lis %r7,osalTimeOps@ha
 962 001c 1CE70000 		e_la %r7,osalTimeOps@l(%r7)
 963 0020 70C0E000 		e_lis %r6,osalSysTimeDelayTicks@ha
 964 0024 1CC60000 		e_la %r6,osalSysTimeDelayTicks@l(%r6)
 965 0028 D067     		se_stw %r6,0(%r7)
GAS LISTING C:\Users\nascapro\AppData\Local\Temp\cczORafq.s 			page 18


 966              		.loc 2 554 0
 967 002a 70E0E000 		e_lis %r7,osalTimeOps@ha
 968 002e 1CE70000 		e_la %r7,osalTimeOps@l(%r7)
 969 0032 70C0E000 		e_lis %r6,osalSysTimeGetTicks@ha
 970 0036 1CC60000 		e_la %r6,osalSysTimeGetTicks@l(%r6)
 971 003a D167     		se_stw %r6,4(%r7)
 972              		.loc 2 556 0
 973 003c 70E0E000 		e_lis %r7,osalTimeOps@ha
 974 0040 1CE70000 		e_la %r7,osalTimeOps@l(%r7)
 975 0044 70C0E000 		e_lis %r6,osalIsrDisable@ha
 976 0048 1CC60000 		e_la %r6,osalIsrDisable@l(%r6)
 977 004c D267     		se_stw %r6,8(%r7)
 978              		.loc 2 557 0
 979 004e 70E0E000 		e_lis %r7,osalTimeOps@ha
 980 0052 1CE70000 		e_la %r7,osalTimeOps@l(%r7)
 981 0056 70C0E000 		e_lis %r6,osalIsrEnable@ha
 982 005a 1CC60000 		e_la %r6,osalIsrEnable@l(%r6)
 983 005e D367     		se_stw %r6,12(%r7)
 984              		.loc 2 579 0
 985 0060 78000001 		e_bl osalSysTimeInit
 986              		.loc 2 582 0
 987 0064 C301     		se_lwz %r0,12(%r1)
 988 0066 0090     		se_mtlr %r0
 989 0068 2071     		se_addi %r1,8
 990              	.LCFI49:
 991              		.cfi_def_cfa_offset 0
 992 006a 0004     		se_blr
 993              		.cfi_endproc
 994              	.LFE26:
 995              		.size	osalInit, .-osalInit
 996              		.section	".text","axv"
 997              	.Letext0:
 998              		.file 3 "c:\\autodevkitstudio-2.1\\eclipse\\plugins\\com.st.tools.spc5.tools.gnu.gcc.ppcvle.win32_
 999              		.file 4 "c:\\autodevkitstudio-2.1\\eclipse\\plugins\\com.st.tools.spc5.tools.gnu.gcc.ppcvle.win32_
 1000              		.file 5 "./components/spc582bxx_osal_component_rla/lib/include/osal.h"