GAS LISTING C:\Users\nascapro\AppData\Local\Temp\cc6RIjDx.s 			page 1


   1              		.file	"pal.c"
   2              		.section	".text","axv"
   3              	.Ltext0:
   4              		.cfi_sections	.debug_frame
   5              		.section	.text.pal_init,"axv",@progbits
   6              		.align 1
   7              		.p2align 4,,15
   8              		.globl pal_init
   9              		.type	pal_init, @function
  10              	pal_init:
  11              	.LFB2:
  12              		.file 1 "./components/spc582bxx_board_initialization_component_rla/lib/src/pal.c"
  13              		.loc 1 29 0
  14              		.cfi_startproc
  15 0000 182106E0 		e_stwu %r1,-32(%r1)
  16              	.LCFI0:
  17              		.cfi_def_cfa_offset 32
  18 0004 0080     		se_mflr %r0
  19 0006 D901     		se_stw %r0,36(%r1)
  20              		.cfi_offset 65, 4
  21 0008 D631     		se_stw %r3,24(%r1)
  22              		.loc 1 35 0
  23 000a 48F3     		se_li %r3,15
  24 000c 4924     		se_li %r4,18
  25 000e 78000001 		e_bl SPCSetPeripheralClockMode
  26              		.loc 1 40 0
  27 0012 4807     		se_li %r7,0
  28 0014 B471     		se_sth %r7,8(%r1)
  29              		.loc 1 41 0
  30 0016 7800008E 		e_b .L2
  31              	.L3:
  32              		.loc 1 42 0
  33 001a 70BEE7FC 		e_lis %r5,0xf7fc
  34 001e C671     		se_lwz %r7,24(%r1)
  35 0020 C067     		se_lwz %r6,0(%r7)
  36 0022 A471     		se_lhz %r7,8(%r1)
  37 0024 00E7     		se_extzh %r7
  38 0026 6C27     		se_slwi %r7, 2
  39 0028 7CE41070 		e_slwi %r4,%r7,2
  40 002c 0747     		se_subf %r7, %r4
  41 002e 7CE63A14 		add %r7,%r6,%r7
  42 0032 A077     		se_lhz %r7,0(%r7)
  43 0034 00F7     		se_extsh %r7
  44 0036 0173     		se_mr %r3,%r7
  45 0038 C671     		se_lwz %r7,24(%r1)
  46 003a C067     		se_lwz %r6,0(%r7)
  47 003c A471     		se_lhz %r7,8(%r1)
  48 003e 00E7     		se_extzh %r7
  49 0040 6C27     		se_slwi %r7, 2
  50 0042 7CE41070 		e_slwi %r4,%r7,2
  51 0046 0747     		se_subf %r7, %r4
  52 0048 7CE63A14 		add %r7,%r6,%r7
  53 004c 8877     		se_lbz %r7,8(%r7)
  54 004e 74E6063F 		e_rlwinm %r6,%r7,0,0xff
  55 0052 7CE51A14 		add %r7,%r5,%r3
  56 0056 34C71300 		e_stb %r6,4864(%r7)
  57              		.loc 1 43 0
GAS LISTING C:\Users\nascapro\AppData\Local\Temp\cc6RIjDx.s 			page 2


  58 005a 70BEE7FC 		e_lis %r5,0xf7fc
  59 005e C671     		se_lwz %r7,24(%r1)
  60 0060 C067     		se_lwz %r6,0(%r7)
  61 0062 A471     		se_lhz %r7,8(%r1)
  62 0064 00E7     		se_extzh %r7
  63 0066 6C27     		se_slwi %r7, 2
  64 0068 7CE41070 		e_slwi %r4,%r7,2
  65 006c 0747     		se_subf %r7, %r4
  66 006e 7CE63A14 		add %r7,%r6,%r7
  67 0072 A077     		se_lhz %r7,0(%r7)
  68 0074 00F7     		se_extsh %r7
  69 0076 0173     		se_mr %r3,%r7
  70 0078 C671     		se_lwz %r7,24(%r1)
  71 007a C067     		se_lwz %r6,0(%r7)
  72 007c A471     		se_lhz %r7,8(%r1)
  73 007e 00E7     		se_extzh %r7
  74 0080 6C27     		se_slwi %r7, 2
  75 0082 7CE41070 		e_slwi %r4,%r7,2
  76 0086 0747     		se_subf %r7, %r4
  77 0088 7CE63A14 		add %r7,%r6,%r7
  78 008c C167     		se_lwz %r6,4(%r7)
  79 008e 18E38090 		e_addi %r7,%r3,144
  80 0092 6C27     		se_slwi %r7, 2
  81 0094 7CE53A14 		add %r7,%r5,%r7
  82 0098 D067     		se_stw %r6,0(%r7)
  83              		.loc 1 44 0
  84 009a A471     		se_lhz %r7,8(%r1)
  85 009c 00E7     		se_extzh %r7
  86 009e 2007     		se_addi %r7,1
  87 00a0 00E7     		se_extzh %r7
  88 00a2 B471     		se_sth %r7,8(%r1)
  89              	.L2:
  90              		.loc 1 41 0
  91 00a4 C671     		se_lwz %r7,24(%r1)
  92 00a6 C067     		se_lwz %r6,0(%r7)
  93 00a8 A471     		se_lhz %r7,8(%r1)
  94 00aa 00E7     		se_extzh %r7
  95 00ac 6C27     		se_slwi %r7, 2
  96 00ae 7CE51070 		e_slwi %r5,%r7,2
  97 00b2 0757     		se_subf %r7, %r5
  98 00b4 7CE63A14 		add %r7,%r6,%r7
  99 00b8 A077     		se_lhz %r7,0(%r7)
 100 00ba 7CE60734 		extsh %r6,%r7
 101 00be 2C07     		se_bmaski %r7,0
 102 00c0 7F863800 		cmp %cr7,%r6,%r7
 103 00c4 7CE00026 		mfcr %r7
 104 00c8 74E7E007 		e_rlwinm %r7,%r7,28,0xf0000000
 105 00cc 7CE80120 		mtcrf 128,%r7
 106 00d0 7A02FF4A 		e_bne %cr0,.L3
 107              		.loc 1 48 0
 108 00d4 4807     		se_li %r7,0
 109 00d6 B471     		se_sth %r7,8(%r1)
 110              		.loc 1 49 0
 111 00d8 78000042 		e_b .L4
 112              	.L5:
 113              		.loc 1 50 0
 114 00dc 70BEE7FC 		e_lis %r5,0xf7fc
GAS LISTING C:\Users\nascapro\AppData\Local\Temp\cc6RIjDx.s 			page 3


 115 00e0 C671     		se_lwz %r7,24(%r1)
 116 00e2 C167     		se_lwz %r6,4(%r7)
 117 00e4 A471     		se_lhz %r7,8(%r1)
 118 00e6 00E7     		se_extzh %r7
 119 00e8 6C37     		se_slwi %r7, 3
 120 00ea 7CE63A14 		add %r7,%r6,%r7
 121 00ee A077     		se_lhz %r7,0(%r7)
 122 00f0 00F7     		se_extsh %r7
 123 00f2 0174     		se_mr %r4,%r7
 124 00f4 C671     		se_lwz %r7,24(%r1)
 125 00f6 C167     		se_lwz %r6,4(%r7)
 126 00f8 A471     		se_lhz %r7,8(%r1)
 127 00fa 00E7     		se_extzh %r7
 128 00fc 6C37     		se_slwi %r7, 3
 129 00fe 7CE63A14 		add %r7,%r6,%r7
 130 0102 C167     		se_lwz %r6,4(%r7)
 131 0104 1CE40290 		e_add16i %r7,%r4,656
 132 0108 6C27     		se_slwi %r7, 2
 133 010a 7CE53A14 		add %r7,%r5,%r7
 134 010e D067     		se_stw %r6,0(%r7)
 135              		.loc 1 51 0
 136 0110 A471     		se_lhz %r7,8(%r1)
 137 0112 00E7     		se_extzh %r7
 138 0114 2007     		se_addi %r7,1
 139 0116 00E7     		se_extzh %r7
 140 0118 B471     		se_sth %r7,8(%r1)
 141              	.L4:
 142              		.loc 1 49 0
 143 011a C671     		se_lwz %r7,24(%r1)
 144 011c C167     		se_lwz %r6,4(%r7)
 145 011e A471     		se_lhz %r7,8(%r1)
 146 0120 00E7     		se_extzh %r7
 147 0122 6C37     		se_slwi %r7, 3
 148 0124 7CE63A14 		add %r7,%r6,%r7
 149 0128 A077     		se_lhz %r7,0(%r7)
 150 012a 7CE60734 		extsh %r6,%r7
 151 012e 2C07     		se_bmaski %r7,0
 152 0130 7F863800 		cmp %cr7,%r6,%r7
 153 0134 7CE00026 		mfcr %r7
 154 0138 74E7E007 		e_rlwinm %r7,%r7,28,0xf0000000
 155 013c 7CE80120 		mtcrf 128,%r7
 156 0140 7A02FF9C 		e_bne %cr0,.L5
 157              		.loc 1 53 0
 158 0144 C901     		se_lwz %r0,36(%r1)
 159 0146 0090     		se_mtlr %r0
 160 0148 21F1     		se_addi %r1,32
 161              	.LCFI1:
 162              		.cfi_def_cfa_offset 0
 163 014a 0004     		se_blr
 164              		.cfi_endproc
 165              	.LFE2:
 166              		.size	pal_init, .-pal_init
 167              		.section	.text._pal_readgroup,"axv",@progbits
 168              		.align 1
 169              		.p2align 4,,15
 170              		.globl _pal_readgroup
 171              		.type	_pal_readgroup, @function
GAS LISTING C:\Users\nascapro\AppData\Local\Temp\cc6RIjDx.s 			page 4


 172              	_pal_readgroup:
 173              	.LFB3:
 174              		.loc 1 66 0
 175              		.cfi_startproc
 176 0000 182106E8 		e_stwu %r1,-24(%r1)
 177              	.LCFI2:
 178              		.cfi_def_cfa_offset 24
 179 0004 D231     		se_stw %r3,8(%r1)
 180 0006 0147     		se_mr %r7,%r4
 181 0008 D451     		se_stw %r5,16(%r1)
 182 000a B671     		se_sth %r7,12(%r1)
 183              		.loc 1 71 0
 184 000c 4807     		se_li %r7,0
 185              		.loc 1 72 0
 186 000e 0173     		se_mr %r3,%r7
 187 0010 2171     		se_addi %r1,24
 188              	.LCFI3:
 189              		.cfi_def_cfa_offset 0
 190 0012 0004     		se_blr
 191              		.cfi_endproc
 192              	.LFE3:
 193              		.size	_pal_readgroup, .-_pal_readgroup
 194              		.section	.text._pal_writegroup,"axv",@progbits
 195              		.align 1
 196              		.p2align 4,,15
 197              		.globl _pal_writegroup
 198              		.type	_pal_writegroup, @function
 199              	_pal_writegroup:
 200              	.LFB4:
 201              		.loc 1 86 0
 202              		.cfi_startproc
 203 0000 182106E8 		e_stwu %r1,-24(%r1)
 204              	.LCFI4:
 205              		.cfi_def_cfa_offset 24
 206 0004 D231     		se_stw %r3,8(%r1)
 207 0006 D451     		se_stw %r5,16(%r1)
 208 0008 0167     		se_mr %r7,%r6
 209 000a B641     		se_sth %r4,12(%r1)
 210 000c B771     		se_sth %r7,14(%r1)
 211              		.loc 1 92 0
 212 000e 2171     		se_addi %r1,24
 213              	.LCFI5:
 214              		.cfi_def_cfa_offset 0
 215 0010 0004     		se_blr
 216              		.cfi_endproc
 217              	.LFE4:
 218              		.size	_pal_writegroup, .-_pal_writegroup
 219              		.section	.text._pal_setgroupmode,"axv",@progbits
 220              		.align 1
 221              		.p2align 4,,15
 222              		.globl _pal_setgroupmode
 223              		.type	_pal_setgroupmode, @function
 224              	_pal_setgroupmode:
 225              	.LFB5:
 226              		.loc 1 107 0
 227              		.cfi_startproc
 228 0000 182106D8 		e_stwu %r1,-40(%r1)
GAS LISTING C:\Users\nascapro\AppData\Local\Temp\cc6RIjDx.s 			page 5


 229              	.LCFI6:
 230              		.cfi_def_cfa_offset 40
 231 0004 D631     		se_stw %r3,24(%r1)
 232 0006 0147     		se_mr %r7,%r4
 233 0008 D851     		se_stw %r5,32(%r1)
 234 000a BE71     		se_sth %r7,28(%r1)
 235              		.loc 1 108 0
 236 000c C671     		se_lwz %r7,24(%r1)
 237 000e 6C47     		se_slwi %r7, 4
 238 0010 D271     		se_stw %r7,8(%r1)
 239              		.loc 1 109 0
 240 0012 70F07800 		e_li %r7,-32768
 241 0016 B671     		se_sth %r7,12(%r1)
 242              		.loc 1 110 0
 243 0018 78000044 		e_b .L10
 244              	.L12:
 245              		.loc 1 111 0
 246 001c AE61     		se_lhz %r6,28(%r1)
 247 001e A671     		se_lhz %r7,12(%r1)
 248 0020 4667     		se_and %r7,%r6
 249 0022 00E7     		se_extzh %r7
 250 0024 2A07     		se_cmpi %r7,0
 251 0026 7F800020 		e_mcrf %cr7,%cr0
 252 002a 7CE00026 		mfcr %r7
 253 002e 74E7E007 		e_rlwinm %r7,%r7,28,0xf0000000
 254 0032 7CE80120 		mtcrf 128,%r7
 255 0036 7A120018 		e_beq %cr0,.L11
 256              		.loc 1 112 0
 257 003a 70DEE7FC 		e_lis %r6,0xf7fc
 258 003e C271     		se_lwz %r7,8(%r1)
 259 0040 18E78090 		e_addi %r7,%r7,144
 260 0044 6C27     		se_slwi %r7, 2
 261 0046 7CE63A14 		add %r7,%r6,%r7
 262 004a C861     		se_lwz %r6,32(%r1)
 263 004c D067     		se_stw %r6,0(%r7)
 264              	.L11:
 265              		.loc 1 114 0
 266 004e A671     		se_lhz %r7,12(%r1)
 267 0050 00E7     		se_extzh %r7
 268 0052 6817     		se_srwi %r7,1
 269 0054 B671     		se_sth %r7,12(%r1)
 270              		.loc 1 115 0
 271 0056 C271     		se_lwz %r7,8(%r1)
 272 0058 2007     		se_addi %r7,1
 273 005a D271     		se_stw %r7,8(%r1)
 274              	.L10:
 275              		.loc 1 110 0
 276 005c A671     		se_lhz %r7,12(%r1)
 277 005e 00E7     		se_extzh %r7
 278 0060 2A07     		se_cmpi %r7,0
 279 0062 7F800020 		e_mcrf %cr7,%cr0
 280 0066 7CE00026 		mfcr %r7
 281 006a 74E7E007 		e_rlwinm %r7,%r7,28,0xf0000000
 282 006e 7CE80120 		mtcrf 128,%r7
 283 0072 7A02FFAA 		e_bne %cr0,.L12
 284              		.loc 1 117 0
 285 0076 18218028 		e_addi %r1,%r1,40
GAS LISTING C:\Users\nascapro\AppData\Local\Temp\cc6RIjDx.s 			page 6


 286              	.LCFI7:
 287              		.cfi_def_cfa_offset 0
 288 007a 0004     		se_blr
 289              		.cfi_endproc
 290              	.LFE5:
 291              		.size	_pal_setgroupmode, .-_pal_setgroupmode
 292              		.section	".text","axv"
 293              	.Letext0:
 294              		.file 2 "c:\\autodevkitstudio-2.1\\eclipse\\plugins\\com.st.tools.spc5.tools.gnu.gcc.ppcvle.win32_
 295              		.file 3 "c:\\autodevkitstudio-2.1\\eclipse\\plugins\\com.st.tools.spc5.tools.gnu.gcc.ppcvle.win32_
 296              		.file 4 "./components/spc582bxx_platform_component_rla/lib/include/typedefs.h"
 297              		.file 5 "./components/spc582bxx_platform_component_rla/lib/include/spc582b.h"
 298              		.file 6 "./components/spc582bxx_board_initialization_component_rla/lib/include/pal.h"