GAS LISTING C:\Users\nascapro\AppData\Local\Temp\ccKdmVBy.s 			page 1


   1              		.file	"pwm_lld.c"
   2              		.section	".text","axv"
   3              	.Ltext0:
   4              		.cfi_sections	.debug_frame
   5              		.globl PWMD9
   6              		.section	.bss.PWMD9,"aw",@nobits
   7              		.align 2
   8              		.type	PWMD9, @object
   9              		.size	PWMD9, 20
  10              	PWMD9:
  11 0000 00000000 		.zero	20
  11      00000000 
  11      00000000 
  11      00000000 
  11      00000000 
  12              		.globl PWMD11
  13              		.section	.bss.PWMD11,"aw",@nobits
  14              		.align 2
  15              		.type	PWMD11, @object
  16              		.size	PWMD11, 20
  17              	PWMD11:
  18 0000 00000000 		.zero	20
  18      00000000 
  18      00000000 
  18      00000000 
  18      00000000 
  19              		.section	.text.pwm_lld_serve_single_channel_interrupt,"axv",@progbits
  20              		.align 1
  21              		.p2align 4,,15
  22              		.globl pwm_lld_serve_single_channel_interrupt
  23              		.type	pwm_lld_serve_single_channel_interrupt, @function
  24              	pwm_lld_serve_single_channel_interrupt:
  25              	.LFB2:
  26              		.file 1 "./components/spc582bxx_low_level_drivers_component_rla/lib/src/pwm_lld.c"
  27              		.loc 1 220 0
  28              		.cfi_startproc
  29 0000 182106E0 		e_stwu %r1,-32(%r1)
  30              	.LCFI0:
  31              		.cfi_def_cfa_offset 32
  32 0004 0080     		se_mflr %r0
  33 0006 D901     		se_stw %r0,36(%r1)
  34              		.cfi_offset 65, 4
  35 0008 D631     		se_stw %r3,24(%r1)
  36              		.loc 1 222 0
  37 000a C671     		se_lwz %r7,24(%r1)
  38 000c C467     		se_lwz %r6,16(%r7)
  39 000e C671     		se_lwz %r7,24(%r1)
  40 0010 8077     		se_lbz %r7,0(%r7)
  41 0012 00C7     		se_extzb %r7
  42 0014 6C57     		se_slwi %r7, 5
  43 0016 7CE63A14 		add %r7,%r6,%r7
  44 001a 18E78030 		e_addi %r7,%r7,48
  45 001e C077     		se_lwz %r7,0(%r7)
  46 0020 D271     		se_stw %r7,8(%r1)
  47              		.loc 1 224 0
  48 0022 C271     		se_lwz %r7,8(%r1)
  49 0024 18E7C180 		e_andi %r7,%r7,32768
GAS LISTING C:\Users\nascapro\AppData\Local\Temp\ccKdmVBy.s 			page 2


  50 0028 2A07     		se_cmpi %r7,0
  51 002a 7F800020 		e_mcrf %cr7,%cr0
  52 002e 7CE00026 		mfcr %r7
  53 0032 74E7E007 		e_rlwinm %r7,%r7,28,0xf0000000
  54 0036 7CE80120 		mtcrf 128,%r7
  55 003a 7A120038 		e_beq %cr0,.L2
  56              		.loc 1 225 0
  57 003e C671     		se_lwz %r7,24(%r1)
  58 0040 C457     		se_lwz %r5,16(%r7)
  59 0042 C671     		se_lwz %r7,24(%r1)
  60 0044 8077     		se_lbz %r7,0(%r7)
  61 0046 00C7     		se_extzb %r7
  62 0048 0174     		se_mr %r4,%r7
  63 004a C671     		se_lwz %r7,24(%r1)
  64 004c C467     		se_lwz %r6,16(%r7)
  65 004e C671     		se_lwz %r7,24(%r1)
  66 0050 8077     		se_lbz %r7,0(%r7)
  67 0052 00C7     		se_extzb %r7
  68 0054 6C57     		se_slwi %r7, 5
  69 0056 7CE63A14 		add %r7,%r6,%r7
  70 005a 18E78030 		e_addi %r7,%r7,48
  71 005e C077     		se_lwz %r7,0(%r7)
  72 0060 18E6D180 		e_ori %r6,%r7,32768
  73 0064 7C872870 		e_slwi %r7,%r4,5
  74 0068 7CE53A14 		add %r7,%r5,%r7
  75 006c 18E78030 		e_addi %r7,%r7,48
  76 0070 D067     		se_stw %r6,0(%r7)
  77              	.L2:
  78              		.loc 1 227 0
  79 0072 C271     		se_lwz %r7,8(%r1)
  80 0074 2A07     		se_cmpi %r7,0
  81 0076 7F800020 		e_mcrf %cr7,%cr0
  82 007a 7CE00026 		mfcr %r7
  83 007e 74E7E007 		e_rlwinm %r7,%r7,28,0xf0000000
  84 0082 7CE80120 		mtcrf 128,%r7
  85 0086 7A000038 		e_bge %cr0,.L3
  86              		.loc 1 228 0
  87 008a C671     		se_lwz %r7,24(%r1)
  88 008c C457     		se_lwz %r5,16(%r7)
  89 008e C671     		se_lwz %r7,24(%r1)
  90 0090 8077     		se_lbz %r7,0(%r7)
  91 0092 00C7     		se_extzb %r7
  92 0094 0174     		se_mr %r4,%r7
  93 0096 C671     		se_lwz %r7,24(%r1)
  94 0098 C467     		se_lwz %r6,16(%r7)
  95 009a C671     		se_lwz %r7,24(%r1)
  96 009c 8077     		se_lbz %r7,0(%r7)
  97 009e 00C7     		se_extzb %r7
  98 00a0 6C57     		se_slwi %r7, 5
  99 00a2 7CE63A14 		add %r7,%r6,%r7
 100 00a6 18E78030 		e_addi %r7,%r7,48
 101 00aa C077     		se_lwz %r7,0(%r7)
 102 00ac 18E6D380 		e_ori %r6,%r7,-2147483648
 103 00b0 7C872870 		e_slwi %r7,%r4,5
 104 00b4 7CE53A14 		add %r7,%r5,%r7
 105 00b8 18E78030 		e_addi %r7,%r7,48
 106 00bc D067     		se_stw %r6,0(%r7)
GAS LISTING C:\Users\nascapro\AppData\Local\Temp\ccKdmVBy.s 			page 3


 107              	.L3:
 108              		.loc 1 230 0
 109 00be C271     		se_lwz %r7,8(%r1)
 110 00c0 2E17     		se_andi %r7,1
 111 00c2 2A07     		se_cmpi %r7,0
 112 00c4 7F800020 		e_mcrf %cr7,%cr0
 113 00c8 7CE00026 		mfcr %r7
 114 00cc 74E7E007 		e_rlwinm %r7,%r7,28,0xf0000000
 115 00d0 7CE80120 		mtcrf 128,%r7
 116 00d4 7A1201F0 		e_beq %cr0,.L1
 117              		.loc 1 231 0
 118 00d8 C671     		se_lwz %r7,24(%r1)
 119 00da C457     		se_lwz %r5,16(%r7)
 120 00dc C671     		se_lwz %r7,24(%r1)
 121 00de 8077     		se_lbz %r7,0(%r7)
 122 00e0 00C7     		se_extzb %r7
 123 00e2 0174     		se_mr %r4,%r7
 124 00e4 C671     		se_lwz %r7,24(%r1)
 125 00e6 C467     		se_lwz %r6,16(%r7)
 126 00e8 C671     		se_lwz %r7,24(%r1)
 127 00ea 8077     		se_lbz %r7,0(%r7)
 128 00ec 00C7     		se_extzb %r7
 129 00ee 6C57     		se_slwi %r7, 5
 130 00f0 7CE63A14 		add %r7,%r6,%r7
 131 00f4 18E78030 		e_addi %r7,%r7,48
 132 00f8 C077     		se_lwz %r7,0(%r7)
 133 00fa 18E6D001 		e_ori %r6,%r7,1
 134 00fe 7C872870 		e_slwi %r7,%r4,5
 135 0102 7CE53A14 		add %r7,%r5,%r7
 136 0106 18E78030 		e_addi %r7,%r7,48
 137 010a D067     		se_stw %r6,0(%r7)
 138              		.loc 1 232 0
 139 010c C671     		se_lwz %r7,24(%r1)
 140 010e C377     		se_lwz %r7,12(%r7)
 141 0110 C377     		se_lwz %r7,12(%r7)
 142 0112 C077     		se_lwz %r7,0(%r7)
 143 0114 2207     		se_cmpli %r7,1
 144 0116 7F800020 		e_mcrf %cr7,%cr0
 145 011a 7CE00026 		mfcr %r7
 146 011e 74E7E007 		e_rlwinm %r7,%r7,28,0xf0000000
 147 0122 7CE80120 		mtcrf 128,%r7
 148 0126 7A0200C4 		e_bne %cr0,.L5
 149              		.loc 1 233 0
 150 012a C671     		se_lwz %r7,24(%r1)
 151 012c C467     		se_lwz %r6,16(%r7)
 152 012e C671     		se_lwz %r7,24(%r1)
 153 0130 8077     		se_lbz %r7,0(%r7)
 154 0132 00C7     		se_extzb %r7
 155 0134 6C57     		se_slwi %r7, 5
 156 0136 7CE63A14 		add %r7,%r6,%r7
 157 013a 18E78030 		e_addi %r7,%r7,48
 158 013e C077     		se_lwz %r7,0(%r7)
 159 0140 6817     		se_srwi %r7,1
 160 0142 2E17     		se_andi %r7,1
 161 0144 00C7     		se_extzb %r7
 162 0146 2207     		se_cmpli %r7,1
 163 0148 7F800020 		e_mcrf %cr7,%cr0
GAS LISTING C:\Users\nascapro\AppData\Local\Temp\ccKdmVBy.s 			page 4


 164 014c 7CE00026 		mfcr %r7
 165 0150 74E7E007 		e_rlwinm %r7,%r7,28,0xf0000000
 166 0154 7CE80120 		mtcrf 128,%r7
 167 0158 7A020030 		e_bne %cr0,.L6
 168              		.loc 1 234 0 discriminator 1
 169 015c C671     		se_lwz %r7,24(%r1)
 170 015e C377     		se_lwz %r7,12(%r7)
 171 0160 C277     		se_lwz %r7,8(%r7)
 172              		.loc 1 233 0 discriminator 1
 173 0162 2A07     		se_cmpi %r7,0
 174 0164 7F800020 		e_mcrf %cr7,%cr0
 175 0168 7CE00026 		mfcr %r7
 176 016c 74E7E007 		e_rlwinm %r7,%r7,28,0xf0000000
 177 0170 7CE80120 		mtcrf 128,%r7
 178 0174 7A120014 		e_beq %cr0,.L6
 179              		.loc 1 235 0
 180 0178 C671     		se_lwz %r7,24(%r1)
 181 017a C377     		se_lwz %r7,12(%r7)
 182 017c C277     		se_lwz %r7,8(%r7)
 183 017e C631     		se_lwz %r3,24(%r1)
 184 0180 00B7     		se_mtctr %r7
 185 0182 0007     		se_bctrl
 186 0184 78000140 		e_b .L1
 187              	.L6:
 188              		.loc 1 236 0
 189 0188 C671     		se_lwz %r7,24(%r1)
 190 018a C467     		se_lwz %r6,16(%r7)
 191 018c C671     		se_lwz %r7,24(%r1)
 192 018e 8077     		se_lbz %r7,0(%r7)
 193 0190 00C7     		se_extzb %r7
 194 0192 6C57     		se_slwi %r7, 5
 195 0194 7CE63A14 		add %r7,%r6,%r7
 196 0198 18E78030 		e_addi %r7,%r7,48
 197 019c C077     		se_lwz %r7,0(%r7)
 198 019e 6817     		se_srwi %r7,1
 199 01a0 2E17     		se_andi %r7,1
 200 01a2 00C7     		se_extzb %r7
 201 01a4 2A07     		se_cmpi %r7,0
 202 01a6 7F800020 		e_mcrf %cr7,%cr0
 203 01aa 7CE00026 		mfcr %r7
 204 01ae 74E7E007 		e_rlwinm %r7,%r7,28,0xf0000000
 205 01b2 7CE80120 		mtcrf 128,%r7
 206 01b6 7A02010E 		e_bne %cr0,.L1
 207              		.loc 1 237 0 discriminator 1
 208 01ba C671     		se_lwz %r7,24(%r1)
 209 01bc C377     		se_lwz %r7,12(%r7)
 210 01be C377     		se_lwz %r7,12(%r7)
 211 01c0 C177     		se_lwz %r7,4(%r7)
 212              		.loc 1 236 0 discriminator 1
 213 01c2 2A07     		se_cmpi %r7,0
 214 01c4 7F800020 		e_mcrf %cr7,%cr0
 215 01c8 7CE00026 		mfcr %r7
 216 01cc 74E7E007 		e_rlwinm %r7,%r7,28,0xf0000000
 217 01d0 7CE80120 		mtcrf 128,%r7
 218 01d4 7A1200F0 		e_beq %cr0,.L1
 219              		.loc 1 238 0
 220 01d8 C671     		se_lwz %r7,24(%r1)
GAS LISTING C:\Users\nascapro\AppData\Local\Temp\ccKdmVBy.s 			page 5


 221 01da C377     		se_lwz %r7,12(%r7)
 222 01dc C377     		se_lwz %r7,12(%r7)
 223 01de C177     		se_lwz %r7,4(%r7)
 224 01e0 C631     		se_lwz %r3,24(%r1)
 225 01e2 00B7     		se_mtctr %r7
 226 01e4 0007     		se_bctrl
 227 01e6 780000DE 		e_b .L1
 228              	.L5:
 229              		.loc 1 242 0
 230 01ea C671     		se_lwz %r7,24(%r1)
 231 01ec C377     		se_lwz %r7,12(%r7)
 232 01ee C377     		se_lwz %r7,12(%r7)
 233 01f0 C077     		se_lwz %r7,0(%r7)
 234 01f2 2217     		se_cmpli %r7,2
 235 01f4 7F800020 		e_mcrf %cr7,%cr0
 236 01f8 7CE00026 		mfcr %r7
 237 01fc 74E7E007 		e_rlwinm %r7,%r7,28,0xf0000000
 238 0200 7CE80120 		mtcrf 128,%r7
 239 0204 7A0200C0 		e_bne %cr0,.L1
 240              		.loc 1 243 0
 241 0208 C671     		se_lwz %r7,24(%r1)
 242 020a C467     		se_lwz %r6,16(%r7)
 243 020c C671     		se_lwz %r7,24(%r1)
 244 020e 8077     		se_lbz %r7,0(%r7)
 245 0210 00C7     		se_extzb %r7
 246 0212 6C57     		se_slwi %r7, 5
 247 0214 7CE63A14 		add %r7,%r6,%r7
 248 0218 18E78030 		e_addi %r7,%r7,48
 249 021c C077     		se_lwz %r7,0(%r7)
 250 021e 6817     		se_srwi %r7,1
 251 0220 2E17     		se_andi %r7,1
 252 0222 00C7     		se_extzb %r7
 253 0224 2A07     		se_cmpi %r7,0
 254 0226 7F800020 		e_mcrf %cr7,%cr0
 255 022a 7CE00026 		mfcr %r7
 256 022e 74E7E007 		e_rlwinm %r7,%r7,28,0xf0000000
 257 0232 7CE80120 		mtcrf 128,%r7
 258 0236 7A020030 		e_bne %cr0,.L8
 259              		.loc 1 244 0 discriminator 1
 260 023a C671     		se_lwz %r7,24(%r1)
 261 023c C377     		se_lwz %r7,12(%r7)
 262 023e C277     		se_lwz %r7,8(%r7)
 263              		.loc 1 243 0 discriminator 1
 264 0240 2A07     		se_cmpi %r7,0
 265 0242 7F800020 		e_mcrf %cr7,%cr0
 266 0246 7CE00026 		mfcr %r7
 267 024a 74E7E007 		e_rlwinm %r7,%r7,28,0xf0000000
 268 024e 7CE80120 		mtcrf 128,%r7
 269 0252 7A120014 		e_beq %cr0,.L8
 270              		.loc 1 245 0
 271 0256 C671     		se_lwz %r7,24(%r1)
 272 0258 C377     		se_lwz %r7,12(%r7)
 273 025a C277     		se_lwz %r7,8(%r7)
 274 025c C631     		se_lwz %r3,24(%r1)
 275 025e 00B7     		se_mtctr %r7
 276 0260 0007     		se_bctrl
 277 0262 78000062 		e_b .L1
GAS LISTING C:\Users\nascapro\AppData\Local\Temp\ccKdmVBy.s 			page 6


 278              	.L8:
 279              		.loc 1 246 0
 280 0266 C671     		se_lwz %r7,24(%r1)
 281 0268 C467     		se_lwz %r6,16(%r7)
 282 026a C671     		se_lwz %r7,24(%r1)
 283 026c 8077     		se_lbz %r7,0(%r7)
 284 026e 00C7     		se_extzb %r7
 285 0270 6C57     		se_slwi %r7, 5
 286 0272 7CE63A14 		add %r7,%r6,%r7
 287 0276 18E78030 		e_addi %r7,%r7,48
 288 027a C077     		se_lwz %r7,0(%r7)
 289 027c 6817     		se_srwi %r7,1
 290 027e 2E17     		se_andi %r7,1
 291 0280 00C7     		se_extzb %r7
 292 0282 2207     		se_cmpli %r7,1
 293 0284 7F800020 		e_mcrf %cr7,%cr0
 294 0288 7CE00026 		mfcr %r7
 295 028c 74E7E007 		e_rlwinm %r7,%r7,28,0xf0000000
 296 0290 7CE80120 		mtcrf 128,%r7
 297 0294 7A020030 		e_bne %cr0,.L1
 298              		.loc 1 247 0 discriminator 1
 299 0298 C671     		se_lwz %r7,24(%r1)
 300 029a C377     		se_lwz %r7,12(%r7)
 301 029c C377     		se_lwz %r7,12(%r7)
 302 029e C177     		se_lwz %r7,4(%r7)
 303              		.loc 1 246 0 discriminator 1
 304 02a0 2A07     		se_cmpi %r7,0
 305 02a2 7F800020 		e_mcrf %cr7,%cr0
 306 02a6 7CE00026 		mfcr %r7
 307 02aa 74E7E007 		e_rlwinm %r7,%r7,28,0xf0000000
 308 02ae 7CE80120 		mtcrf 128,%r7
 309 02b2 7A120012 		e_beq %cr0,.L1
 310              		.loc 1 248 0
 311 02b6 C671     		se_lwz %r7,24(%r1)
 312 02b8 C377     		se_lwz %r7,12(%r7)
 313 02ba C377     		se_lwz %r7,12(%r7)
 314 02bc C177     		se_lwz %r7,4(%r7)
 315 02be C631     		se_lwz %r3,24(%r1)
 316 02c0 00B7     		se_mtctr %r7
 317 02c2 0007     		se_bctrl
 318              	.L1:
 319              		.loc 1 256 0
 320 02c4 C901     		se_lwz %r0,36(%r1)
 321 02c6 0090     		se_mtlr %r0
 322 02c8 21F1     		se_addi %r1,32
 323              	.LCFI1:
 324              		.cfi_def_cfa_offset 0
 325 02ca 0004     		se_blr
 326              		.cfi_endproc
 327              	.LFE2:
 328              		.size	pwm_lld_serve_single_channel_interrupt, .-pwm_lld_serve_single_channel_interrupt
 329              		.section	.text.pwm_lld_serve_group_period_interrupt,"axv",@progbits
 330              		.align 1
 331              		.p2align 4,,15
 332              		.globl pwm_lld_serve_group_period_interrupt
 333              		.type	pwm_lld_serve_group_period_interrupt, @function
 334              	pwm_lld_serve_group_period_interrupt:
GAS LISTING C:\Users\nascapro\AppData\Local\Temp\ccKdmVBy.s 			page 7


 335              	.LFB3:
 336              		.loc 1 267 0
 337              		.cfi_startproc
 338 0000 182106E0 		e_stwu %r1,-32(%r1)
 339              	.LCFI2:
 340              		.cfi_def_cfa_offset 32
 341 0004 0080     		se_mflr %r0
 342 0006 D901     		se_stw %r0,36(%r1)
 343              		.cfi_offset 65, 4
 344 0008 D631     		se_stw %r3,24(%r1)
 345              		.loc 1 271 0
 346 000a C671     		se_lwz %r7,24(%r1)
 347 000c C467     		se_lwz %r6,16(%r7)
 348 000e C671     		se_lwz %r7,24(%r1)
 349 0010 8077     		se_lbz %r7,0(%r7)
 350 0012 00C7     		se_extzb %r7
 351 0014 6C57     		se_slwi %r7, 5
 352 0016 7CE63A14 		add %r7,%r6,%r7
 353 001a 18E78030 		e_addi %r7,%r7,48
 354 001e C077     		se_lwz %r7,0(%r7)
 355 0020 D271     		se_stw %r7,8(%r1)
 356              		.loc 1 272 0
 357 0022 C271     		se_lwz %r7,8(%r1)
 358 0024 18E7C180 		e_andi %r7,%r7,32768
 359 0028 2A07     		se_cmpi %r7,0
 360 002a 7F800020 		e_mcrf %cr7,%cr0
 361 002e 7CE00026 		mfcr %r7
 362 0032 74E7E007 		e_rlwinm %r7,%r7,28,0xf0000000
 363 0036 7CE80120 		mtcrf 128,%r7
 364 003a 7A120038 		e_beq %cr0,.L11
 365              		.loc 1 273 0
 366 003e C671     		se_lwz %r7,24(%r1)
 367 0040 C457     		se_lwz %r5,16(%r7)
 368 0042 C671     		se_lwz %r7,24(%r1)
 369 0044 8077     		se_lbz %r7,0(%r7)
 370 0046 00C7     		se_extzb %r7
 371 0048 0174     		se_mr %r4,%r7
 372 004a C671     		se_lwz %r7,24(%r1)
 373 004c C467     		se_lwz %r6,16(%r7)
 374 004e C671     		se_lwz %r7,24(%r1)
 375 0050 8077     		se_lbz %r7,0(%r7)
 376 0052 00C7     		se_extzb %r7
 377 0054 6C57     		se_slwi %r7, 5
 378 0056 7CE63A14 		add %r7,%r6,%r7
 379 005a 18E78030 		e_addi %r7,%r7,48
 380 005e C077     		se_lwz %r7,0(%r7)
 381 0060 18E6D180 		e_ori %r6,%r7,32768
 382 0064 7C872870 		e_slwi %r7,%r4,5
 383 0068 7CE53A14 		add %r7,%r5,%r7
 384 006c 18E78030 		e_addi %r7,%r7,48
 385 0070 D067     		se_stw %r6,0(%r7)
 386              	.L11:
 387              		.loc 1 275 0
 388 0072 C271     		se_lwz %r7,8(%r1)
 389 0074 2A07     		se_cmpi %r7,0
 390 0076 7F800020 		e_mcrf %cr7,%cr0
 391 007a 7CE00026 		mfcr %r7
GAS LISTING C:\Users\nascapro\AppData\Local\Temp\ccKdmVBy.s 			page 8


 392 007e 74E7E007 		e_rlwinm %r7,%r7,28,0xf0000000
 393 0082 7CE80120 		mtcrf 128,%r7
 394 0086 7A000038 		e_bge %cr0,.L12
 395              		.loc 1 276 0
 396 008a C671     		se_lwz %r7,24(%r1)
 397 008c C457     		se_lwz %r5,16(%r7)
 398 008e C671     		se_lwz %r7,24(%r1)
 399 0090 8077     		se_lbz %r7,0(%r7)
 400 0092 00C7     		se_extzb %r7
 401 0094 0174     		se_mr %r4,%r7
 402 0096 C671     		se_lwz %r7,24(%r1)
 403 0098 C467     		se_lwz %r6,16(%r7)
 404 009a C671     		se_lwz %r7,24(%r1)
 405 009c 8077     		se_lbz %r7,0(%r7)
 406 009e 00C7     		se_extzb %r7
 407 00a0 6C57     		se_slwi %r7, 5
 408 00a2 7CE63A14 		add %r7,%r6,%r7
 409 00a6 18E78030 		e_addi %r7,%r7,48
 410 00aa C077     		se_lwz %r7,0(%r7)
 411 00ac 18E6D380 		e_ori %r6,%r7,-2147483648
 412 00b0 7C872870 		e_slwi %r7,%r4,5
 413 00b4 7CE53A14 		add %r7,%r5,%r7
 414 00b8 18E78030 		e_addi %r7,%r7,48
 415 00bc D067     		se_stw %r6,0(%r7)
 416              	.L12:
 417              		.loc 1 278 0
 418 00be C271     		se_lwz %r7,8(%r1)
 419 00c0 2E17     		se_andi %r7,1
 420 00c2 2A07     		se_cmpi %r7,0
 421 00c4 7F800020 		e_mcrf %cr7,%cr0
 422 00c8 7CE00026 		mfcr %r7
 423 00cc 74E7E007 		e_rlwinm %r7,%r7,28,0xf0000000
 424 00d0 7CE80120 		mtcrf 128,%r7
 425 00d4 7A120060 		e_beq %cr0,.L10
 426              		.loc 1 279 0
 427 00d8 C671     		se_lwz %r7,24(%r1)
 428 00da C457     		se_lwz %r5,16(%r7)
 429 00dc C671     		se_lwz %r7,24(%r1)
 430 00de 8077     		se_lbz %r7,0(%r7)
 431 00e0 00C7     		se_extzb %r7
 432 00e2 0174     		se_mr %r4,%r7
 433 00e4 C671     		se_lwz %r7,24(%r1)
 434 00e6 C467     		se_lwz %r6,16(%r7)
 435 00e8 C671     		se_lwz %r7,24(%r1)
 436 00ea 8077     		se_lbz %r7,0(%r7)
 437 00ec 00C7     		se_extzb %r7
 438 00ee 6C57     		se_slwi %r7, 5
 439 00f0 7CE63A14 		add %r7,%r6,%r7
 440 00f4 18E78030 		e_addi %r7,%r7,48
 441 00f8 C077     		se_lwz %r7,0(%r7)
 442 00fa 18E6D001 		e_ori %r6,%r7,1
 443 00fe 7C872870 		e_slwi %r7,%r4,5
 444 0102 7CE53A14 		add %r7,%r5,%r7
 445 0106 18E78030 		e_addi %r7,%r7,48
 446 010a D067     		se_stw %r6,0(%r7)
 447              		.loc 1 280 0
 448 010c C671     		se_lwz %r7,24(%r1)
GAS LISTING C:\Users\nascapro\AppData\Local\Temp\ccKdmVBy.s 			page 9


 449 010e C377     		se_lwz %r7,12(%r7)
 450 0110 C277     		se_lwz %r7,8(%r7)
 451 0112 2A07     		se_cmpi %r7,0
 452 0114 7F800020 		e_mcrf %cr7,%cr0
 453 0118 7CE00026 		mfcr %r7
 454 011c 74E7E007 		e_rlwinm %r7,%r7,28,0xf0000000
 455 0120 7CE80120 		mtcrf 128,%r7
 456 0124 7A120010 		e_beq %cr0,.L10
 457              		.loc 1 281 0
 458 0128 C671     		se_lwz %r7,24(%r1)
 459 012a C377     		se_lwz %r7,12(%r7)
 460 012c C277     		se_lwz %r7,8(%r7)
 461 012e C631     		se_lwz %r3,24(%r1)
 462 0130 00B7     		se_mtctr %r7
 463 0132 0007     		se_bctrl
 464              	.L10:
 465              		.loc 1 284 0
 466 0134 C901     		se_lwz %r0,36(%r1)
 467 0136 0090     		se_mtlr %r0
 468 0138 21F1     		se_addi %r1,32
 469              	.LCFI3:
 470              		.cfi_def_cfa_offset 0
 471 013a 0004     		se_blr
 472              		.cfi_endproc
 473              	.LFE3:
 474              		.size	pwm_lld_serve_group_period_interrupt, .-pwm_lld_serve_group_period_interrupt
 475              		.section	.text.pwm_lld_serve_group_channel_interrupt,"axv",@progbits
 476              		.align 1
 477              		.p2align 4,,15
 478              		.globl pwm_lld_serve_group_channel_interrupt
 479              		.type	pwm_lld_serve_group_channel_interrupt, @function
 480              	pwm_lld_serve_group_channel_interrupt:
 481              	.LFB4:
 482              		.loc 1 294 0
 483              		.cfi_startproc
 484 0000 182106E0 		e_stwu %r1,-32(%r1)
 485              	.LCFI4:
 486              		.cfi_def_cfa_offset 32
 487 0004 0080     		se_mflr %r0
 488 0006 D901     		se_stw %r0,36(%r1)
 489              		.cfi_offset 65, 4
 490 0008 D631     		se_stw %r3,24(%r1)
 491 000a 0147     		se_mr %r7,%r4
 492 000c 34E1001C 		e_stb %r7,28(%r1)
 493              		.loc 1 298 0
 494 0010 C671     		se_lwz %r7,24(%r1)
 495 0012 C467     		se_lwz %r6,16(%r7)
 496 0014 C671     		se_lwz %r7,24(%r1)
 497 0016 8077     		se_lbz %r7,0(%r7)
 498 0018 00C7     		se_extzb %r7
 499 001a 0175     		se_mr %r5,%r7
 500 001c 30E1001C 		e_lbz %r7,28(%r1)
 501 0020 00C7     		se_extzb %r7
 502 0022 7CE53A14 		add %r7,%r5,%r7
 503 0026 2007     		se_addi %r7,1
 504 0028 6C57     		se_slwi %r7, 5
 505 002a 7CE63A14 		add %r7,%r6,%r7
GAS LISTING C:\Users\nascapro\AppData\Local\Temp\ccKdmVBy.s 			page 10


 506 002e 18E78030 		e_addi %r7,%r7,48
 507 0032 C077     		se_lwz %r7,0(%r7)
 508 0034 D271     		se_stw %r7,8(%r1)
 509              		.loc 1 299 0
 510 0036 C271     		se_lwz %r7,8(%r1)
 511 0038 18E7C180 		e_andi %r7,%r7,32768
 512 003c 2A07     		se_cmpi %r7,0
 513 003e 7F800020 		e_mcrf %cr7,%cr0
 514 0042 7CE00026 		mfcr %r7
 515 0046 74E7E007 		e_rlwinm %r7,%r7,28,0xf0000000
 516 004a 7CE80120 		mtcrf 128,%r7
 517 004e 7A12004E 		e_beq %cr0,.L15
 518              		.loc 1 300 0
 519 0052 C671     		se_lwz %r7,24(%r1)
 520 0054 C457     		se_lwz %r5,16(%r7)
 521 0056 C671     		se_lwz %r7,24(%r1)
 522 0058 8077     		se_lbz %r7,0(%r7)
 523 005a 00C7     		se_extzb %r7
 524 005c 0176     		se_mr %r6,%r7
 525 005e 30E1001C 		e_lbz %r7,28(%r1)
 526 0062 00C7     		se_extzb %r7
 527 0064 7CE63A14 		add %r7,%r6,%r7
 528 0068 2007     		se_addi %r7,1
 529 006a C661     		se_lwz %r6,24(%r1)
 530 006c C446     		se_lwz %r4,16(%r6)
 531 006e C661     		se_lwz %r6,24(%r1)
 532 0070 8066     		se_lbz %r6,0(%r6)
 533 0072 00C6     		se_extzb %r6
 534 0074 0163     		se_mr %r3,%r6
 535 0076 30C1001C 		e_lbz %r6,28(%r1)
 536 007a 00C6     		se_extzb %r6
 537 007c 7CC33214 		add %r6,%r3,%r6
 538 0080 2006     		se_addi %r6,1
 539 0082 6C56     		se_slwi %r6, 5
 540 0084 7CC43214 		add %r6,%r4,%r6
 541 0088 18C68030 		e_addi %r6,%r6,48
 542 008c C066     		se_lwz %r6,0(%r6)
 543 008e 6506     		se_bseti %r6,16
 544 0090 6C57     		se_slwi %r7, 5
 545 0092 7CE53A14 		add %r7,%r5,%r7
 546 0096 18E78030 		e_addi %r7,%r7,48
 547 009a D067     		se_stw %r6,0(%r7)
 548              	.L15:
 549              		.loc 1 302 0
 550 009c C271     		se_lwz %r7,8(%r1)
 551 009e 2A07     		se_cmpi %r7,0
 552 00a0 7F800020 		e_mcrf %cr7,%cr0
 553 00a4 7CE00026 		mfcr %r7
 554 00a8 74E7E007 		e_rlwinm %r7,%r7,28,0xf0000000
 555 00ac 7CE80120 		mtcrf 128,%r7
 556 00b0 7A00004E 		e_bge %cr0,.L16
 557              		.loc 1 303 0
 558 00b4 C671     		se_lwz %r7,24(%r1)
 559 00b6 C457     		se_lwz %r5,16(%r7)
 560 00b8 C671     		se_lwz %r7,24(%r1)
 561 00ba 8077     		se_lbz %r7,0(%r7)
 562 00bc 00C7     		se_extzb %r7
GAS LISTING C:\Users\nascapro\AppData\Local\Temp\ccKdmVBy.s 			page 11


 563 00be 0176     		se_mr %r6,%r7
 564 00c0 30E1001C 		e_lbz %r7,28(%r1)
 565 00c4 00C7     		se_extzb %r7
 566 00c6 7CE63A14 		add %r7,%r6,%r7
 567 00ca 2007     		se_addi %r7,1
 568 00cc C661     		se_lwz %r6,24(%r1)
 569 00ce C446     		se_lwz %r4,16(%r6)
 570 00d0 C661     		se_lwz %r6,24(%r1)
 571 00d2 8066     		se_lbz %r6,0(%r6)
 572 00d4 00C6     		se_extzb %r6
 573 00d6 0163     		se_mr %r3,%r6
 574 00d8 30C1001C 		e_lbz %r6,28(%r1)
 575 00dc 00C6     		se_extzb %r6
 576 00de 7CC33214 		add %r6,%r3,%r6
 577 00e2 2006     		se_addi %r6,1
 578 00e4 6C56     		se_slwi %r6, 5
 579 00e6 7CC43214 		add %r6,%r4,%r6
 580 00ea 18C68030 		e_addi %r6,%r6,48
 581 00ee C066     		se_lwz %r6,0(%r6)
 582 00f0 6406     		se_bseti %r6,0
 583 00f2 6C57     		se_slwi %r7, 5
 584 00f4 7CE53A14 		add %r7,%r5,%r7
 585 00f8 18E78030 		e_addi %r7,%r7,48
 586 00fc D067     		se_stw %r6,0(%r7)
 587              	.L16:
 588              		.loc 1 305 0
 589 00fe C271     		se_lwz %r7,8(%r1)
 590 0100 2E17     		se_andi %r7,1
 591 0102 2A07     		se_cmpi %r7,0
 592 0104 7F800020 		e_mcrf %cr7,%cr0
 593 0108 7CE00026 		mfcr %r7
 594 010c 74E7E007 		e_rlwinm %r7,%r7,28,0xf0000000
 595 0110 7CE80120 		mtcrf 128,%r7
 596 0114 7A120092 		e_beq %cr0,.L14
 597              		.loc 1 306 0
 598 0118 C671     		se_lwz %r7,24(%r1)
 599 011a C457     		se_lwz %r5,16(%r7)
 600 011c C671     		se_lwz %r7,24(%r1)
 601 011e 8077     		se_lbz %r7,0(%r7)
 602 0120 00C7     		se_extzb %r7
 603 0122 0176     		se_mr %r6,%r7
 604 0124 30E1001C 		e_lbz %r7,28(%r1)
 605 0128 00C7     		se_extzb %r7
 606 012a 7CE63A14 		add %r7,%r6,%r7
 607 012e 2007     		se_addi %r7,1
 608 0130 C661     		se_lwz %r6,24(%r1)
 609 0132 C446     		se_lwz %r4,16(%r6)
 610 0134 C661     		se_lwz %r6,24(%r1)
 611 0136 8066     		se_lbz %r6,0(%r6)
 612 0138 00C6     		se_extzb %r6
 613 013a 0163     		se_mr %r3,%r6
 614 013c 30C1001C 		e_lbz %r6,28(%r1)
 615 0140 00C6     		se_extzb %r6
 616 0142 7CC33214 		add %r6,%r3,%r6
 617 0146 2006     		se_addi %r6,1
 618 0148 6C56     		se_slwi %r6, 5
 619 014a 7CC43214 		add %r6,%r4,%r6
GAS LISTING C:\Users\nascapro\AppData\Local\Temp\ccKdmVBy.s 			page 12


 620 014e 18C68030 		e_addi %r6,%r6,48
 621 0152 C066     		se_lwz %r6,0(%r6)
 622 0154 65F6     		se_bseti %r6,31
 623 0156 6C57     		se_slwi %r7, 5
 624 0158 7CE53A14 		add %r7,%r5,%r7
 625 015c 18E78030 		e_addi %r7,%r7,48
 626 0160 D067     		se_stw %r6,0(%r7)
 627              		.loc 1 307 0
 628 0162 C671     		se_lwz %r7,24(%r1)
 629 0164 C367     		se_lwz %r6,12(%r7)
 630 0166 30E1001C 		e_lbz %r7,28(%r1)
 631 016a 00C7     		se_extzb %r7
 632 016c 6C27     		se_slwi %r7, 2
 633 016e 7CE63A14 		add %r7,%r6,%r7
 634 0172 C377     		se_lwz %r7,12(%r7)
 635 0174 C177     		se_lwz %r7,4(%r7)
 636 0176 2A07     		se_cmpi %r7,0
 637 0178 7F800020 		e_mcrf %cr7,%cr0
 638 017c 7CE00026 		mfcr %r7
 639 0180 74E7E007 		e_rlwinm %r7,%r7,28,0xf0000000
 640 0184 7CE80120 		mtcrf 128,%r7
 641 0188 7A12001E 		e_beq %cr0,.L14
 642              		.loc 1 308 0
 643 018c C671     		se_lwz %r7,24(%r1)
 644 018e C367     		se_lwz %r6,12(%r7)
 645 0190 30E1001C 		e_lbz %r7,28(%r1)
 646 0194 00C7     		se_extzb %r7
 647 0196 6C27     		se_slwi %r7, 2
 648 0198 7CE63A14 		add %r7,%r6,%r7
 649 019c C377     		se_lwz %r7,12(%r7)
 650 019e C177     		se_lwz %r7,4(%r7)
 651 01a0 C631     		se_lwz %r3,24(%r1)
 652 01a2 00B7     		se_mtctr %r7
 653 01a4 0007     		se_bctrl
 654              	.L14:
 655              		.loc 1 311 0
 656 01a6 C901     		se_lwz %r0,36(%r1)
 657 01a8 0090     		se_mtlr %r0
 658 01aa 21F1     		se_addi %r1,32
 659              	.LCFI5:
 660              		.cfi_def_cfa_offset 0
 661 01ac 0004     		se_blr
 662              		.cfi_endproc
 663              	.LFE4:
 664              		.size	pwm_lld_serve_group_channel_interrupt, .-pwm_lld_serve_group_channel_interrupt
 665              		.section	.text.pwm_lld_init,"axv",@progbits
 666              		.align 1
 667              		.p2align 4,,15
 668              		.globl pwm_lld_init
 669              		.type	pwm_lld_init, @function
 670              	pwm_lld_init:
 671              	.LFB5:
 672              		.loc 1 326 0
 673              		.cfi_startproc
 674              		.loc 1 329 0
 675 0000 70E0E000 		e_lis %r7,EMIOS0D@ha
 676 0004 1CE70000 		e_la %r7,EMIOS0D@l(%r7)
GAS LISTING C:\Users\nascapro\AppData\Local\Temp\ccKdmVBy.s 			page 13


 677 0008 4806     		se_li %r6,0
 678 000a D067     		se_stw %r6,0(%r7)
 679              		.loc 1 330 0
 680 000c 70E0E000 		e_lis %r7,EMIOS0D@ha
 681 0010 1CE70000 		e_la %r7,EMIOS0D@l(%r7)
 682 0014 70DEE7C3 		e_lis %r6,0xf7c3
 683 0018 6506     		se_bseti %r6,16
 684 001a D167     		se_stw %r6,4(%r7)
 685              		.loc 1 399 0
 686 001c 70E0E000 		e_lis %r7,PWMD9@ha
 687 0020 1CE70000 		e_la %r7,PWMD9@l(%r7)
 688 0024 4816     		se_li %r6,1
 689 0026 D167     		se_stw %r6,4(%r7)
 690              		.loc 1 400 0
 691 0028 70E0E000 		e_lis %r7,PWMD9@ha
 692 002c 1CE70000 		e_la %r7,PWMD9@l(%r7)
 693 0030 4886     		se_li %r6,8
 694 0032 9067     		se_stb %r6,0(%r7)
 695              		.loc 1 401 0
 696 0034 70E0E000 		e_lis %r7,PWMD9@ha
 697 0038 1CE70000 		e_la %r7,PWMD9@l(%r7)
 698 003c 4806     		se_li %r6,0
 699 003e D367     		se_stw %r6,12(%r7)
 700              		.loc 1 402 0
 701 0040 70E0E000 		e_lis %r7,PWMD9@ha
 702 0044 1CE70000 		e_la %r7,PWMD9@l(%r7)
 703 0048 70DEE7C3 		e_lis %r6,0xf7c3
 704 004c 6506     		se_bseti %r6,16
 705 004e D467     		se_stw %r6,16(%r7)
 706              		.loc 1 415 0
 707 0050 70E0E000 		e_lis %r7,PWMD11@ha
 708 0054 1CE70000 		e_la %r7,PWMD11@l(%r7)
 709 0058 4816     		se_li %r6,1
 710 005a D167     		se_stw %r6,4(%r7)
 711              		.loc 1 416 0
 712 005c 70E0E000 		e_lis %r7,PWMD11@ha
 713 0060 1CE70000 		e_la %r7,PWMD11@l(%r7)
 714 0064 4986     		se_li %r6,24
 715 0066 9067     		se_stb %r6,0(%r7)
 716              		.loc 1 417 0
 717 0068 70E0E000 		e_lis %r7,PWMD11@ha
 718 006c 1CE70000 		e_la %r7,PWMD11@l(%r7)
 719 0070 4806     		se_li %r6,0
 720 0072 D367     		se_stw %r6,12(%r7)
 721              		.loc 1 418 0
 722 0074 70E0E000 		e_lis %r7,PWMD11@ha
 723 0078 1CE70000 		e_la %r7,PWMD11@l(%r7)
 724 007c 70DEE7C3 		e_lis %r6,0xf7c3
 725 0080 6506     		se_bseti %r6,16
 726 0082 D467     		se_stw %r6,16(%r7)
 727              		.loc 1 502 0
 728 0084 70FEE404 		e_lis %r7,0xf404
 729 0088 70E8C770 		e_or2i %r7,18288
 730 008c 70D07808 		e_li %r6,-32760
 731 0090 B067     		se_sth %r6,0(%r7)
 732              		.loc 1 503 0
 733 0092 70FEE404 		e_lis %r7,0xf404
GAS LISTING C:\Users\nascapro\AppData\Local\Temp\ccKdmVBy.s 			page 14


 734 0096 70E8C772 		e_or2i %r7,18290
 735 009a 70D07808 		e_li %r6,-32760
 736 009e B067     		se_sth %r6,0(%r7)
 737              		.loc 1 504 0
 738 00a0 70FEE404 		e_lis %r7,0xf404
 739 00a4 70E8C774 		e_or2i %r7,18292
 740 00a8 70D07808 		e_li %r6,-32760
 741 00ac B067     		se_sth %r6,0(%r7)
 742              		.loc 1 505 0
 743 00ae 70FEE404 		e_lis %r7,0xf404
 744 00b2 70E8C776 		e_or2i %r7,18294
 745 00b6 70D07808 		e_li %r6,-32760
 746 00ba B067     		se_sth %r6,0(%r7)
 747              		.loc 1 516 0
 748 00bc 70FEE404 		e_lis %r7,0xf404
 749 00c0 70E8C780 		e_or2i %r7,18304
 750 00c4 70D07808 		e_li %r6,-32760
 751 00c8 B067     		se_sth %r6,0(%r7)
 752              		.loc 1 517 0
 753 00ca 70FEE404 		e_lis %r7,0xf404
 754 00ce 70E8C782 		e_or2i %r7,18306
 755 00d2 70D07808 		e_li %r6,-32760
 756 00d6 B067     		se_sth %r6,0(%r7)
 757              		.loc 1 518 0
 758 00d8 70FEE404 		e_lis %r7,0xf404
 759 00dc 70E8C784 		e_or2i %r7,18308
 760 00e0 70D07808 		e_li %r6,-32760
 761 00e4 B067     		se_sth %r6,0(%r7)
 762              		.loc 1 519 0
 763 00e6 70FEE404 		e_lis %r7,0xf404
 764 00ea 70E8C786 		e_or2i %r7,18310
 765 00ee 70D07808 		e_li %r6,-32760
 766 00f2 B067     		se_sth %r6,0(%r7)
 767              		.loc 1 578 0
 768 00f4 0004     		se_blr
 769              		.cfi_endproc
 770              	.LFE5:
 771              		.size	pwm_lld_init, .-pwm_lld_init
 772              		.section	.text.pwm_lld_start_channel_group,"axv",@progbits
 773              		.align 1
 774              		.p2align 4,,15
 775              		.type	pwm_lld_start_channel_group, @function
 776              	pwm_lld_start_channel_group:
 777              	.LFB6:
 778              		.loc 1 647 0
 779              		.cfi_startproc
 780 0000 182106E0 		e_stwu %r1,-32(%r1)
 781              	.LCFI6:
 782              		.cfi_def_cfa_offset 32
 783 0004 D631     		se_stw %r3,24(%r1)
 784              		.loc 1 653 0
 785 0006 C671     		se_lwz %r7,24(%r1)
 786 0008 C477     		se_lwz %r7,16(%r7)
 787 000a C661     		se_lwz %r6,24(%r1)
 788 000c C466     		se_lwz %r6,16(%r6)
 789 000e C356     		se_lwz %r5,12(%r6)
 790 0010 C661     		se_lwz %r6,24(%r1)
GAS LISTING C:\Users\nascapro\AppData\Local\Temp\ccKdmVBy.s 			page 15


 791 0012 8066     		se_lbz %r6,0(%r6)
 792 0014 00C6     		se_extzb %r6
 793 0016 0164     		se_mr %r4,%r6
 794 0018 4816     		se_li %r6,1
 795 001a 4246     		se_slw %r6, %r4
 796 001c 0026     		se_not %r6
 797 001e 4656     		se_and %r6,%r5
 798 0020 D367     		se_stw %r6,12(%r7)
 799              		.loc 1 656 0
 800 0022 C671     		se_lwz %r7,24(%r1)
 801 0024 C467     		se_lwz %r6,16(%r7)
 802 0026 C671     		se_lwz %r7,24(%r1)
 803 0028 8077     		se_lbz %r7,0(%r7)
 804 002a 00C7     		se_extzb %r7
 805 002c 6C57     		se_slwi %r7, 5
 806 002e 7CE63A14 		add %r7,%r6,%r7
 807 0032 18E78030 		e_addi %r7,%r7,48
 808 0036 6206     		se_bgeni %r6,0
 809 0038 70D0C001 		e_or2i %r6,32769
 810 003c D067     		se_stw %r6,0(%r7)
 811              		.loc 1 660 0
 812 003e C671     		se_lwz %r7,24(%r1)
 813 0040 C467     		se_lwz %r6,16(%r7)
 814 0042 C671     		se_lwz %r7,24(%r1)
 815 0044 8077     		se_lbz %r7,0(%r7)
 816 0046 00C7     		se_extzb %r7
 817 0048 2007     		se_addi %r7,1
 818 004a 6C57     		se_slwi %r7, 5
 819 004c 0476     		se_add %r6,%r7
 820 004e C376     		se_lwz %r7,12(%r6)
 821 0050 4805     		se_li %r5,0
 822 0052 74A7C98C 		e_rlwimi %r7,%r5,25,6,6
 823 0056 D376     		se_stw %r7,12(%r6)
 824              		.loc 1 661 0
 825 0058 C671     		se_lwz %r7,24(%r1)
 826 005a C457     		se_lwz %r5,16(%r7)
 827 005c C671     		se_lwz %r7,24(%r1)
 828 005e 8077     		se_lbz %r7,0(%r7)
 829 0060 00C7     		se_extzb %r7
 830 0062 0174     		se_mr %r4,%r7
 831 0064 C671     		se_lwz %r7,24(%r1)
 832 0066 C267     		se_lwz %r6,8(%r7)
 833 0068 18E48001 		e_addi %r7,%r4,1
 834 006c 6C57     		se_slwi %r7, 5
 835 006e 7CE53A14 		add %r7,%r5,%r7
 836 0072 D067     		se_stw %r6,0(%r7)
 837              		.loc 1 662 0
 838 0074 C671     		se_lwz %r7,24(%r1)
 839 0076 C467     		se_lwz %r6,16(%r7)
 840 0078 C671     		se_lwz %r7,24(%r1)
 841 007a 8077     		se_lbz %r7,0(%r7)
 842 007c 00C7     		se_extzb %r7
 843 007e 2007     		se_addi %r7,1
 844 0080 6C57     		se_slwi %r7, 5
 845 0082 7CE63A14 		add %r7,%r6,%r7
 846 0086 4816     		se_li %r6,1
 847 0088 D167     		se_stw %r6,4(%r7)
GAS LISTING C:\Users\nascapro\AppData\Local\Temp\ccKdmVBy.s 			page 16


 848              		.loc 1 663 0
 849 008a C671     		se_lwz %r7,24(%r1)
 850 008c C467     		se_lwz %r6,16(%r7)
 851 008e C671     		se_lwz %r7,24(%r1)
 852 0090 8077     		se_lbz %r7,0(%r7)
 853 0092 00C7     		se_extzb %r7
 854 0094 2007     		se_addi %r7,1
 855 0096 6C57     		se_slwi %r7, 5
 856 0098 7CE63A14 		add %r7,%r6,%r7
 857 009c 4816     		se_li %r6,1
 858 009e D267     		se_stw %r6,8(%r7)
 859              		.loc 1 666 0
 860 00a0 C671     		se_lwz %r7,24(%r1)
 861 00a2 C457     		se_lwz %r5,16(%r7)
 862 00a4 C671     		se_lwz %r7,24(%r1)
 863 00a6 8077     		se_lbz %r7,0(%r7)
 864 00a8 00C7     		se_extzb %r7
 865 00aa 0174     		se_mr %r4,%r7
 866 00ac C671     		se_lwz %r7,24(%r1)
 867 00ae C467     		se_lwz %r6,16(%r7)
 868 00b0 C671     		se_lwz %r7,24(%r1)
 869 00b2 8077     		se_lbz %r7,0(%r7)
 870 00b4 00C7     		se_extzb %r7
 871 00b6 2007     		se_addi %r7,1
 872 00b8 6C57     		se_slwi %r7, 5
 873 00ba 7CE63A14 		add %r7,%r6,%r7
 874 00be C377     		se_lwz %r7,12(%r7)
 875 00c0 18E6D106 		e_ori %r6,%r7,1536
 876 00c4 18E48001 		e_addi %r7,%r4,1
 877 00c8 6C57     		se_slwi %r7, 5
 878 00ca 7CE53A14 		add %r7,%r5,%r7
 879 00ce D367     		se_stw %r6,12(%r7)
 880              		.loc 1 669 0
 881 00d0 C671     		se_lwz %r7,24(%r1)
 882 00d2 C457     		se_lwz %r5,16(%r7)
 883 00d4 C671     		se_lwz %r7,24(%r1)
 884 00d6 8077     		se_lbz %r7,0(%r7)
 885 00d8 00C7     		se_extzb %r7
 886 00da 0174     		se_mr %r4,%r7
 887 00dc C671     		se_lwz %r7,24(%r1)
 888 00de C467     		se_lwz %r6,16(%r7)
 889 00e0 C671     		se_lwz %r7,24(%r1)
 890 00e2 8077     		se_lbz %r7,0(%r7)
 891 00e4 00C7     		se_extzb %r7
 892 00e6 2007     		se_addi %r7,1
 893 00e8 6C57     		se_slwi %r7, 5
 894 00ea 7CE63A14 		add %r7,%r6,%r7
 895 00ee C377     		se_lwz %r7,12(%r7)
 896 00f0 18E6D050 		e_ori %r6,%r7,80
 897 00f4 18E48001 		e_addi %r7,%r4,1
 898 00f8 6C57     		se_slwi %r7, 5
 899 00fa 7CE53A14 		add %r7,%r5,%r7
 900 00fe D367     		se_stw %r6,12(%r7)
 901              		.loc 1 672 0
 902 0100 C671     		se_lwz %r7,24(%r1)
 903 0102 C377     		se_lwz %r7,12(%r7)
 904 0104 8077     		se_lbz %r7,0(%r7)
GAS LISTING C:\Users\nascapro\AppData\Local\Temp\ccKdmVBy.s 			page 17


 905 0106 00C7     		se_extzb %r7
 906 0108 2207     		se_cmpli %r7,1
 907 010a 7F800020 		e_mcrf %cr7,%cr0
 908 010e 7CE00026 		mfcr %r7
 909 0112 74E7E007 		e_rlwinm %r7,%r7,28,0xf0000000
 910 0116 7CE80120 		mtcrf 128,%r7
 911 011a 7A020038 		e_bne %cr0,.L20
 912              		.loc 1 673 0
 913 011e C671     		se_lwz %r7,24(%r1)
 914 0120 C457     		se_lwz %r5,16(%r7)
 915 0122 C671     		se_lwz %r7,24(%r1)
 916 0124 8077     		se_lbz %r7,0(%r7)
 917 0126 00C7     		se_extzb %r7
 918 0128 0174     		se_mr %r4,%r7
 919 012a C671     		se_lwz %r7,24(%r1)
 920 012c C467     		se_lwz %r6,16(%r7)
 921 012e C671     		se_lwz %r7,24(%r1)
 922 0130 8077     		se_lbz %r7,0(%r7)
 923 0132 00C7     		se_extzb %r7
 924 0134 2007     		se_addi %r7,1
 925 0136 6C57     		se_slwi %r7, 5
 926 0138 7CE63A14 		add %r7,%r6,%r7
 927 013c C377     		se_lwz %r7,12(%r7)
 928 013e 18E6D001 		e_ori %r6,%r7,1
 929 0142 18E48001 		e_addi %r7,%r4,1
 930 0146 6C57     		se_slwi %r7, 5
 931 0148 7CE53A14 		add %r7,%r5,%r7
 932 014c D367     		se_stw %r6,12(%r7)
 933 014e 78000034 		e_b .L21
 934              	.L20:
 935              		.loc 1 675 0
 936 0152 C671     		se_lwz %r7,24(%r1)
 937 0154 C457     		se_lwz %r5,16(%r7)
 938 0156 C671     		se_lwz %r7,24(%r1)
 939 0158 8077     		se_lbz %r7,0(%r7)
 940 015a 00C7     		se_extzb %r7
 941 015c 0174     		se_mr %r4,%r7
 942 015e C671     		se_lwz %r7,24(%r1)
 943 0160 C467     		se_lwz %r6,16(%r7)
 944 0162 C671     		se_lwz %r7,24(%r1)
 945 0164 8077     		se_lbz %r7,0(%r7)
 946 0166 00C7     		se_extzb %r7
 947 0168 2007     		se_addi %r7,1
 948 016a 6C57     		se_slwi %r7, 5
 949 016c 7CE63A14 		add %r7,%r6,%r7
 950 0170 C377     		se_lwz %r7,12(%r7)
 951 0172 18E6C4FE 		e_andi %r6,%r7,-2
 952 0176 18E48001 		e_addi %r7,%r4,1
 953 017a 6C57     		se_slwi %r7, 5
 954 017c 7CE53A14 		add %r7,%r5,%r7
 955 0180 D367     		se_stw %r6,12(%r7)
 956              	.L21:
 957              		.loc 1 679 0
 958 0182 C671     		se_lwz %r7,24(%r1)
 959 0184 C467     		se_lwz %r6,16(%r7)
 960 0186 C671     		se_lwz %r7,24(%r1)
 961 0188 8077     		se_lbz %r7,0(%r7)
GAS LISTING C:\Users\nascapro\AppData\Local\Temp\ccKdmVBy.s 			page 18


 962 018a 00C7     		se_extzb %r7
 963 018c 0174     		se_mr %r4,%r7
 964 018e C671     		se_lwz %r7,24(%r1)
 965 0190 C377     		se_lwz %r7,12(%r7)
 966 0192 8177     		se_lbz %r7,1(%r7)
 967 0194 00C7     		se_extzb %r7
 968 0196 18E784FF 		e_addi %r7,%r7,-1
 969 019a 00C7     		se_extzb %r7
 970 019c 2E37     		se_andi %r7,3
 971 019e 74E5063F 		e_rlwinm %r5,%r7,0,0xff
 972 01a2 18E48001 		e_addi %r7,%r4,1
 973 01a6 6C57     		se_slwi %r7, 5
 974 01a8 0476     		se_add %r6,%r7
 975 01aa C376     		se_lwz %r7,12(%r6)
 976 01ac 74A7D10A 		e_rlwimi %r7,%r5,26,4,5
 977 01b0 D376     		se_stw %r7,12(%r6)
 978              		.loc 1 680 0
 979 01b2 C671     		se_lwz %r7,24(%r1)
 980 01b4 C457     		se_lwz %r5,16(%r7)
 981 01b6 C671     		se_lwz %r7,24(%r1)
 982 01b8 8077     		se_lbz %r7,0(%r7)
 983 01ba 00C7     		se_extzb %r7
 984 01bc 0174     		se_mr %r4,%r7
 985 01be C671     		se_lwz %r7,24(%r1)
 986 01c0 C467     		se_lwz %r6,16(%r7)
 987 01c2 C671     		se_lwz %r7,24(%r1)
 988 01c4 8077     		se_lbz %r7,0(%r7)
 989 01c6 00C7     		se_extzb %r7
 990 01c8 2007     		se_addi %r7,1
 991 01ca 6C57     		se_slwi %r7, 5
 992 01cc 7CE63A14 		add %r7,%r6,%r7
 993 01d0 C377     		se_lwz %r7,12(%r7)
 994 01d2 18E6D302 		e_ori %r6,%r7,33554432
 995 01d6 18E48001 		e_addi %r7,%r4,1
 996 01da 6C57     		se_slwi %r7, 5
 997 01dc 7CE53A14 		add %r7,%r5,%r7
 998 01e0 D367     		se_stw %r6,12(%r7)
 999              		.loc 1 683 0
 1000 01e2 C671     		se_lwz %r7,24(%r1)
 1001 01e4 C477     		se_lwz %r7,16(%r7)
 1002 01e6 C661     		se_lwz %r6,24(%r1)
 1003 01e8 C466     		se_lwz %r6,16(%r6)
 1004 01ea C356     		se_lwz %r5,12(%r6)
 1005 01ec C661     		se_lwz %r6,24(%r1)
 1006 01ee 8066     		se_lbz %r6,0(%r6)
 1007 01f0 00C6     		se_extzb %r6
 1008 01f2 0164     		se_mr %r4,%r6
 1009 01f4 4816     		se_li %r6,1
 1010 01f6 4246     		se_slw %r6, %r4
 1011 01f8 4456     		se_or %r6,%r5
 1012 01fa D367     		se_stw %r6,12(%r7)
 1013              		.loc 1 686 0
 1014 01fc 4807     		se_li %r7,0
 1015 01fe 9871     		se_stb %r7,8(%r1)
 1016 0200 780001F0 		e_b .L22
 1017              	.L26:
 1018              		.loc 1 687 0
GAS LISTING C:\Users\nascapro\AppData\Local\Temp\ccKdmVBy.s 			page 19


 1019 0204 C671     		se_lwz %r7,24(%r1)
 1020 0206 C367     		se_lwz %r6,12(%r7)
 1021 0208 8871     		se_lbz %r7,8(%r1)
 1022 020a 00C7     		se_extzb %r7
 1023 020c 6C27     		se_slwi %r7, 2
 1024 020e 7CE63A14 		add %r7,%r6,%r7
 1025 0212 C377     		se_lwz %r7,12(%r7)
 1026 0214 C077     		se_lwz %r7,0(%r7)
 1027 0216 2A07     		se_cmpi %r7,0
 1028 0218 7F800020 		e_mcrf %cr7,%cr0
 1029 021c 7CE00026 		mfcr %r7
 1030 0220 74E7E007 		e_rlwinm %r7,%r7,28,0xf0000000
 1031 0224 7CE80120 		mtcrf 128,%r7
 1032 0228 7A1201C0 		e_beq %cr0,.L23
 1033              		.loc 1 689 0
 1034 022c C671     		se_lwz %r7,24(%r1)
 1035 022e C477     		se_lwz %r7,16(%r7)
 1036 0230 C661     		se_lwz %r6,24(%r1)
 1037 0232 C466     		se_lwz %r6,16(%r6)
 1038 0234 C356     		se_lwz %r5,12(%r6)
 1039 0236 C661     		se_lwz %r6,24(%r1)
 1040 0238 8066     		se_lbz %r6,0(%r6)
 1041 023a 00C6     		se_extzb %r6
 1042 023c 0164     		se_mr %r4,%r6
 1043 023e 8861     		se_lbz %r6,8(%r1)
 1044 0240 00C6     		se_extzb %r6
 1045 0242 7CC43214 		add %r6,%r4,%r6
 1046 0246 2006     		se_addi %r6,1
 1047 0248 0164     		se_mr %r4,%r6
 1048 024a 4816     		se_li %r6,1
 1049 024c 4246     		se_slw %r6, %r4
 1050 024e 0026     		se_not %r6
 1051 0250 4656     		se_and %r6,%r5
 1052 0252 D367     		se_stw %r6,12(%r7)
 1053              		.loc 1 692 0
 1054 0254 C671     		se_lwz %r7,24(%r1)
 1055 0256 C467     		se_lwz %r6,16(%r7)
 1056 0258 C671     		se_lwz %r7,24(%r1)
 1057 025a 8077     		se_lbz %r7,0(%r7)
 1058 025c 00C7     		se_extzb %r7
 1059 025e 0175     		se_mr %r5,%r7
 1060 0260 8871     		se_lbz %r7,8(%r1)
 1061 0262 00C7     		se_extzb %r7
 1062 0264 7CE53A14 		add %r7,%r5,%r7
 1063 0268 2007     		se_addi %r7,1
 1064 026a 6C57     		se_slwi %r7, 5
 1065 026c 7CE63A14 		add %r7,%r6,%r7
 1066 0270 18E78030 		e_addi %r7,%r7,48
 1067 0274 6206     		se_bgeni %r6,0
 1068 0276 70D0C001 		e_or2i %r6,32769
 1069 027a D067     		se_stw %r6,0(%r7)
 1070              		.loc 1 695 0
 1071 027c C671     		se_lwz %r7,24(%r1)
 1072 027e C467     		se_lwz %r6,16(%r7)
 1073 0280 C671     		se_lwz %r7,24(%r1)
 1074 0282 8077     		se_lbz %r7,0(%r7)
 1075 0284 00C7     		se_extzb %r7
GAS LISTING C:\Users\nascapro\AppData\Local\Temp\ccKdmVBy.s 			page 20


 1076 0286 0175     		se_mr %r5,%r7
 1077 0288 8871     		se_lbz %r7,8(%r1)
 1078 028a 00C7     		se_extzb %r7
 1079 028c 7CE53A14 		add %r7,%r5,%r7
 1080 0290 2007     		se_addi %r7,1
 1081 0292 2007     		se_addi %r7,1
 1082 0294 6C57     		se_slwi %r7, 5
 1083 0296 7CE63A14 		add %r7,%r6,%r7
 1084 029a 4806     		se_li %r6,0
 1085 029c D067     		se_stw %r6,0(%r7)
 1086              		.loc 1 696 0
 1087 029e C671     		se_lwz %r7,24(%r1)
 1088 02a0 C467     		se_lwz %r6,16(%r7)
 1089 02a2 C671     		se_lwz %r7,24(%r1)
 1090 02a4 8077     		se_lbz %r7,0(%r7)
 1091 02a6 00C7     		se_extzb %r7
 1092 02a8 0175     		se_mr %r5,%r7
 1093 02aa 8871     		se_lbz %r7,8(%r1)
 1094 02ac 00C7     		se_extzb %r7
 1095 02ae 7CE53A14 		add %r7,%r5,%r7
 1096 02b2 2007     		se_addi %r7,1
 1097 02b4 2007     		se_addi %r7,1
 1098 02b6 6C57     		se_slwi %r7, 5
 1099 02b8 7CE63A14 		add %r7,%r6,%r7
 1100 02bc 4806     		se_li %r6,0
 1101 02be D167     		se_stw %r6,4(%r7)
 1102              		.loc 1 699 0
 1103 02c0 C671     		se_lwz %r7,24(%r1)
 1104 02c2 C457     		se_lwz %r5,16(%r7)
 1105 02c4 C671     		se_lwz %r7,24(%r1)
 1106 02c6 8077     		se_lbz %r7,0(%r7)
 1107 02c8 00C7     		se_extzb %r7
 1108 02ca 0176     		se_mr %r6,%r7
 1109 02cc 8871     		se_lbz %r7,8(%r1)
 1110 02ce 00C7     		se_extzb %r7
 1111 02d0 7CE63A14 		add %r7,%r6,%r7
 1112 02d4 2007     		se_addi %r7,1
 1113 02d6 C661     		se_lwz %r6,24(%r1)
 1114 02d8 C446     		se_lwz %r4,16(%r6)
 1115 02da C661     		se_lwz %r6,24(%r1)
 1116 02dc 8066     		se_lbz %r6,0(%r6)
 1117 02de 00C6     		se_extzb %r6
 1118 02e0 0163     		se_mr %r3,%r6
 1119 02e2 8861     		se_lbz %r6,8(%r1)
 1120 02e4 00C6     		se_extzb %r6
 1121 02e6 7CC33214 		add %r6,%r3,%r6
 1122 02ea 2006     		se_addi %r6,1
 1123 02ec 2006     		se_addi %r6,1
 1124 02ee 6C56     		se_slwi %r6, 5
 1125 02f0 7CC43214 		add %r6,%r4,%r6
 1126 02f4 C366     		se_lwz %r6,12(%r6)
 1127 02f6 6566     		se_bseti %r6,22
 1128 02f8 2007     		se_addi %r7,1
 1129 02fa 6C57     		se_slwi %r7, 5
 1130 02fc 7CE53A14 		add %r7,%r5,%r7
 1131 0300 D367     		se_stw %r6,12(%r7)
 1132              		.loc 1 702 0
GAS LISTING C:\Users\nascapro\AppData\Local\Temp\ccKdmVBy.s 			page 21


 1133 0302 C671     		se_lwz %r7,24(%r1)
 1134 0304 C177     		se_lwz %r7,4(%r7)
 1135 0306 2207     		se_cmpli %r7,1
 1136 0308 7F800020 		e_mcrf %cr7,%cr0
 1137 030c 7CE00026 		mfcr %r7
 1138 0310 74E7E007 		e_rlwinm %r7,%r7,28,0xf0000000
 1139 0314 7CE80120 		mtcrf 128,%r7
 1140 0318 7A02004C 		e_bne %cr0,.L24
 1141              		.loc 1 703 0
 1142 031c C671     		se_lwz %r7,24(%r1)
 1143 031e C457     		se_lwz %r5,16(%r7)
 1144 0320 C671     		se_lwz %r7,24(%r1)
 1145 0322 8077     		se_lbz %r7,0(%r7)
 1146 0324 00C7     		se_extzb %r7
 1147 0326 0176     		se_mr %r6,%r7
 1148 0328 8871     		se_lbz %r7,8(%r1)
 1149 032a 00C7     		se_extzb %r7
 1150 032c 7CE63A14 		add %r7,%r6,%r7
 1151 0330 2007     		se_addi %r7,1
 1152 0332 C661     		se_lwz %r6,24(%r1)
 1153 0334 C446     		se_lwz %r4,16(%r6)
 1154 0336 C661     		se_lwz %r6,24(%r1)
 1155 0338 8066     		se_lbz %r6,0(%r6)
 1156 033a 00C6     		se_extzb %r6
 1157 033c 0163     		se_mr %r3,%r6
 1158 033e 8861     		se_lbz %r6,8(%r1)
 1159 0340 00C6     		se_extzb %r6
 1160 0342 7CC33214 		add %r6,%r3,%r6
 1161 0346 2006     		se_addi %r6,1
 1162 0348 2006     		se_addi %r6,1
 1163 034a 6C56     		se_slwi %r6, 5
 1164 034c 7CC43214 		add %r6,%r4,%r6
 1165 0350 C366     		se_lwz %r6,12(%r6)
 1166 0352 18C6D060 		e_ori %r6,%r6,96
 1167 0356 2007     		se_addi %r7,1
 1168 0358 6C57     		se_slwi %r7, 5
 1169 035a 7CE53A14 		add %r7,%r5,%r7
 1170 035e D367     		se_stw %r6,12(%r7)
 1171 0360 78000062 		e_b .L25
 1172              	.L24:
 1173              		.loc 1 704 0
 1174 0364 C671     		se_lwz %r7,24(%r1)
 1175 0366 C177     		se_lwz %r7,4(%r7)
 1176 0368 2217     		se_cmpli %r7,2
 1177 036a 7F800020 		e_mcrf %cr7,%cr0
 1178 036e 7CE00026 		mfcr %r7
 1179 0372 74E7E007 		e_rlwinm %r7,%r7,28,0xf0000000
 1180 0376 7CE80120 		mtcrf 128,%r7
 1181 037a 7A020048 		e_bne %cr0,.L25
 1182              		.loc 1 705 0
 1183 037e C671     		se_lwz %r7,24(%r1)
 1184 0380 C457     		se_lwz %r5,16(%r7)
 1185 0382 C671     		se_lwz %r7,24(%r1)
 1186 0384 8077     		se_lbz %r7,0(%r7)
 1187 0386 00C7     		se_extzb %r7
 1188 0388 0176     		se_mr %r6,%r7
 1189 038a 8871     		se_lbz %r7,8(%r1)
GAS LISTING C:\Users\nascapro\AppData\Local\Temp\ccKdmVBy.s 			page 22


 1190 038c 00C7     		se_extzb %r7
 1191 038e 7CE63A14 		add %r7,%r6,%r7
 1192 0392 2007     		se_addi %r7,1
 1193 0394 C661     		se_lwz %r6,24(%r1)
 1194 0396 C446     		se_lwz %r4,16(%r6)
 1195 0398 C661     		se_lwz %r6,24(%r1)
 1196 039a 8066     		se_lbz %r6,0(%r6)
 1197 039c 00C6     		se_extzb %r6
 1198 039e 0163     		se_mr %r3,%r6
 1199 03a0 8861     		se_lbz %r6,8(%r1)
 1200 03a2 00C6     		se_extzb %r6
 1201 03a4 7CC33214 		add %r6,%r3,%r6
 1202 03a8 2006     		se_addi %r6,1
 1203 03aa 2006     		se_addi %r6,1
 1204 03ac 6C56     		se_slwi %r6, 5
 1205 03ae 7CC43214 		add %r6,%r4,%r6
 1206 03b2 C366     		se_lwz %r6,12(%r6)
 1207 03b4 18C6D026 		e_ori %r6,%r6,38
 1208 03b8 2007     		se_addi %r7,1
 1209 03ba 6C57     		se_slwi %r7, 5
 1210 03bc 7CE53A14 		add %r7,%r5,%r7
 1211 03c0 D367     		se_stw %r6,12(%r7)
 1212              	.L25:
 1213              		.loc 1 711 0
 1214 03c2 C671     		se_lwz %r7,24(%r1)
 1215 03c4 C477     		se_lwz %r7,16(%r7)
 1216 03c6 C661     		se_lwz %r6,24(%r1)
 1217 03c8 C466     		se_lwz %r6,16(%r6)
 1218 03ca C356     		se_lwz %r5,12(%r6)
 1219 03cc C661     		se_lwz %r6,24(%r1)
 1220 03ce 8066     		se_lbz %r6,0(%r6)
 1221 03d0 00C6     		se_extzb %r6
 1222 03d2 0164     		se_mr %r4,%r6
 1223 03d4 8861     		se_lbz %r6,8(%r1)
 1224 03d6 00C6     		se_extzb %r6
 1225 03d8 7CC43214 		add %r6,%r4,%r6
 1226 03dc 2006     		se_addi %r6,1
 1227 03de 0164     		se_mr %r4,%r6
 1228 03e0 4816     		se_li %r6,1
 1229 03e2 4246     		se_slw %r6, %r4
 1230 03e4 4456     		se_or %r6,%r5
 1231 03e6 D367     		se_stw %r6,12(%r7)
 1232              	.L23:
 1233              		.loc 1 686 0 discriminator 2
 1234 03e8 8871     		se_lbz %r7,8(%r1)
 1235 03ea 00C7     		se_extzb %r7
 1236 03ec 2007     		se_addi %r7,1
 1237 03ee 9871     		se_stb %r7,8(%r1)
 1238              	.L22:
 1239              		.loc 1 686 0 is_stmt 0 discriminator 1
 1240 03f0 8871     		se_lbz %r7,8(%r1)
 1241 03f2 00C7     		se_extzb %r7
 1242 03f4 2257     		se_cmpli %r7,6
 1243 03f6 7F800020 		e_mcrf %cr7,%cr0
 1244 03fa 7CE00026 		mfcr %r7
 1245 03fe 74E7E007 		e_rlwinm %r7,%r7,28,0xf0000000
 1246 0402 7CE80120 		mtcrf 128,%r7
GAS LISTING C:\Users\nascapro\AppData\Local\Temp\ccKdmVBy.s 			page 23


 1247 0406 7A01FDFE 		e_ble %cr0,.L26
 1248              		.loc 1 714 0 is_stmt 1
 1249 040a 21F1     		se_addi %r1,32
 1250              	.LCFI7:
 1251              		.cfi_def_cfa_offset 0
 1252 040c 0004     		se_blr
 1253              		.cfi_endproc
 1254              	.LFE6:
 1255              		.size	pwm_lld_start_channel_group, .-pwm_lld_start_channel_group
 1256              		.section	.text.pwm_lld_start,"axv",@progbits
 1257              		.align 1
 1258              		.p2align 4,,15
 1259              		.globl pwm_lld_start
 1260              		.type	pwm_lld_start, @function
 1261              	pwm_lld_start:
 1262              	.LFB7:
 1263              		.loc 1 725 0
 1264              		.cfi_startproc
 1265 0000 182106F0 		e_stwu %r1,-16(%r1)
 1266              	.LCFI8:
 1267              		.cfi_def_cfa_offset 16
 1268 0004 0080     		se_mflr %r0
 1269 0006 D501     		se_stw %r0,20(%r1)
 1270              		.cfi_offset 65, 4
 1271 0008 D231     		se_stw %r3,8(%r1)
 1272 000a D341     		se_stw %r4,12(%r1)
 1273              		.loc 1 727 0
 1274 000c 78000001 		e_bl osalEnterCritical
 1275              		.loc 1 729 0
 1276 0010 C271     		se_lwz %r7,8(%r1)
 1277 0012 C361     		se_lwz %r6,12(%r1)
 1278 0014 D367     		se_stw %r6,12(%r7)
 1279              		.loc 1 730 0
 1280 0016 C371     		se_lwz %r7,12(%r1)
 1281 0018 C167     		se_lwz %r6,4(%r7)
 1282 001a C271     		se_lwz %r7,8(%r1)
 1283 001c D267     		se_stw %r6,8(%r7)
 1284              		.loc 1 782 0
 1285 001e C261     		se_lwz %r6,8(%r1)
 1286 0020 70E0E000 		e_lis %r7,PWMD9@ha
 1287 0024 1CE70000 		e_la %r7,PWMD9@l(%r7)
 1288 0028 7F863800 		cmp %cr7,%r6,%r7
 1289 002c 7CE00026 		mfcr %r7
 1290 0030 74E7E007 		e_rlwinm %r7,%r7,28,0xf0000000
 1291 0034 7CE80120 		mtcrf 128,%r7
 1292 0038 7A02001C 		e_bne %cr0,.L28
 1293              		.loc 1 783 0
 1294 003c 70E0E000 		e_lis %r7,EMIOS0D@ha
 1295 0040 1CE70000 		e_la %r7,EMIOS0D@l(%r7)
 1296 0044 C077     		se_lwz %r7,0(%r7)
 1297 0046 18C78001 		e_addi %r6,%r7,1
 1298 004a 70E0E000 		e_lis %r7,EMIOS0D@ha
 1299 004e 1CE70000 		e_la %r7,EMIOS0D@l(%r7)
 1300 0052 D067     		se_stw %r6,0(%r7)
 1301              	.L28:
 1302              		.loc 1 794 0
 1303 0054 C261     		se_lwz %r6,8(%r1)
GAS LISTING C:\Users\nascapro\AppData\Local\Temp\ccKdmVBy.s 			page 24


 1304 0056 70E0E000 		e_lis %r7,PWMD11@ha
 1305 005a 1CE70000 		e_la %r7,PWMD11@l(%r7)
 1306 005e 7F863800 		cmp %cr7,%r6,%r7
 1307 0062 7CE00026 		mfcr %r7
 1308 0066 74E7E007 		e_rlwinm %r7,%r7,28,0xf0000000
 1309 006a 7CE80120 		mtcrf 128,%r7
 1310 006e 7A02001C 		e_bne %cr0,.L29
 1311              		.loc 1 795 0
 1312 0072 70E0E000 		e_lis %r7,EMIOS0D@ha
 1313 0076 1CE70000 		e_la %r7,EMIOS0D@l(%r7)
 1314 007a C077     		se_lwz %r7,0(%r7)
 1315 007c 18C78001 		e_addi %r6,%r7,1
 1316 0080 70E0E000 		e_lis %r7,EMIOS0D@ha
 1317 0084 1CE70000 		e_la %r7,EMIOS0D@l(%r7)
 1318 0088 D067     		se_stw %r6,0(%r7)
 1319              	.L29:
 1320              		.loc 1 849 0
 1321 008a C271     		se_lwz %r7,8(%r1)
 1322 008c C467     		se_lwz %r6,16(%r7)
 1323 008e 70FEE7C3 		e_lis %r7,0xf7c3
 1324 0092 6507     		se_bseti %r7,16
 1325 0094 7F863800 		cmp %cr7,%r6,%r7
 1326 0098 7CE00026 		mfcr %r7
 1327 009c 74E7E007 		e_rlwinm %r7,%r7,28,0xf0000000
 1328 00a0 7CE80120 		mtcrf 128,%r7
 1329 00a4 7A020010 		e_bne %cr0,.L30
 1330              		.loc 1 850 0
 1331 00a8 70E0E000 		e_lis %r7,EMIOS0D@ha
 1332 00ac 1C670000 		e_la %r3,EMIOS0D@l(%r7)
 1333 00b0 78000001 		e_bl emios_enable_clock
 1334              	.L30:
 1335              		.loc 1 917 0
 1336 00b4 C261     		se_lwz %r6,8(%r1)
 1337 00b6 70E0E000 		e_lis %r7,PWMD9@ha
 1338 00ba 1CE70000 		e_la %r7,PWMD9@l(%r7)
 1339 00be 7F863800 		cmp %cr7,%r6,%r7
 1340 00c2 7CE00026 		mfcr %r7
 1341 00c6 74E7E007 		e_rlwinm %r7,%r7,28,0xf0000000
 1342 00ca 7CE80120 		mtcrf 128,%r7
 1343 00ce 7A02000A 		e_bne %cr0,.L31
 1344              		.loc 1 918 0
 1345 00d2 C231     		se_lwz %r3,8(%r1)
 1346 00d4 78000001 		e_bl pwm_lld_start_channel_group
 1347              	.L31:
 1348              		.loc 1 929 0
 1349 00d8 C261     		se_lwz %r6,8(%r1)
 1350 00da 70E0E000 		e_lis %r7,PWMD11@ha
 1351 00de 1CE70000 		e_la %r7,PWMD11@l(%r7)
 1352 00e2 7F863800 		cmp %cr7,%r6,%r7
 1353 00e6 7CE00026 		mfcr %r7
 1354 00ea 74E7E007 		e_rlwinm %r7,%r7,28,0xf0000000
 1355 00ee 7CE80120 		mtcrf 128,%r7
 1356 00f2 7A02000A 		e_bne %cr0,.L32
 1357              		.loc 1 930 0
 1358 00f6 C231     		se_lwz %r3,8(%r1)
 1359 00f8 78000001 		e_bl pwm_lld_start_channel_group
 1360              	.L32:
GAS LISTING C:\Users\nascapro\AppData\Local\Temp\ccKdmVBy.s 			page 25


 1361              		.loc 1 982 0
 1362 00fc 78000001 		e_bl osalExitCritical
 1363              		.loc 1 983 0
 1364 0100 C501     		se_lwz %r0,20(%r1)
 1365 0102 0090     		se_mtlr %r0
 1366 0104 20F1     		se_addi %r1,16
 1367              	.LCFI9:
 1368              		.cfi_def_cfa_offset 0
 1369 0106 0004     		se_blr
 1370              		.cfi_endproc
 1371              	.LFE7:
 1372              		.size	pwm_lld_start, .-pwm_lld_start
 1373              		.section	.text.pwm_lld_stop,"axv",@progbits
 1374              		.align 1
 1375              		.p2align 4,,15
 1376              		.globl pwm_lld_stop
 1377              		.type	pwm_lld_stop, @function
 1378              	pwm_lld_stop:
 1379              	.LFB8:
 1380              		.loc 1 992 0
 1381              		.cfi_startproc
 1382 0000 182106E0 		e_stwu %r1,-32(%r1)
 1383              	.LCFI10:
 1384              		.cfi_def_cfa_offset 32
 1385 0004 0080     		se_mflr %r0
 1386 0006 D901     		se_stw %r0,36(%r1)
 1387              		.cfi_offset 65, 4
 1388 0008 D631     		se_stw %r3,24(%r1)
 1389              		.loc 1 1003 0
 1390 000a 78000001 		e_bl osalEnterCritical
 1391              		.loc 1 1104 0
 1392 000e C661     		se_lwz %r6,24(%r1)
 1393 0010 70E0E000 		e_lis %r7,PWMD9@ha
 1394 0014 1CE70000 		e_la %r7,PWMD9@l(%r7)
 1395 0018 7F863800 		cmp %cr7,%r6,%r7
 1396 001c 7CE00026 		mfcr %r7
 1397 0020 74E7E007 		e_rlwinm %r7,%r7,28,0xf0000000
 1398 0024 7CE80120 		mtcrf 128,%r7
 1399 0028 7A0200B0 		e_bne %cr0,.L34
 1400              		.loc 1 1108 0
 1401 002c 4807     		se_li %r7,0
 1402 002e 9871     		se_stb %r7,8(%r1)
 1403 0030 78000076 		e_b .L35
 1404              	.L36:
 1405              		.loc 1 1109 0 discriminator 3
 1406 0034 C671     		se_lwz %r7,24(%r1)
 1407 0036 C477     		se_lwz %r7,16(%r7)
 1408 0038 C661     		se_lwz %r6,24(%r1)
 1409 003a C466     		se_lwz %r6,16(%r6)
 1410 003c C356     		se_lwz %r5,12(%r6)
 1411 003e C661     		se_lwz %r6,24(%r1)
 1412 0040 8066     		se_lbz %r6,0(%r6)
 1413 0042 00C6     		se_extzb %r6
 1414 0044 0164     		se_mr %r4,%r6
 1415 0046 8861     		se_lbz %r6,8(%r1)
 1416 0048 00C6     		se_extzb %r6
 1417 004a 7CC43214 		add %r6,%r4,%r6
GAS LISTING C:\Users\nascapro\AppData\Local\Temp\ccKdmVBy.s 			page 26


 1418 004e 4814     		se_li %r4,1
 1419 0050 7C863030 		slw %r6,%r4,%r6
 1420 0054 0026     		se_not %r6
 1421 0056 4656     		se_and %r6,%r5
 1422 0058 D367     		se_stw %r6,12(%r7)
 1423              		.loc 1 1110 0 discriminator 3
 1424 005a C671     		se_lwz %r7,24(%r1)
 1425 005c C467     		se_lwz %r6,16(%r7)
 1426 005e C671     		se_lwz %r7,24(%r1)
 1427 0060 8077     		se_lbz %r7,0(%r7)
 1428 0062 00C7     		se_extzb %r7
 1429 0064 0175     		se_mr %r5,%r7
 1430 0066 8871     		se_lbz %r7,8(%r1)
 1431 0068 00C7     		se_extzb %r7
 1432 006a 7CE53A14 		add %r7,%r5,%r7
 1433 006e 2007     		se_addi %r7,1
 1434 0070 6C57     		se_slwi %r7, 5
 1435 0072 7CE63A14 		add %r7,%r6,%r7
 1436 0076 4806     		se_li %r6,0
 1437 0078 D367     		se_stw %r6,12(%r7)
 1438              		.loc 1 1111 0 discriminator 3
 1439 007a C671     		se_lwz %r7,24(%r1)
 1440 007c C477     		se_lwz %r7,16(%r7)
 1441 007e C661     		se_lwz %r6,24(%r1)
 1442 0080 C466     		se_lwz %r6,16(%r6)
 1443 0082 C356     		se_lwz %r5,12(%r6)
 1444 0084 C661     		se_lwz %r6,24(%r1)
 1445 0086 8066     		se_lbz %r6,0(%r6)
 1446 0088 00C6     		se_extzb %r6
 1447 008a 0164     		se_mr %r4,%r6
 1448 008c 8861     		se_lbz %r6,8(%r1)
 1449 008e 00C6     		se_extzb %r6
 1450 0090 7CC43214 		add %r6,%r4,%r6
 1451 0094 4814     		se_li %r4,1
 1452 0096 7C863030 		slw %r6,%r4,%r6
 1453 009a 4456     		se_or %r6,%r5
 1454 009c D367     		se_stw %r6,12(%r7)
 1455              		.loc 1 1108 0 discriminator 3
 1456 009e 8871     		se_lbz %r7,8(%r1)
 1457 00a0 00C7     		se_extzb %r7
 1458 00a2 2007     		se_addi %r7,1
 1459 00a4 9871     		se_stb %r7,8(%r1)
 1460              	.L35:
 1461              		.loc 1 1108 0 is_stmt 0 discriminator 1
 1462 00a6 8871     		se_lbz %r7,8(%r1)
 1463 00a8 00C7     		se_extzb %r7
 1464 00aa 2267     		se_cmpli %r7,7
 1465 00ac 7F800020 		e_mcrf %cr7,%cr0
 1466 00b0 7CE00026 		mfcr %r7
 1467 00b4 74E7E007 		e_rlwinm %r7,%r7,28,0xf0000000
 1468 00b8 7CE80120 		mtcrf 128,%r7
 1469 00bc 7A01FF78 		e_ble %cr0,.L36
 1470              		.loc 1 1113 0 is_stmt 1
 1471 00c0 70E0E000 		e_lis %r7,EMIOS0D@ha
 1472 00c4 1CE70000 		e_la %r7,EMIOS0D@l(%r7)
 1473 00c8 C077     		se_lwz %r7,0(%r7)
 1474 00ca 18C784FF 		e_addi %r6,%r7,-1
GAS LISTING C:\Users\nascapro\AppData\Local\Temp\ccKdmVBy.s 			page 27


 1475 00ce 70E0E000 		e_lis %r7,EMIOS0D@ha
 1476 00d2 1CE70000 		e_la %r7,EMIOS0D@l(%r7)
 1477 00d6 D067     		se_stw %r6,0(%r7)
 1478              	.L34:
 1479              		.loc 1 1132 0
 1480 00d8 C661     		se_lwz %r6,24(%r1)
 1481 00da 70E0E000 		e_lis %r7,PWMD11@ha
 1482 00de 1CE70000 		e_la %r7,PWMD11@l(%r7)
 1483 00e2 7F863800 		cmp %cr7,%r6,%r7
 1484 00e6 7CE00026 		mfcr %r7
 1485 00ea 74E7E007 		e_rlwinm %r7,%r7,28,0xf0000000
 1486 00ee 7CE80120 		mtcrf 128,%r7
 1487 00f2 7A0200B0 		e_bne %cr0,.L37
 1488              		.loc 1 1136 0
 1489 00f6 4807     		se_li %r7,0
 1490 00f8 9871     		se_stb %r7,8(%r1)
 1491 00fa 78000076 		e_b .L38
 1492              	.L39:
 1493              		.loc 1 1137 0 discriminator 3
 1494 00fe C671     		se_lwz %r7,24(%r1)
 1495 0100 C477     		se_lwz %r7,16(%r7)
 1496 0102 C661     		se_lwz %r6,24(%r1)
 1497 0104 C466     		se_lwz %r6,16(%r6)
 1498 0106 C356     		se_lwz %r5,12(%r6)
 1499 0108 C661     		se_lwz %r6,24(%r1)
 1500 010a 8066     		se_lbz %r6,0(%r6)
 1501 010c 00C6     		se_extzb %r6
 1502 010e 0164     		se_mr %r4,%r6
 1503 0110 8861     		se_lbz %r6,8(%r1)
 1504 0112 00C6     		se_extzb %r6
 1505 0114 7CC43214 		add %r6,%r4,%r6
 1506 0118 4814     		se_li %r4,1
 1507 011a 7C863030 		slw %r6,%r4,%r6
 1508 011e 0026     		se_not %r6
 1509 0120 4656     		se_and %r6,%r5
 1510 0122 D367     		se_stw %r6,12(%r7)
 1511              		.loc 1 1138 0 discriminator 3
 1512 0124 C671     		se_lwz %r7,24(%r1)
 1513 0126 C467     		se_lwz %r6,16(%r7)
 1514 0128 C671     		se_lwz %r7,24(%r1)
 1515 012a 8077     		se_lbz %r7,0(%r7)
 1516 012c 00C7     		se_extzb %r7
 1517 012e 0175     		se_mr %r5,%r7
 1518 0130 8871     		se_lbz %r7,8(%r1)
 1519 0132 00C7     		se_extzb %r7
 1520 0134 7CE53A14 		add %r7,%r5,%r7
 1521 0138 2007     		se_addi %r7,1
 1522 013a 6C57     		se_slwi %r7, 5
 1523 013c 7CE63A14 		add %r7,%r6,%r7
 1524 0140 4806     		se_li %r6,0
 1525 0142 D367     		se_stw %r6,12(%r7)
 1526              		.loc 1 1139 0 discriminator 3
 1527 0144 C671     		se_lwz %r7,24(%r1)
 1528 0146 C477     		se_lwz %r7,16(%r7)
 1529 0148 C661     		se_lwz %r6,24(%r1)
 1530 014a C466     		se_lwz %r6,16(%r6)
 1531 014c C356     		se_lwz %r5,12(%r6)
GAS LISTING C:\Users\nascapro\AppData\Local\Temp\ccKdmVBy.s 			page 28


 1532 014e C661     		se_lwz %r6,24(%r1)
 1533 0150 8066     		se_lbz %r6,0(%r6)
 1534 0152 00C6     		se_extzb %r6
 1535 0154 0164     		se_mr %r4,%r6
 1536 0156 8861     		se_lbz %r6,8(%r1)
 1537 0158 00C6     		se_extzb %r6
 1538 015a 7CC43214 		add %r6,%r4,%r6
 1539 015e 4814     		se_li %r4,1
 1540 0160 7C863030 		slw %r6,%r4,%r6
 1541 0164 4456     		se_or %r6,%r5
 1542 0166 D367     		se_stw %r6,12(%r7)
 1543              		.loc 1 1136 0 discriminator 3
 1544 0168 8871     		se_lbz %r7,8(%r1)
 1545 016a 00C7     		se_extzb %r7
 1546 016c 2007     		se_addi %r7,1
 1547 016e 9871     		se_stb %r7,8(%r1)
 1548              	.L38:
 1549              		.loc 1 1136 0 is_stmt 0 discriminator 1
 1550 0170 8871     		se_lbz %r7,8(%r1)
 1551 0172 00C7     		se_extzb %r7
 1552 0174 2267     		se_cmpli %r7,7
 1553 0176 7F800020 		e_mcrf %cr7,%cr0
 1554 017a 7CE00026 		mfcr %r7
 1555 017e 74E7E007 		e_rlwinm %r7,%r7,28,0xf0000000
 1556 0182 7CE80120 		mtcrf 128,%r7
 1557 0186 7A01FF78 		e_ble %cr0,.L39
 1558              		.loc 1 1141 0 is_stmt 1
 1559 018a 70E0E000 		e_lis %r7,EMIOS0D@ha
 1560 018e 1CE70000 		e_la %r7,EMIOS0D@l(%r7)
 1561 0192 C077     		se_lwz %r7,0(%r7)
 1562 0194 18C784FF 		e_addi %r6,%r7,-1
 1563 0198 70E0E000 		e_lis %r7,EMIOS0D@ha
 1564 019c 1CE70000 		e_la %r7,EMIOS0D@l(%r7)
 1565 01a0 D067     		se_stw %r6,0(%r7)
 1566              	.L37:
 1567              		.loc 1 1259 0
 1568 01a2 C671     		se_lwz %r7,24(%r1)
 1569 01a4 C467     		se_lwz %r6,16(%r7)
 1570 01a6 70FEE7C3 		e_lis %r7,0xf7c3
 1571 01aa 6507     		se_bseti %r7,16
 1572 01ac 7F863800 		cmp %cr7,%r6,%r7
 1573 01b0 7CE00026 		mfcr %r7
 1574 01b4 74E7E007 		e_rlwinm %r7,%r7,28,0xf0000000
 1575 01b8 7CE80120 		mtcrf 128,%r7
 1576 01bc 7A020010 		e_bne %cr0,.L40
 1577              		.loc 1 1260 0
 1578 01c0 70E0E000 		e_lis %r7,EMIOS0D@ha
 1579 01c4 1C670000 		e_la %r3,EMIOS0D@l(%r7)
 1580 01c8 78000001 		e_bl emios_disable_clock
 1581              	.L40:
 1582              		.loc 1 1278 0
 1583 01cc 78000001 		e_bl osalExitCritical
 1584              		.loc 1 1279 0
 1585 01d0 C901     		se_lwz %r0,36(%r1)
 1586 01d2 0090     		se_mtlr %r0
 1587 01d4 21F1     		se_addi %r1,32
 1588              	.LCFI11:
GAS LISTING C:\Users\nascapro\AppData\Local\Temp\ccKdmVBy.s 			page 29


 1589              		.cfi_def_cfa_offset 0
 1590 01d6 0004     		se_blr
 1591              		.cfi_endproc
 1592              	.LFE8:
 1593              		.size	pwm_lld_stop, .-pwm_lld_stop
 1594              		.section	.text.pwm_lld_change_period,"axv",@progbits
 1595              		.align 1
 1596              		.p2align 4,,15
 1597              		.globl pwm_lld_change_period
 1598              		.type	pwm_lld_change_period, @function
 1599              	pwm_lld_change_period:
 1600              	.LFB9:
 1601              		.loc 1 1299 0
 1602              		.cfi_startproc
 1603 0000 182106F0 		e_stwu %r1,-16(%r1)
 1604              	.LCFI12:
 1605              		.cfi_def_cfa_offset 16
 1606 0004 D231     		se_stw %r3,8(%r1)
 1607 0006 D341     		se_stw %r4,12(%r1)
 1608              		.loc 1 1301 0
 1609 0008 C271     		se_lwz %r7,8(%r1)
 1610 000a C361     		se_lwz %r6,12(%r1)
 1611 000c D267     		se_stw %r6,8(%r7)
 1612              		.loc 1 1352 0
 1613 000e C261     		se_lwz %r6,8(%r1)
 1614 0010 70E0E000 		e_lis %r7,PWMD9@ha
 1615 0014 1CE70000 		e_la %r7,PWMD9@l(%r7)
 1616 0018 7F863800 		cmp %cr7,%r6,%r7
 1617 001c 7CE00026 		mfcr %r7
 1618 0020 74E7E007 		e_rlwinm %r7,%r7,28,0xf0000000
 1619 0024 7CE80120 		mtcrf 128,%r7
 1620 0028 7A02001A 		e_bne %cr0,.L42
 1621              		.loc 1 1353 0
 1622 002c C271     		se_lwz %r7,8(%r1)
 1623 002e C467     		se_lwz %r6,16(%r7)
 1624 0030 C271     		se_lwz %r7,8(%r1)
 1625 0032 8077     		se_lbz %r7,0(%r7)
 1626 0034 00C7     		se_extzb %r7
 1627 0036 2007     		se_addi %r7,1
 1628 0038 6C57     		se_slwi %r7, 5
 1629 003a 7CE63A14 		add %r7,%r6,%r7
 1630 003e C361     		se_lwz %r6,12(%r1)
 1631 0040 D067     		se_stw %r6,0(%r7)
 1632              	.L42:
 1633              		.loc 1 1364 0
 1634 0042 C261     		se_lwz %r6,8(%r1)
 1635 0044 70E0E000 		e_lis %r7,PWMD11@ha
 1636 0048 1CE70000 		e_la %r7,PWMD11@l(%r7)
 1637 004c 7F863800 		cmp %cr7,%r6,%r7
 1638 0050 7CE00026 		mfcr %r7
 1639 0054 74E7E007 		e_rlwinm %r7,%r7,28,0xf0000000
 1640 0058 7CE80120 		mtcrf 128,%r7
 1641 005c 7A02001A 		e_bne %cr0,.L41
 1642              		.loc 1 1365 0
 1643 0060 C271     		se_lwz %r7,8(%r1)
 1644 0062 C467     		se_lwz %r6,16(%r7)
 1645 0064 C271     		se_lwz %r7,8(%r1)
GAS LISTING C:\Users\nascapro\AppData\Local\Temp\ccKdmVBy.s 			page 30


 1646 0066 8077     		se_lbz %r7,0(%r7)
 1647 0068 00C7     		se_extzb %r7
 1648 006a 2007     		se_addi %r7,1
 1649 006c 6C57     		se_slwi %r7, 5
 1650 006e 7CE63A14 		add %r7,%r6,%r7
 1651 0072 C361     		se_lwz %r6,12(%r1)
 1652 0074 D067     		se_stw %r6,0(%r7)
 1653              	.L41:
 1654              		.loc 1 1417 0
 1655 0076 20F1     		se_addi %r1,16
 1656              	.LCFI13:
 1657              		.cfi_def_cfa_offset 0
 1658 0078 0004     		se_blr
 1659              		.cfi_endproc
 1660              	.LFE9:
 1661              		.size	pwm_lld_change_period, .-pwm_lld_change_period
 1662              		.section	.text.pwm_lld_enable_group_channel,"axv",@progbits
 1663              		.align 1
 1664              		.p2align 4,,15
 1665              		.type	pwm_lld_enable_group_channel, @function
 1666              	pwm_lld_enable_group_channel:
 1667              	.LFB10:
 1668              		.loc 1 1479 0
 1669              		.cfi_startproc
 1670 0000 182106E0 		e_stwu %r1,-32(%r1)
 1671              	.LCFI14:
 1672              		.cfi_def_cfa_offset 32
 1673 0004 D231     		se_stw %r3,8(%r1)
 1674 0006 D451     		se_stw %r5,16(%r1)
 1675 0008 D561     		se_stw %r6,20(%r1)
 1676 000a D671     		se_stw %r7,24(%r1)
 1677 000c 5501001C 		e_stw %r8,28(%r1)
 1678 0010 9C41     		se_stb %r4,12(%r1)
 1679              		.loc 1 1482 0
 1680 0012 C271     		se_lwz %r7,8(%r1)
 1681 0014 C477     		se_lwz %r7,16(%r7)
 1682 0016 C261     		se_lwz %r6,8(%r1)
 1683 0018 C466     		se_lwz %r6,16(%r6)
 1684 001a C356     		se_lwz %r5,12(%r6)
 1685 001c C261     		se_lwz %r6,8(%r1)
 1686 001e 8066     		se_lbz %r6,0(%r6)
 1687 0020 00C6     		se_extzb %r6
 1688 0022 0164     		se_mr %r4,%r6
 1689 0024 8C61     		se_lbz %r6,12(%r1)
 1690 0026 00C6     		se_extzb %r6
 1691 0028 7CC43214 		add %r6,%r4,%r6
 1692 002c 2006     		se_addi %r6,1
 1693 002e 0164     		se_mr %r4,%r6
 1694 0030 4816     		se_li %r6,1
 1695 0032 4246     		se_slw %r6, %r4
 1696 0034 0026     		se_not %r6
 1697 0036 4656     		se_and %r6,%r5
 1698 0038 D367     		se_stw %r6,12(%r7)
 1699              		.loc 1 1485 0
 1700 003a C271     		se_lwz %r7,8(%r1)
 1701 003c C467     		se_lwz %r6,16(%r7)
 1702 003e C271     		se_lwz %r7,8(%r1)
GAS LISTING C:\Users\nascapro\AppData\Local\Temp\ccKdmVBy.s 			page 31


 1703 0040 8077     		se_lbz %r7,0(%r7)
 1704 0042 00C7     		se_extzb %r7
 1705 0044 0175     		se_mr %r5,%r7
 1706 0046 8C71     		se_lbz %r7,12(%r1)
 1707 0048 00C7     		se_extzb %r7
 1708 004a 7CE53A14 		add %r7,%r5,%r7
 1709 004e 2007     		se_addi %r7,1
 1710 0050 6C57     		se_slwi %r7, 5
 1711 0052 7CE63A14 		add %r7,%r6,%r7
 1712 0056 18E78030 		e_addi %r7,%r7,48
 1713 005a 6206     		se_bgeni %r6,0
 1714 005c 70D0C001 		e_or2i %r6,32769
 1715 0060 D067     		se_stw %r6,0(%r7)
 1716              		.loc 1 1489 0
 1717 0062 C461     		se_lwz %r6,16(%r1)
 1718 0064 C671     		se_lwz %r7,24(%r1)
 1719 0066 0476     		se_add %r6,%r7
 1720 0068 C271     		se_lwz %r7,8(%r1)
 1721 006a C277     		se_lwz %r7,8(%r7)
 1722 006c 7F863840 		cmpl %cr7,%r6,%r7
 1723 0070 7CE00026 		mfcr %r7
 1724 0074 74E7E007 		e_rlwinm %r7,%r7,28,0xf0000000
 1725 0078 7CE80120 		mtcrf 128,%r7
 1726 007c 7A00010A 		e_bge %cr0,.L45
 1727              		.loc 1 1491 0
 1728 0080 C271     		se_lwz %r7,8(%r1)
 1729 0082 C367     		se_lwz %r6,12(%r7)
 1730 0084 8C71     		se_lbz %r7,12(%r1)
 1731 0086 00C7     		se_extzb %r7
 1732 0088 6C27     		se_slwi %r7, 2
 1733 008a 7CE63A14 		add %r7,%r6,%r7
 1734 008e C377     		se_lwz %r7,12(%r7)
 1735 0090 C077     		se_lwz %r7,0(%r7)
 1736 0092 2207     		se_cmpli %r7,1
 1737 0094 7F800020 		e_mcrf %cr7,%cr0
 1738 0098 7CE00026 		mfcr %r7
 1739 009c 74E7E007 		e_rlwinm %r7,%r7,28,0xf0000000
 1740 00a0 7CE80120 		mtcrf 128,%r7
 1741 00a4 7A02004A 		e_bne %cr0,.L46
 1742              		.loc 1 1492 0
 1743 00a8 C271     		se_lwz %r7,8(%r1)
 1744 00aa C457     		se_lwz %r5,16(%r7)
 1745 00ac C271     		se_lwz %r7,8(%r1)
 1746 00ae 8077     		se_lbz %r7,0(%r7)
 1747 00b0 00C7     		se_extzb %r7
 1748 00b2 0176     		se_mr %r6,%r7
 1749 00b4 8C71     		se_lbz %r7,12(%r1)
 1750 00b6 00C7     		se_extzb %r7
 1751 00b8 7CE63A14 		add %r7,%r6,%r7
 1752 00bc 2007     		se_addi %r7,1
 1753 00be C261     		se_lwz %r6,8(%r1)
 1754 00c0 C446     		se_lwz %r4,16(%r6)
 1755 00c2 C261     		se_lwz %r6,8(%r1)
 1756 00c4 8066     		se_lbz %r6,0(%r6)
 1757 00c6 00C6     		se_extzb %r6
 1758 00c8 0163     		se_mr %r3,%r6
 1759 00ca 8C61     		se_lbz %r6,12(%r1)
GAS LISTING C:\Users\nascapro\AppData\Local\Temp\ccKdmVBy.s 			page 32


 1760 00cc 00C6     		se_extzb %r6
 1761 00ce 7CC33214 		add %r6,%r3,%r6
 1762 00d2 2006     		se_addi %r6,1
 1763 00d4 2006     		se_addi %r6,1
 1764 00d6 6C56     		se_slwi %r6, 5
 1765 00d8 7CC43214 		add %r6,%r4,%r6
 1766 00dc C366     		se_lwz %r6,12(%r6)
 1767 00de 6586     		se_bseti %r6,24
 1768 00e0 2007     		se_addi %r7,1
 1769 00e2 6C57     		se_slwi %r7, 5
 1770 00e4 7CE53A14 		add %r7,%r5,%r7
 1771 00e8 D367     		se_stw %r6,12(%r7)
 1772 00ea 78000046 		e_b .L47
 1773              	.L46:
 1774              		.loc 1 1494 0
 1775 00ee C271     		se_lwz %r7,8(%r1)
 1776 00f0 C457     		se_lwz %r5,16(%r7)
 1777 00f2 C271     		se_lwz %r7,8(%r1)
 1778 00f4 8077     		se_lbz %r7,0(%r7)
 1779 00f6 00C7     		se_extzb %r7
 1780 00f8 0176     		se_mr %r6,%r7
 1781 00fa 8C71     		se_lbz %r7,12(%r1)
 1782 00fc 00C7     		se_extzb %r7
 1783 00fe 7CE63A14 		add %r7,%r6,%r7
 1784 0102 2007     		se_addi %r7,1
 1785 0104 C261     		se_lwz %r6,8(%r1)
 1786 0106 C446     		se_lwz %r4,16(%r6)
 1787 0108 C261     		se_lwz %r6,8(%r1)
 1788 010a 8066     		se_lbz %r6,0(%r6)
 1789 010c 00C6     		se_extzb %r6
 1790 010e 0163     		se_mr %r3,%r6
 1791 0110 8C61     		se_lbz %r6,12(%r1)
 1792 0112 00C6     		se_extzb %r6
 1793 0114 7CC33214 		add %r6,%r3,%r6
 1794 0118 2006     		se_addi %r6,1
 1795 011a 2006     		se_addi %r6,1
 1796 011c 6C56     		se_slwi %r6, 5
 1797 011e 7CC43214 		add %r6,%r4,%r6
 1798 0122 C366     		se_lwz %r6,12(%r6)
 1799 0124 6186     		se_bclri %r6,24
 1800 0126 2007     		se_addi %r7,1
 1801 0128 6C57     		se_slwi %r7, 5
 1802 012a 7CE53A14 		add %r7,%r5,%r7
 1803 012e D367     		se_stw %r6,12(%r7)
 1804              	.L47:
 1805              		.loc 1 1496 0
 1806 0130 C271     		se_lwz %r7,8(%r1)
 1807 0132 C457     		se_lwz %r5,16(%r7)
 1808 0134 C271     		se_lwz %r7,8(%r1)
 1809 0136 8077     		se_lbz %r7,0(%r7)
 1810 0138 00C7     		se_extzb %r7
 1811 013a 0176     		se_mr %r6,%r7
 1812 013c 8C71     		se_lbz %r7,12(%r1)
 1813 013e 00C7     		se_extzb %r7
 1814 0140 7CE63A14 		add %r7,%r6,%r7
 1815 0144 2007     		se_addi %r7,1
 1816 0146 C641     		se_lwz %r4,24(%r1)
GAS LISTING C:\Users\nascapro\AppData\Local\Temp\ccKdmVBy.s 			page 33


 1817 0148 C561     		se_lwz %r6,20(%r1)
 1818 014a 7CC43214 		add %r6,%r4,%r6
 1819 014e 2006     		se_addi %r6,1
 1820 0150 2007     		se_addi %r7,1
 1821 0152 6C57     		se_slwi %r7, 5
 1822 0154 7CE53A14 		add %r7,%r5,%r7
 1823 0158 D067     		se_stw %r6,0(%r7)
 1824              		.loc 1 1497 0
 1825 015a C271     		se_lwz %r7,8(%r1)
 1826 015c C457     		se_lwz %r5,16(%r7)
 1827 015e C271     		se_lwz %r7,8(%r1)
 1828 0160 8077     		se_lbz %r7,0(%r7)
 1829 0162 00C7     		se_extzb %r7
 1830 0164 0176     		se_mr %r6,%r7
 1831 0166 8C71     		se_lbz %r7,12(%r1)
 1832 0168 00C7     		se_extzb %r7
 1833 016a 7CE63A14 		add %r7,%r6,%r7
 1834 016e 2007     		se_addi %r7,1
 1835 0170 C641     		se_lwz %r4,24(%r1)
 1836 0172 C461     		se_lwz %r6,16(%r1)
 1837 0174 7CC43214 		add %r6,%r4,%r6
 1838 0178 2007     		se_addi %r7,1
 1839 017a 6C57     		se_slwi %r7, 5
 1840 017c 7CE53A14 		add %r7,%r5,%r7
 1841 0180 D167     		se_stw %r6,4(%r7)
 1842 0182 7800010A 		e_b .L48
 1843              	.L45:
 1844              		.loc 1 1500 0
 1845 0186 C271     		se_lwz %r7,8(%r1)
 1846 0188 C367     		se_lwz %r6,12(%r7)
 1847 018a 8C71     		se_lbz %r7,12(%r1)
 1848 018c 00C7     		se_extzb %r7
 1849 018e 6C27     		se_slwi %r7, 2
 1850 0190 7CE63A14 		add %r7,%r6,%r7
 1851 0194 C377     		se_lwz %r7,12(%r7)
 1852 0196 C077     		se_lwz %r7,0(%r7)
 1853 0198 2207     		se_cmpli %r7,1
 1854 019a 7F800020 		e_mcrf %cr7,%cr0
 1855 019e 7CE00026 		mfcr %r7
 1856 01a2 74E7E007 		e_rlwinm %r7,%r7,28,0xf0000000
 1857 01a6 7CE80120 		mtcrf 128,%r7
 1858 01aa 7A02004A 		e_bne %cr0,.L49
 1859              		.loc 1 1501 0
 1860 01ae C271     		se_lwz %r7,8(%r1)
 1861 01b0 C457     		se_lwz %r5,16(%r7)
 1862 01b2 C271     		se_lwz %r7,8(%r1)
 1863 01b4 8077     		se_lbz %r7,0(%r7)
 1864 01b6 00C7     		se_extzb %r7
 1865 01b8 0176     		se_mr %r6,%r7
 1866 01ba 8C71     		se_lbz %r7,12(%r1)
 1867 01bc 00C7     		se_extzb %r7
 1868 01be 7CE63A14 		add %r7,%r6,%r7
 1869 01c2 2007     		se_addi %r7,1
 1870 01c4 C261     		se_lwz %r6,8(%r1)
 1871 01c6 C446     		se_lwz %r4,16(%r6)
 1872 01c8 C261     		se_lwz %r6,8(%r1)
 1873 01ca 8066     		se_lbz %r6,0(%r6)
GAS LISTING C:\Users\nascapro\AppData\Local\Temp\ccKdmVBy.s 			page 34


 1874 01cc 00C6     		se_extzb %r6
 1875 01ce 0163     		se_mr %r3,%r6
 1876 01d0 8C61     		se_lbz %r6,12(%r1)
 1877 01d2 00C6     		se_extzb %r6
 1878 01d4 7CC33214 		add %r6,%r3,%r6
 1879 01d8 2006     		se_addi %r6,1
 1880 01da 2006     		se_addi %r6,1
 1881 01dc 6C56     		se_slwi %r6, 5
 1882 01de 7CC43214 		add %r6,%r4,%r6
 1883 01e2 C366     		se_lwz %r6,12(%r6)
 1884 01e4 6186     		se_bclri %r6,24
 1885 01e6 2007     		se_addi %r7,1
 1886 01e8 6C57     		se_slwi %r7, 5
 1887 01ea 7CE53A14 		add %r7,%r5,%r7
 1888 01ee D367     		se_stw %r6,12(%r7)
 1889 01f0 78000046 		e_b .L50
 1890              	.L49:
 1891              		.loc 1 1504 0
 1892 01f4 C271     		se_lwz %r7,8(%r1)
 1893 01f6 C457     		se_lwz %r5,16(%r7)
 1894 01f8 C271     		se_lwz %r7,8(%r1)
 1895 01fa 8077     		se_lbz %r7,0(%r7)
 1896 01fc 00C7     		se_extzb %r7
 1897 01fe 0176     		se_mr %r6,%r7
 1898 0200 8C71     		se_lbz %r7,12(%r1)
 1899 0202 00C7     		se_extzb %r7
 1900 0204 7CE63A14 		add %r7,%r6,%r7
 1901 0208 2007     		se_addi %r7,1
 1902 020a C261     		se_lwz %r6,8(%r1)
 1903 020c C446     		se_lwz %r4,16(%r6)
 1904 020e C261     		se_lwz %r6,8(%r1)
 1905 0210 8066     		se_lbz %r6,0(%r6)
 1906 0212 00C6     		se_extzb %r6
 1907 0214 0163     		se_mr %r3,%r6
 1908 0216 8C61     		se_lbz %r6,12(%r1)
 1909 0218 00C6     		se_extzb %r6
 1910 021a 7CC33214 		add %r6,%r3,%r6
 1911 021e 2006     		se_addi %r6,1
 1912 0220 2006     		se_addi %r6,1
 1913 0222 6C56     		se_slwi %r6, 5
 1914 0224 7CC43214 		add %r6,%r4,%r6
 1915 0228 C366     		se_lwz %r6,12(%r6)
 1916 022a 6586     		se_bseti %r6,24
 1917 022c 2007     		se_addi %r7,1
 1918 022e 6C57     		se_slwi %r7, 5
 1919 0230 7CE53A14 		add %r7,%r5,%r7
 1920 0234 D367     		se_stw %r6,12(%r7)
 1921              	.L50:
 1922              		.loc 1 1507 0
 1923 0236 C271     		se_lwz %r7,8(%r1)
 1924 0238 C457     		se_lwz %r5,16(%r7)
 1925 023a C271     		se_lwz %r7,8(%r1)
 1926 023c 8077     		se_lbz %r7,0(%r7)
 1927 023e 00C7     		se_extzb %r7
 1928 0240 0176     		se_mr %r6,%r7
 1929 0242 8C71     		se_lbz %r7,12(%r1)
 1930 0244 00C7     		se_extzb %r7
GAS LISTING C:\Users\nascapro\AppData\Local\Temp\ccKdmVBy.s 			page 35


 1931 0246 7CE63A14 		add %r7,%r6,%r7
 1932 024a 2007     		se_addi %r7,1
 1933 024c C441     		se_lwz %r4,16(%r1)
 1934 024e C661     		se_lwz %r6,24(%r1)
 1935 0250 0464     		se_add %r4,%r6
 1936 0252 C261     		se_lwz %r6,8(%r1)
 1937 0254 C266     		se_lwz %r6,8(%r6)
 1938 0256 0746     		se_subf %r6, %r4
 1939 0258 2006     		se_addi %r6,1
 1940 025a 2007     		se_addi %r7,1
 1941 025c 6C57     		se_slwi %r7, 5
 1942 025e 7CE53A14 		add %r7,%r5,%r7
 1943 0262 D067     		se_stw %r6,0(%r7)
 1944              		.loc 1 1508 0
 1945 0264 C271     		se_lwz %r7,8(%r1)
 1946 0266 C457     		se_lwz %r5,16(%r7)
 1947 0268 C271     		se_lwz %r7,8(%r1)
 1948 026a 8077     		se_lbz %r7,0(%r7)
 1949 026c 00C7     		se_extzb %r7
 1950 026e 0176     		se_mr %r6,%r7
 1951 0270 8C71     		se_lbz %r7,12(%r1)
 1952 0272 00C7     		se_extzb %r7
 1953 0274 7CE63A14 		add %r7,%r6,%r7
 1954 0278 2007     		se_addi %r7,1
 1955 027a C641     		se_lwz %r4,24(%r1)
 1956 027c C561     		se_lwz %r6,20(%r1)
 1957 027e 7CC43214 		add %r6,%r4,%r6
 1958 0282 2007     		se_addi %r7,1
 1959 0284 6C57     		se_slwi %r7, 5
 1960 0286 7CE53A14 		add %r7,%r5,%r7
 1961 028a D167     		se_stw %r6,4(%r7)
 1962              	.L48:
 1963              		.loc 1 1512 0
 1964 028c C271     		se_lwz %r7,8(%r1)
 1965 028e C177     		se_lwz %r7,4(%r7)
 1966 0290 2217     		se_cmpli %r7,2
 1967 0292 7F800020 		e_mcrf %cr7,%cr0
 1968 0296 7CE00026 		mfcr %r7
 1969 029a 74E7E007 		e_rlwinm %r7,%r7,28,0xf0000000
 1970 029e 7CE80120 		mtcrf 128,%r7
 1971 02a2 7A020028 		e_bne %cr0,.L51
 1972              		.loc 1 1513 0
 1973 02a6 C271     		se_lwz %r7,8(%r1)
 1974 02a8 C467     		se_lwz %r6,16(%r7)
 1975 02aa C271     		se_lwz %r7,8(%r1)
 1976 02ac 8077     		se_lbz %r7,0(%r7)
 1977 02ae 00C7     		se_extzb %r7
 1978 02b0 0175     		se_mr %r5,%r7
 1979 02b2 8C71     		se_lbz %r7,12(%r1)
 1980 02b4 00C7     		se_extzb %r7
 1981 02b6 7CE53A14 		add %r7,%r5,%r7
 1982 02ba 2007     		se_addi %r7,1
 1983 02bc 6C57     		se_slwi %r7, 5
 1984 02be 7CE63A14 		add %r7,%r6,%r7
 1985 02c2 18E78030 		e_addi %r7,%r7,48
 1986 02c6 C761     		se_lwz %r6,28(%r1)
 1987 02c8 D167     		se_stw %r6,4(%r7)
GAS LISTING C:\Users\nascapro\AppData\Local\Temp\ccKdmVBy.s 			page 36


 1988              	.L51:
 1989              		.loc 1 1517 0
 1990 02ca C271     		se_lwz %r7,8(%r1)
 1991 02cc C367     		se_lwz %r6,12(%r7)
 1992 02ce 8C71     		se_lbz %r7,12(%r1)
 1993 02d0 00C7     		se_extzb %r7
 1994 02d2 6C27     		se_slwi %r7, 2
 1995 02d4 7CE63A14 		add %r7,%r6,%r7
 1996 02d8 C377     		se_lwz %r7,12(%r7)
 1997 02da C177     		se_lwz %r7,4(%r7)
 1998 02dc 2A07     		se_cmpi %r7,0
 1999 02de 7F800020 		e_mcrf %cr7,%cr0
 2000 02e2 7CE00026 		mfcr %r7
 2001 02e6 74E7E007 		e_rlwinm %r7,%r7,28,0xf0000000
 2002 02ea 7CE80120 		mtcrf 128,%r7
 2003 02ee 7A12002A 		e_beq %cr0,.L52
 2004              		.loc 1 1518 0
 2005 02f2 C271     		se_lwz %r7,8(%r1)
 2006 02f4 C467     		se_lwz %r6,16(%r7)
 2007 02f6 C271     		se_lwz %r7,8(%r1)
 2008 02f8 8077     		se_lbz %r7,0(%r7)
 2009 02fa 00C7     		se_extzb %r7
 2010 02fc 0175     		se_mr %r5,%r7
 2011 02fe 8C71     		se_lbz %r7,12(%r1)
 2012 0300 00C7     		se_extzb %r7
 2013 0302 7CE53A14 		add %r7,%r5,%r7
 2014 0306 2007     		se_addi %r7,1
 2015 0308 2007     		se_addi %r7,1
 2016 030a 6C57     		se_slwi %r7, 5
 2017 030c 0476     		se_add %r6,%r7
 2018 030e C376     		se_lwz %r7,12(%r6)
 2019 0310 4815     		se_li %r5,1
 2020 0312 74A78B9C 		e_rlwimi %r7,%r5,17,14,14
 2021 0316 D376     		se_stw %r7,12(%r6)
 2022              	.L52:
 2023              		.loc 1 1522 0
 2024 0318 C271     		se_lwz %r7,8(%r1)
 2025 031a C477     		se_lwz %r7,16(%r7)
 2026 031c C377     		se_lwz %r7,12(%r7)
 2027 031e C261     		se_lwz %r6,8(%r1)
 2028 0320 8066     		se_lbz %r6,0(%r6)
 2029 0322 00C6     		se_extzb %r6
 2030 0324 4067     		se_srw %r7,%r6
 2031 0326 2E17     		se_andi %r7,1
 2032 0328 2A07     		se_cmpi %r7,0
 2033 032a 7F800020 		e_mcrf %cr7,%cr0
 2034 032e 7CE00026 		mfcr %r7
 2035 0332 74E7E007 		e_rlwinm %r7,%r7,28,0xf0000000
 2036 0336 7CE80120 		mtcrf 128,%r7
 2037 033a 7A120056 		e_beq %cr0,.L44
 2038              		.loc 1 1524 0
 2039 033e C271     		se_lwz %r7,8(%r1)
 2040 0340 C477     		se_lwz %r7,16(%r7)
 2041 0342 C261     		se_lwz %r6,8(%r1)
 2042 0344 C466     		se_lwz %r6,16(%r6)
 2043 0346 C356     		se_lwz %r5,12(%r6)
 2044 0348 C261     		se_lwz %r6,8(%r1)
GAS LISTING C:\Users\nascapro\AppData\Local\Temp\ccKdmVBy.s 			page 37


 2045 034a 8066     		se_lbz %r6,0(%r6)
 2046 034c 00C6     		se_extzb %r6
 2047 034e 0164     		se_mr %r4,%r6
 2048 0350 4816     		se_li %r6,1
 2049 0352 4246     		se_slw %r6, %r4
 2050 0354 0026     		se_not %r6
 2051 0356 4656     		se_and %r6,%r5
 2052 0358 D367     		se_stw %r6,12(%r7)
 2053              		.loc 1 1527 0
 2054 035a C271     		se_lwz %r7,8(%r1)
 2055 035c C377     		se_lwz %r7,12(%r7)
 2056 035e C277     		se_lwz %r7,8(%r7)
 2057 0360 2A07     		se_cmpi %r7,0
 2058 0362 7F800020 		e_mcrf %cr7,%cr0
 2059 0366 7CE00026 		mfcr %r7
 2060 036a 74E7E007 		e_rlwinm %r7,%r7,28,0xf0000000
 2061 036e 7CE80120 		mtcrf 128,%r7
 2062 0372 7A12001E 		e_beq %cr0,.L44
 2063              		.loc 1 1528 0
 2064 0376 C271     		se_lwz %r7,8(%r1)
 2065 0378 C467     		se_lwz %r6,16(%r7)
 2066 037a C271     		se_lwz %r7,8(%r1)
 2067 037c 8077     		se_lbz %r7,0(%r7)
 2068 037e 00C7     		se_extzb %r7
 2069 0380 2007     		se_addi %r7,1
 2070 0382 6C57     		se_slwi %r7, 5
 2071 0384 0476     		se_add %r6,%r7
 2072 0386 C376     		se_lwz %r7,12(%r6)
 2073 0388 4815     		se_li %r5,1
 2074 038a 74A78B9C 		e_rlwimi %r7,%r5,17,14,14
 2075 038e D376     		se_stw %r7,12(%r6)
 2076              	.L44:
 2077              		.loc 1 1531 0
 2078 0390 21F1     		se_addi %r1,32
 2079              	.LCFI15:
 2080              		.cfi_def_cfa_offset 0
 2081 0392 0004     		se_blr
 2082              		.cfi_endproc
 2083              	.LFE10:
 2084              		.size	pwm_lld_enable_group_channel, .-pwm_lld_enable_group_channel
 2085              		.section	.text.pwm_lld_enable_channel,"axv",@progbits
 2086              		.align 1
 2087              		.p2align 4,,15
 2088              		.globl pwm_lld_enable_channel
 2089              		.type	pwm_lld_enable_channel, @function
 2090              	pwm_lld_enable_channel:
 2091              	.LFB11:
 2092              		.loc 1 1565 0
 2093              		.cfi_startproc
 2094 0000 182106E0 		e_stwu %r1,-32(%r1)
 2095              	.LCFI16:
 2096              		.cfi_def_cfa_offset 32
 2097 0004 0080     		se_mflr %r0
 2098 0006 D901     		se_stw %r0,36(%r1)
 2099              		.cfi_offset 65, 4
 2100 0008 D231     		se_stw %r3,8(%r1)
 2101 000a D451     		se_stw %r5,16(%r1)
GAS LISTING C:\Users\nascapro\AppData\Local\Temp\ccKdmVBy.s 			page 38


 2102 000c D561     		se_stw %r6,20(%r1)
 2103 000e D671     		se_stw %r7,24(%r1)
 2104 0010 5501001C 		e_stw %r8,28(%r1)
 2105 0014 9C41     		se_stb %r4,12(%r1)
 2106              		.loc 1 1567 0
 2107 0016 78000001 		e_bl osalEnterCritical
 2108              		.loc 1 1630 0
 2109 001a C261     		se_lwz %r6,8(%r1)
 2110 001c 70E0E000 		e_lis %r7,PWMD9@ha
 2111 0020 1CE70000 		e_la %r7,PWMD9@l(%r7)
 2112 0024 7F863800 		cmp %cr7,%r6,%r7
 2113 0028 7CE00026 		mfcr %r7
 2114 002c 74E7E007 		e_rlwinm %r7,%r7,28,0xf0000000
 2115 0030 7CE80120 		mtcrf 128,%r7
 2116 0034 7A02001A 		e_bne %cr0,.L55
 2117              		.loc 1 1631 0
 2118 0038 8C71     		se_lbz %r7,12(%r1)
 2119 003a 00C7     		se_extzb %r7
 2120 003c C231     		se_lwz %r3,8(%r1)
 2121 003e 0174     		se_mr %r4,%r7
 2122 0040 C451     		se_lwz %r5,16(%r1)
 2123 0042 C561     		se_lwz %r6,20(%r1)
 2124 0044 C671     		se_lwz %r7,24(%r1)
 2125 0046 5101001C 		e_lwz %r8,28(%r1)
 2126 004a 78000001 		e_bl pwm_lld_enable_group_channel
 2127              	.L55:
 2128              		.loc 1 1642 0
 2129 004e C261     		se_lwz %r6,8(%r1)
 2130 0050 70E0E000 		e_lis %r7,PWMD11@ha
 2131 0054 1CE70000 		e_la %r7,PWMD11@l(%r7)
 2132 0058 7F863800 		cmp %cr7,%r6,%r7
 2133 005c 7CE00026 		mfcr %r7
 2134 0060 74E7E007 		e_rlwinm %r7,%r7,28,0xf0000000
 2135 0064 7CE80120 		mtcrf 128,%r7
 2136 0068 7A02001A 		e_bne %cr0,.L56
 2137              		.loc 1 1643 0
 2138 006c 8C71     		se_lbz %r7,12(%r1)
 2139 006e 00C7     		se_extzb %r7
 2140 0070 C231     		se_lwz %r3,8(%r1)
 2141 0072 0174     		se_mr %r4,%r7
 2142 0074 C451     		se_lwz %r5,16(%r1)
 2143 0076 C561     		se_lwz %r6,20(%r1)
 2144 0078 C671     		se_lwz %r7,24(%r1)
 2145 007a 5101001C 		e_lwz %r8,28(%r1)
 2146 007e 78000001 		e_bl pwm_lld_enable_group_channel
 2147              	.L56:
 2148              		.loc 1 1695 0
 2149 0082 78000001 		e_bl osalExitCritical
 2150              		.loc 1 1696 0
 2151 0086 C901     		se_lwz %r0,36(%r1)
 2152 0088 0090     		se_mtlr %r0
 2153 008a 21F1     		se_addi %r1,32
 2154              	.LCFI17:
 2155              		.cfi_def_cfa_offset 0
 2156 008c 0004     		se_blr
 2157              		.cfi_endproc
 2158              	.LFE11:
GAS LISTING C:\Users\nascapro\AppData\Local\Temp\ccKdmVBy.s 			page 39


 2159              		.size	pwm_lld_enable_channel, .-pwm_lld_enable_channel
 2160              		.section	.text.pwm_lld_disable_group_channel,"axv",@progbits
 2161              		.align 1
 2162              		.p2align 4,,15
 2163              		.type	pwm_lld_disable_group_channel, @function
 2164              	pwm_lld_disable_group_channel:
 2165              	.LFB12:
 2166              		.loc 1 1740 0
 2167              		.cfi_startproc
 2168 0000 182106E0 		e_stwu %r1,-32(%r1)
 2169              	.LCFI18:
 2170              		.cfi_def_cfa_offset 32
 2171 0004 D631     		se_stw %r3,24(%r1)
 2172 0006 0147     		se_mr %r7,%r4
 2173 0008 34E1001C 		e_stb %r7,28(%r1)
 2174              		.loc 1 1745 0
 2175 000c C671     		se_lwz %r7,24(%r1)
 2176 000e C467     		se_lwz %r6,16(%r7)
 2177 0010 C671     		se_lwz %r7,24(%r1)
 2178 0012 8077     		se_lbz %r7,0(%r7)
 2179 0014 00C7     		se_extzb %r7
 2180 0016 0175     		se_mr %r5,%r7
 2181 0018 30E1001C 		e_lbz %r7,28(%r1)
 2182 001c 00C7     		se_extzb %r7
 2183 001e 7CE53A14 		add %r7,%r5,%r7
 2184 0022 2007     		se_addi %r7,1
 2185 0024 6C57     		se_slwi %r7, 5
 2186 0026 7CE63A14 		add %r7,%r6,%r7
 2187 002a 18E78030 		e_addi %r7,%r7,48
 2188 002e 6206     		se_bgeni %r6,0
 2189 0030 70D0C001 		e_or2i %r6,32769
 2190 0034 D067     		se_stw %r6,0(%r7)
 2191              		.loc 1 1749 0
 2192 0036 C671     		se_lwz %r7,24(%r1)
 2193 0038 C467     		se_lwz %r6,16(%r7)
 2194 003a C671     		se_lwz %r7,24(%r1)
 2195 003c 8077     		se_lbz %r7,0(%r7)
 2196 003e 00C7     		se_extzb %r7
 2197 0040 0175     		se_mr %r5,%r7
 2198 0042 30E1001C 		e_lbz %r7,28(%r1)
 2199 0046 00C7     		se_extzb %r7
 2200 0048 7CE53A14 		add %r7,%r5,%r7
 2201 004c 2007     		se_addi %r7,1
 2202 004e 2007     		se_addi %r7,1
 2203 0050 6C57     		se_slwi %r7, 5
 2204 0052 0476     		se_add %r6,%r7
 2205 0054 C376     		se_lwz %r7,12(%r6)
 2206 0056 4805     		se_li %r5,0
 2207 0058 74A78B9C 		e_rlwimi %r7,%r5,17,14,14
 2208 005c D376     		se_stw %r7,12(%r6)
 2209              		.loc 1 1752 0
 2210 005e C671     		se_lwz %r7,24(%r1)
 2211 0060 C477     		se_lwz %r7,16(%r7)
 2212 0062 C661     		se_lwz %r6,24(%r1)
 2213 0064 C466     		se_lwz %r6,16(%r6)
 2214 0066 C356     		se_lwz %r5,12(%r6)
 2215 0068 C661     		se_lwz %r6,24(%r1)
GAS LISTING C:\Users\nascapro\AppData\Local\Temp\ccKdmVBy.s 			page 40


 2216 006a 8066     		se_lbz %r6,0(%r6)
 2217 006c 00C6     		se_extzb %r6
 2218 006e 0164     		se_mr %r4,%r6
 2219 0070 30C1001C 		e_lbz %r6,28(%r1)
 2220 0074 00C6     		se_extzb %r6
 2221 0076 7CC43214 		add %r6,%r4,%r6
 2222 007a 2006     		se_addi %r6,1
 2223 007c 0164     		se_mr %r4,%r6
 2224 007e 4816     		se_li %r6,1
 2225 0080 4246     		se_slw %r6, %r4
 2226 0082 4456     		se_or %r6,%r5
 2227 0084 D367     		se_stw %r6,12(%r7)
 2228              		.loc 1 1756 0
 2229 0086 C671     		se_lwz %r7,24(%r1)
 2230 0088 C477     		se_lwz %r7,16(%r7)
 2231 008a C377     		se_lwz %r7,12(%r7)
 2232 008c D271     		se_stw %r7,8(%r1)
 2233              		.loc 1 1759 0
 2234 008e C671     		se_lwz %r7,24(%r1)
 2235 0090 8077     		se_lbz %r7,0(%r7)
 2236 0092 00C7     		se_extzb %r7
 2237 0094 0176     		se_mr %r6,%r7
 2238 0096 70E000FE 		e_li %r7,254
 2239 009a 7CE63030 		slw %r6,%r7,%r6
 2240 009e C271     		se_lwz %r7,8(%r1)
 2241 00a0 4676     		se_and %r6,%r7
 2242 00a2 C671     		se_lwz %r7,24(%r1)
 2243 00a4 8077     		se_lbz %r7,0(%r7)
 2244 00a6 00C7     		se_extzb %r7
 2245 00a8 0175     		se_mr %r5,%r7
 2246 00aa 70E000FE 		e_li %r7,254
 2247 00ae 4257     		se_slw %r7, %r5
 2248 00b0 7F863840 		cmpl %cr7,%r6,%r7
 2249 00b4 7CE00026 		mfcr %r7
 2250 00b8 74E7E007 		e_rlwinm %r7,%r7,28,0xf0000000
 2251 00bc 7CE80120 		mtcrf 128,%r7
 2252 00c0 7A020038 		e_bne %cr0,.L57
 2253              		.loc 1 1761 0
 2254 00c4 C671     		se_lwz %r7,24(%r1)
 2255 00c6 C467     		se_lwz %r6,16(%r7)
 2256 00c8 C671     		se_lwz %r7,24(%r1)
 2257 00ca 8077     		se_lbz %r7,0(%r7)
 2258 00cc 00C7     		se_extzb %r7
 2259 00ce 2007     		se_addi %r7,1
 2260 00d0 6C57     		se_slwi %r7, 5
 2261 00d2 0476     		se_add %r6,%r7
 2262 00d4 C376     		se_lwz %r7,12(%r6)
 2263 00d6 4805     		se_li %r5,0
 2264 00d8 74A78B9C 		e_rlwimi %r7,%r5,17,14,14
 2265 00dc D376     		se_stw %r7,12(%r6)
 2266              		.loc 1 1764 0
 2267 00de C671     		se_lwz %r7,24(%r1)
 2268 00e0 C477     		se_lwz %r7,16(%r7)
 2269 00e2 C661     		se_lwz %r6,24(%r1)
 2270 00e4 C466     		se_lwz %r6,16(%r6)
 2271 00e6 C356     		se_lwz %r5,12(%r6)
 2272 00e8 C661     		se_lwz %r6,24(%r1)
GAS LISTING C:\Users\nascapro\AppData\Local\Temp\ccKdmVBy.s 			page 41


 2273 00ea 8066     		se_lbz %r6,0(%r6)
 2274 00ec 00C6     		se_extzb %r6
 2275 00ee 0164     		se_mr %r4,%r6
 2276 00f0 4816     		se_li %r6,1
 2277 00f2 4246     		se_slw %r6, %r4
 2278 00f4 4456     		se_or %r6,%r5
 2279 00f6 D367     		se_stw %r6,12(%r7)
 2280              	.L57:
 2281              		.loc 1 1766 0
 2282 00f8 21F1     		se_addi %r1,32
 2283              	.LCFI19:
 2284              		.cfi_def_cfa_offset 0
 2285 00fa 0004     		se_blr
 2286              		.cfi_endproc
 2287              	.LFE12:
 2288              		.size	pwm_lld_disable_group_channel, .-pwm_lld_disable_group_channel
 2289              		.section	.text.pwm_lld_disable_channel,"axv",@progbits
 2290              		.align 1
 2291              		.p2align 4,,15
 2292              		.globl pwm_lld_disable_channel
 2293              		.type	pwm_lld_disable_channel, @function
 2294              	pwm_lld_disable_channel:
 2295              	.LFB13:
 2296              		.loc 1 1785 0
 2297              		.cfi_startproc
 2298 0000 182106F0 		e_stwu %r1,-16(%r1)
 2299              	.LCFI20:
 2300              		.cfi_def_cfa_offset 16
 2301 0004 0080     		se_mflr %r0
 2302 0006 D501     		se_stw %r0,20(%r1)
 2303              		.cfi_offset 65, 4
 2304 0008 D231     		se_stw %r3,8(%r1)
 2305 000a 0147     		se_mr %r7,%r4
 2306 000c 9C71     		se_stb %r7,12(%r1)
 2307              		.loc 1 1787 0
 2308 000e 78000001 		e_bl osalEnterCritical
 2309              		.loc 1 1848 0
 2310 0012 C261     		se_lwz %r6,8(%r1)
 2311 0014 70E0E000 		e_lis %r7,PWMD9@ha
 2312 0018 1CE70000 		e_la %r7,PWMD9@l(%r7)
 2313 001c 7F863800 		cmp %cr7,%r6,%r7
 2314 0020 7CE00026 		mfcr %r7
 2315 0024 74E7E007 		e_rlwinm %r7,%r7,28,0xf0000000
 2316 0028 7CE80120 		mtcrf 128,%r7
 2317 002c 7A020010 		e_bne %cr0,.L60
 2318              		.loc 1 1849 0
 2319 0030 8C71     		se_lbz %r7,12(%r1)
 2320 0032 00C7     		se_extzb %r7
 2321 0034 C231     		se_lwz %r3,8(%r1)
 2322 0036 0174     		se_mr %r4,%r7
 2323 0038 78000001 		e_bl pwm_lld_disable_group_channel
 2324              	.L60:
 2325              		.loc 1 1860 0
 2326 003c C261     		se_lwz %r6,8(%r1)
 2327 003e 70E0E000 		e_lis %r7,PWMD11@ha
 2328 0042 1CE70000 		e_la %r7,PWMD11@l(%r7)
 2329 0046 7F863800 		cmp %cr7,%r6,%r7
GAS LISTING C:\Users\nascapro\AppData\Local\Temp\ccKdmVBy.s 			page 42


 2330 004a 7CE00026 		mfcr %r7
 2331 004e 74E7E007 		e_rlwinm %r7,%r7,28,0xf0000000
 2332 0052 7CE80120 		mtcrf 128,%r7
 2333 0056 7A020010 		e_bne %cr0,.L61
 2334              		.loc 1 1861 0
 2335 005a 8C71     		se_lbz %r7,12(%r1)
 2336 005c 00C7     		se_extzb %r7
 2337 005e C231     		se_lwz %r3,8(%r1)
 2338 0060 0174     		se_mr %r4,%r7
 2339 0062 78000001 		e_bl pwm_lld_disable_group_channel
 2340              	.L61:
 2341              		.loc 1 1913 0
 2342 0066 78000001 		e_bl osalExitCritical
 2343              		.loc 1 1914 0
 2344 006a C501     		se_lwz %r0,20(%r1)
 2345 006c 0090     		se_mtlr %r0
 2346 006e 20F1     		se_addi %r1,16
 2347              	.LCFI21:
 2348              		.cfi_def_cfa_offset 0
 2349 0070 0004     		se_blr
 2350              		.cfi_endproc
 2351              	.LFE13:
 2352              		.size	pwm_lld_disable_channel, .-pwm_lld_disable_channel
 2353              		.section	.text.pwm_lld_set_group_channel_chcb,"axv",@progbits
 2354              		.align 1
 2355              		.p2align 4,,15
 2356              		.type	pwm_lld_set_group_channel_chcb, @function
 2357              	pwm_lld_set_group_channel_chcb:
 2358              	.LFB14:
 2359              		.loc 1 1971 0
 2360              		.cfi_startproc
 2361 0000 182106E8 		e_stwu %r1,-24(%r1)
 2362              	.LCFI22:
 2363              		.cfi_def_cfa_offset 24
 2364 0004 D231     		se_stw %r3,8(%r1)
 2365 0006 0147     		se_mr %r7,%r4
 2366 0008 D451     		se_stw %r5,16(%r1)
 2367 000a 9C71     		se_stb %r7,12(%r1)
 2368              		.loc 1 1974 0
 2369 000c C271     		se_lwz %r7,8(%r1)
 2370 000e C367     		se_lwz %r6,12(%r7)
 2371 0010 8C71     		se_lbz %r7,12(%r1)
 2372 0012 00C7     		se_extzb %r7
 2373 0014 6C27     		se_slwi %r7, 2
 2374 0016 7CE63A14 		add %r7,%r6,%r7
 2375 001a C377     		se_lwz %r7,12(%r7)
 2376 001c C461     		se_lwz %r6,16(%r1)
 2377 001e D167     		se_stw %r6,4(%r7)
 2378              		.loc 1 1978 0
 2379 0020 C271     		se_lwz %r7,8(%r1)
 2380 0022 C367     		se_lwz %r6,12(%r7)
 2381 0024 8C71     		se_lbz %r7,12(%r1)
 2382 0026 00C7     		se_extzb %r7
 2383 0028 6C27     		se_slwi %r7, 2
 2384 002a 7CE63A14 		add %r7,%r6,%r7
 2385 002e C377     		se_lwz %r7,12(%r7)
 2386 0030 C177     		se_lwz %r7,4(%r7)
GAS LISTING C:\Users\nascapro\AppData\Local\Temp\ccKdmVBy.s 			page 43


 2387 0032 2A07     		se_cmpi %r7,0
 2388 0034 7F800020 		e_mcrf %cr7,%cr0
 2389 0038 7CE00026 		mfcr %r7
 2390 003c 74E7E007 		e_rlwinm %r7,%r7,28,0xf0000000
 2391 0040 7CE80120 		mtcrf 128,%r7
 2392 0044 7A02002E 		e_bne %cr0,.L63
 2393              		.loc 1 1979 0
 2394 0048 C271     		se_lwz %r7,8(%r1)
 2395 004a C467     		se_lwz %r6,16(%r7)
 2396 004c C271     		se_lwz %r7,8(%r1)
 2397 004e 8077     		se_lbz %r7,0(%r7)
 2398 0050 00C7     		se_extzb %r7
 2399 0052 0175     		se_mr %r5,%r7
 2400 0054 8C71     		se_lbz %r7,12(%r1)
 2401 0056 00C7     		se_extzb %r7
 2402 0058 7CE53A14 		add %r7,%r5,%r7
 2403 005c 2007     		se_addi %r7,1
 2404 005e 2007     		se_addi %r7,1
 2405 0060 6C57     		se_slwi %r7, 5
 2406 0062 0476     		se_add %r6,%r7
 2407 0064 C376     		se_lwz %r7,12(%r6)
 2408 0066 4805     		se_li %r5,0
 2409 0068 74A78B9C 		e_rlwimi %r7,%r5,17,14,14
 2410 006c D376     		se_stw %r7,12(%r6)
 2411 006e 7800002A 		e_b .L62
 2412              	.L63:
 2413              		.loc 1 1981 0
 2414 0072 C271     		se_lwz %r7,8(%r1)
 2415 0074 C467     		se_lwz %r6,16(%r7)
 2416 0076 C271     		se_lwz %r7,8(%r1)
 2417 0078 8077     		se_lbz %r7,0(%r7)
 2418 007a 00C7     		se_extzb %r7
 2419 007c 0175     		se_mr %r5,%r7
 2420 007e 8C71     		se_lbz %r7,12(%r1)
 2421 0080 00C7     		se_extzb %r7
 2422 0082 7CE53A14 		add %r7,%r5,%r7
 2423 0086 2007     		se_addi %r7,1
 2424 0088 2007     		se_addi %r7,1
 2425 008a 6C57     		se_slwi %r7, 5
 2426 008c 0476     		se_add %r6,%r7
 2427 008e C376     		se_lwz %r7,12(%r6)
 2428 0090 4815     		se_li %r5,1
 2429 0092 74A78B9C 		e_rlwimi %r7,%r5,17,14,14
 2430 0096 D376     		se_stw %r7,12(%r6)
 2431              	.L62:
 2432              		.loc 1 1983 0
 2433 0098 2171     		se_addi %r1,24
 2434              	.LCFI23:
 2435              		.cfi_def_cfa_offset 0
 2436 009a 0004     		se_blr
 2437              		.cfi_endproc
 2438              	.LFE14:
 2439              		.size	pwm_lld_set_group_channel_chcb, .-pwm_lld_set_group_channel_chcb
 2440              		.section	.text.pwm_lld_set_channel_callback,"axv",@progbits
 2441              		.align 1
 2442              		.p2align 4,,15
 2443              		.globl pwm_lld_set_channel_callback
GAS LISTING C:\Users\nascapro\AppData\Local\Temp\ccKdmVBy.s 			page 44


 2444              		.type	pwm_lld_set_channel_callback, @function
 2445              	pwm_lld_set_channel_callback:
 2446              	.LFB15:
 2447              		.loc 1 2004 0
 2448              		.cfi_startproc
 2449 0000 182106E8 		e_stwu %r1,-24(%r1)
 2450              	.LCFI24:
 2451              		.cfi_def_cfa_offset 24
 2452 0004 0080     		se_mflr %r0
 2453 0006 D701     		se_stw %r0,28(%r1)
 2454              		.cfi_offset 65, 4
 2455 0008 D231     		se_stw %r3,8(%r1)
 2456 000a 0147     		se_mr %r7,%r4
 2457 000c D451     		se_stw %r5,16(%r1)
 2458 000e 9C71     		se_stb %r7,12(%r1)
 2459              		.loc 1 2006 0
 2460 0010 78000001 		e_bl osalEnterCritical
 2461              		.loc 1 2066 0
 2462 0014 C261     		se_lwz %r6,8(%r1)
 2463 0016 70E0E000 		e_lis %r7,PWMD9@ha
 2464 001a 1CE70000 		e_la %r7,PWMD9@l(%r7)
 2465 001e 7F863800 		cmp %cr7,%r6,%r7
 2466 0022 7CE00026 		mfcr %r7
 2467 0026 74E7E007 		e_rlwinm %r7,%r7,28,0xf0000000
 2468 002a 7CE80120 		mtcrf 128,%r7
 2469 002e 7A020012 		e_bne %cr0,.L66
 2470              		.loc 1 2067 0
 2471 0032 8C71     		se_lbz %r7,12(%r1)
 2472 0034 00C7     		se_extzb %r7
 2473 0036 C231     		se_lwz %r3,8(%r1)
 2474 0038 0174     		se_mr %r4,%r7
 2475 003a C451     		se_lwz %r5,16(%r1)
 2476 003c 78000001 		e_bl pwm_lld_set_group_channel_chcb
 2477              	.L66:
 2478              		.loc 1 2078 0
 2479 0040 C261     		se_lwz %r6,8(%r1)
 2480 0042 70E0E000 		e_lis %r7,PWMD11@ha
 2481 0046 1CE70000 		e_la %r7,PWMD11@l(%r7)
 2482 004a 7F863800 		cmp %cr7,%r6,%r7
 2483 004e 7CE00026 		mfcr %r7
 2484 0052 74E7E007 		e_rlwinm %r7,%r7,28,0xf0000000
 2485 0056 7CE80120 		mtcrf 128,%r7
 2486 005a 7A020012 		e_bne %cr0,.L67
 2487              		.loc 1 2079 0
 2488 005e 8C71     		se_lbz %r7,12(%r1)
 2489 0060 00C7     		se_extzb %r7
 2490 0062 C231     		se_lwz %r3,8(%r1)
 2491 0064 0174     		se_mr %r4,%r7
 2492 0066 C451     		se_lwz %r5,16(%r1)
 2493 0068 78000001 		e_bl pwm_lld_set_group_channel_chcb
 2494              	.L67:
 2495              		.loc 1 2131 0
 2496 006c 78000001 		e_bl osalExitCritical
 2497              		.loc 1 2132 0
 2498 0070 C701     		se_lwz %r0,28(%r1)
 2499 0072 0090     		se_mtlr %r0
 2500 0074 2171     		se_addi %r1,24
GAS LISTING C:\Users\nascapro\AppData\Local\Temp\ccKdmVBy.s 			page 45


 2501              	.LCFI25:
 2502              		.cfi_def_cfa_offset 0
 2503 0076 0004     		se_blr
 2504              		.cfi_endproc
 2505              	.LFE15:
 2506              		.size	pwm_lld_set_channel_callback, .-pwm_lld_set_channel_callback
 2507              		.section	.text.pwm_lld_set_group_channel_pcb,"axv",@progbits
 2508              		.align 1
 2509              		.p2align 4,,15
 2510              		.type	pwm_lld_set_group_channel_pcb, @function
 2511              	pwm_lld_set_group_channel_pcb:
 2512              	.LFB16:
 2513              		.loc 1 2185 0
 2514              		.cfi_startproc
 2515 0000 182106F0 		e_stwu %r1,-16(%r1)
 2516              	.LCFI26:
 2517              		.cfi_def_cfa_offset 16
 2518 0004 D231     		se_stw %r3,8(%r1)
 2519 0006 D341     		se_stw %r4,12(%r1)
 2520              		.loc 1 2188 0
 2521 0008 C271     		se_lwz %r7,8(%r1)
 2522 000a C377     		se_lwz %r7,12(%r7)
 2523 000c C361     		se_lwz %r6,12(%r1)
 2524 000e D267     		se_stw %r6,8(%r7)
 2525              		.loc 1 2192 0
 2526 0010 C271     		se_lwz %r7,8(%r1)
 2527 0012 C377     		se_lwz %r7,12(%r7)
 2528 0014 C277     		se_lwz %r7,8(%r7)
 2529 0016 2A07     		se_cmpi %r7,0
 2530 0018 7F800020 		e_mcrf %cr7,%cr0
 2531 001c 7CE00026 		mfcr %r7
 2532 0020 74E7E007 		e_rlwinm %r7,%r7,28,0xf0000000
 2533 0024 7CE80120 		mtcrf 128,%r7
 2534 0028 7A020022 		e_bne %cr0,.L69
 2535              		.loc 1 2193 0
 2536 002c C271     		se_lwz %r7,8(%r1)
 2537 002e C467     		se_lwz %r6,16(%r7)
 2538 0030 C271     		se_lwz %r7,8(%r1)
 2539 0032 8077     		se_lbz %r7,0(%r7)
 2540 0034 00C7     		se_extzb %r7
 2541 0036 2007     		se_addi %r7,1
 2542 0038 6C57     		se_slwi %r7, 5
 2543 003a 0476     		se_add %r6,%r7
 2544 003c C376     		se_lwz %r7,12(%r6)
 2545 003e 4805     		se_li %r5,0
 2546 0040 74A78B9C 		e_rlwimi %r7,%r5,17,14,14
 2547 0044 D376     		se_stw %r7,12(%r6)
 2548 0046 7800001E 		e_b .L68
 2549              	.L69:
 2550              		.loc 1 2195 0
 2551 004a C271     		se_lwz %r7,8(%r1)
 2552 004c C467     		se_lwz %r6,16(%r7)
 2553 004e C271     		se_lwz %r7,8(%r1)
 2554 0050 8077     		se_lbz %r7,0(%r7)
 2555 0052 00C7     		se_extzb %r7
 2556 0054 2007     		se_addi %r7,1
 2557 0056 6C57     		se_slwi %r7, 5
GAS LISTING C:\Users\nascapro\AppData\Local\Temp\ccKdmVBy.s 			page 46


 2558 0058 0476     		se_add %r6,%r7
 2559 005a C376     		se_lwz %r7,12(%r6)
 2560 005c 4815     		se_li %r5,1
 2561 005e 74A78B9C 		e_rlwimi %r7,%r5,17,14,14
 2562 0062 D376     		se_stw %r7,12(%r6)
 2563              	.L68:
 2564              		.loc 1 2197 0
 2565 0064 20F1     		se_addi %r1,16
 2566              	.LCFI27:
 2567              		.cfi_def_cfa_offset 0
 2568 0066 0004     		se_blr
 2569              		.cfi_endproc
 2570              	.LFE16:
 2571              		.size	pwm_lld_set_group_channel_pcb, .-pwm_lld_set_group_channel_pcb
 2572              		.section	.text.pwm_lld_set_period_callback,"axv",@progbits
 2573              		.align 1
 2574              		.p2align 4,,15
 2575              		.globl pwm_lld_set_period_callback
 2576              		.type	pwm_lld_set_period_callback, @function
 2577              	pwm_lld_set_period_callback:
 2578              	.LFB17:
 2579              		.loc 1 2214 0
 2580              		.cfi_startproc
 2581 0000 182106F0 		e_stwu %r1,-16(%r1)
 2582              	.LCFI28:
 2583              		.cfi_def_cfa_offset 16
 2584 0004 0080     		se_mflr %r0
 2585 0006 D501     		se_stw %r0,20(%r1)
 2586              		.cfi_offset 65, 4
 2587 0008 D231     		se_stw %r3,8(%r1)
 2588 000a D341     		se_stw %r4,12(%r1)
 2589              		.loc 1 2216 0
 2590 000c 78000001 		e_bl osalEnterCritical
 2591              		.loc 1 2267 0
 2592 0010 C261     		se_lwz %r6,8(%r1)
 2593 0012 70E0E000 		e_lis %r7,PWMD9@ha
 2594 0016 1CE70000 		e_la %r7,PWMD9@l(%r7)
 2595 001a 7F863800 		cmp %cr7,%r6,%r7
 2596 001e 7CE00026 		mfcr %r7
 2597 0022 74E7E007 		e_rlwinm %r7,%r7,28,0xf0000000
 2598 0026 7CE80120 		mtcrf 128,%r7
 2599 002a 7A02000C 		e_bne %cr0,.L72
 2600              		.loc 1 2268 0
 2601 002e C231     		se_lwz %r3,8(%r1)
 2602 0030 C341     		se_lwz %r4,12(%r1)
 2603 0032 78000001 		e_bl pwm_lld_set_group_channel_pcb
 2604              	.L72:
 2605              		.loc 1 2279 0
 2606 0036 C261     		se_lwz %r6,8(%r1)
 2607 0038 70E0E000 		e_lis %r7,PWMD11@ha
 2608 003c 1CE70000 		e_la %r7,PWMD11@l(%r7)
 2609 0040 7F863800 		cmp %cr7,%r6,%r7
 2610 0044 7CE00026 		mfcr %r7
 2611 0048 74E7E007 		e_rlwinm %r7,%r7,28,0xf0000000
 2612 004c 7CE80120 		mtcrf 128,%r7
 2613 0050 7A02000C 		e_bne %cr0,.L73
 2614              		.loc 1 2280 0
GAS LISTING C:\Users\nascapro\AppData\Local\Temp\ccKdmVBy.s 			page 47


 2615 0054 C231     		se_lwz %r3,8(%r1)
 2616 0056 C341     		se_lwz %r4,12(%r1)
 2617 0058 78000001 		e_bl pwm_lld_set_group_channel_pcb
 2618              	.L73:
 2619              		.loc 1 2332 0
 2620 005c 78000001 		e_bl osalExitCritical
 2621              		.loc 1 2333 0
 2622 0060 C501     		se_lwz %r0,20(%r1)
 2623 0062 0090     		se_mtlr %r0
 2624 0064 20F1     		se_addi %r1,16
 2625              	.LCFI29:
 2626              		.cfi_def_cfa_offset 0
 2627 0066 0004     		se_blr
 2628              		.cfi_endproc
 2629              	.LFE17:
 2630              		.size	pwm_lld_set_period_callback, .-pwm_lld_set_period_callback
 2631              		.section	".text","axv"
 2632              	.Letext0:
 2633              		.file 2 "c:\\autodevkitstudio-2.1\\eclipse\\plugins\\com.st.tools.spc5.tools.gnu.gcc.ppcvle.win32_
 2634              		.file 3 "c:\\autodevkitstudio-2.1\\eclipse\\plugins\\com.st.tools.spc5.tools.gnu.gcc.ppcvle.win32_
 2635              		.file 4 "./components/spc582bxx_platform_component_rla/lib/include/typedefs.h"
 2636              		.file 5 "./components/spc582bxx_low_level_drivers_component_rla/lib/include/spc5_emios.h"
 2637              		.file 6 "./components/spc582bxx_low_level_drivers_component_rla/lib/include/pwm_lld.h"