GAS LISTING C:\Users\nascapro\AppData\Local\Temp\cc7zoHbZ.s 			page 1


   1              		.file	"spc5_linflex.c"
   2              		.section	".text","axv"
   3              	.Ltext0:
   4              		.cfi_sections	.debug_frame
   5              		.section	.bss.linflex_initialization,"aw",@nobits
   6              		.type	linflex_initialization, @object
   7              		.size	linflex_initialization, 1
   8              	linflex_initialization:
   9 0000 00       		.zero	1
  10              		.globl LinflexD2
  11              		.section	.bss.LinflexD2,"aw",@nobits
  12              		.align 2
  13              		.type	LinflexD2, @object
  14              		.size	LinflexD2, 16
  15              	LinflexD2:
  16 0000 00000000 		.zero	16
  16      00000000 
  16      00000000 
  16      00000000 
  17              		.section	.text.vector380,"axv",@progbits
  18              		.align 1
  19              		.p2align 4,,15
  20              		.globl vector380
  21              		.type	vector380, @function
  22              	vector380:
  23              	.LFB2:
  24              		.file 1 "./components/spc582bxx_low_level_drivers_component_rla/lib/src/spc5_linflex.c"
  25              		.loc 1 280 0
  26              		.cfi_startproc
  27 0000 182106F8 		e_stwu %r1,-8(%r1)
  28              	.LCFI0:
  29              		.cfi_def_cfa_offset 8
  30 0004 0080     		se_mflr %r0
  31 0006 D301     		se_stw %r0,12(%r1)
  32              		.cfi_offset 65, 4
  33              		.loc 1 284 0
  34 0008 70E0E000 		e_lis %r7,LinflexD2@ha
  35 000c 1CE70000 		e_la %r7,LinflexD2@l(%r7)
  36 0010 C177     		se_lwz %r7,4(%r7)
  37 0012 70C0E000 		e_lis %r6,LinflexD2@ha
  38 0016 1CC60000 		e_la %r6,LinflexD2@l(%r6)
  39 001a C066     		se_lwz %r6,0(%r6)
  40 001c 0163     		se_mr %r3,%r6
  41 001e 00B7     		se_mtctr %r7
  42 0020 0007     		se_bctrl
  43              		.loc 1 287 0
  44 0022 C301     		se_lwz %r0,12(%r1)
  45 0024 0090     		se_mtlr %r0
  46 0026 2071     		se_addi %r1,8
  47              	.LCFI1:
  48              		.cfi_def_cfa_offset 0
  49 0028 0004     		se_blr
  50              		.cfi_endproc
  51              	.LFE2:
  52              		.size	vector380, .-vector380
  53              		.section	.text.vector381,"axv",@progbits
  54              		.align 1
GAS LISTING C:\Users\nascapro\AppData\Local\Temp\cc7zoHbZ.s 			page 2


  55              		.p2align 4,,15
  56              		.globl vector381
  57              		.type	vector381, @function
  58              	vector381:
  59              	.LFB3:
  60              		.loc 1 297 0
  61              		.cfi_startproc
  62 0000 182106F8 		e_stwu %r1,-8(%r1)
  63              	.LCFI2:
  64              		.cfi_def_cfa_offset 8
  65 0004 0080     		se_mflr %r0
  66 0006 D301     		se_stw %r0,12(%r1)
  67              		.cfi_offset 65, 4
  68              		.loc 1 301 0
  69 0008 70E0E000 		e_lis %r7,LinflexD2@ha
  70 000c 1CE70000 		e_la %r7,LinflexD2@l(%r7)
  71 0010 C277     		se_lwz %r7,8(%r7)
  72 0012 70C0E000 		e_lis %r6,LinflexD2@ha
  73 0016 1CC60000 		e_la %r6,LinflexD2@l(%r6)
  74 001a C066     		se_lwz %r6,0(%r6)
  75 001c 0163     		se_mr %r3,%r6
  76 001e 00B7     		se_mtctr %r7
  77 0020 0007     		se_bctrl
  78              		.loc 1 304 0
  79 0022 C301     		se_lwz %r0,12(%r1)
  80 0024 0090     		se_mtlr %r0
  81 0026 2071     		se_addi %r1,8
  82              	.LCFI3:
  83              		.cfi_def_cfa_offset 0
  84 0028 0004     		se_blr
  85              		.cfi_endproc
  86              	.LFE3:
  87              		.size	vector381, .-vector381
  88              		.section	.text.vector382,"axv",@progbits
  89              		.align 1
  90              		.p2align 4,,15
  91              		.globl vector382
  92              		.type	vector382, @function
  93              	vector382:
  94              	.LFB4:
  95              		.loc 1 314 0
  96              		.cfi_startproc
  97 0000 182106F8 		e_stwu %r1,-8(%r1)
  98              	.LCFI4:
  99              		.cfi_def_cfa_offset 8
 100 0004 0080     		se_mflr %r0
 101 0006 D301     		se_stw %r0,12(%r1)
 102              		.cfi_offset 65, 4
 103              		.loc 1 318 0
 104 0008 70E0E000 		e_lis %r7,LinflexD2@ha
 105 000c 1CE70000 		e_la %r7,LinflexD2@l(%r7)
 106 0010 C377     		se_lwz %r7,12(%r7)
 107 0012 70C0E000 		e_lis %r6,LinflexD2@ha
 108 0016 1CC60000 		e_la %r6,LinflexD2@l(%r6)
 109 001a C066     		se_lwz %r6,0(%r6)
 110 001c 0163     		se_mr %r3,%r6
 111 001e 00B7     		se_mtctr %r7
GAS LISTING C:\Users\nascapro\AppData\Local\Temp\cc7zoHbZ.s 			page 3


 112 0020 0007     		se_bctrl
 113              		.loc 1 321 0
 114 0022 C301     		se_lwz %r0,12(%r1)
 115 0024 0090     		se_mtlr %r0
 116 0026 2071     		se_addi %r1,8
 117              	.LCFI5:
 118              		.cfi_def_cfa_offset 0
 119 0028 0004     		se_blr
 120              		.cfi_endproc
 121              	.LFE4:
 122              		.size	vector382, .-vector382
 123              		.section	.text.linflex_lld_init,"axv",@progbits
 124              		.align 1
 125              		.p2align 4,,15
 126              		.globl linflex_lld_init
 127              		.type	linflex_lld_init, @function
 128              	linflex_lld_init:
 129              	.LFB5:
 130              		.loc 1 1499 0
 131              		.cfi_startproc
 132              		.loc 1 1503 0
 133 0000 70E0E000 		e_lis %r7,linflex_initialization@ha
 134 0004 30E70000 		e_lbz %r7,linflex_initialization@l(%r7)
 135 0008 00C7     		se_extzb %r7
 136 000a 2A07     		se_cmpi %r7,0
 137 000c 7F800020 		e_mcrf %cr7,%cr0
 138 0010 7CE00026 		mfcr %r7
 139 0014 74E7E007 		e_rlwinm %r7,%r7,28,0xf0000000
 140 0018 7CE80120 		mtcrf 128,%r7
 141 001c 7A020046 		e_bne %cr0,.L4
 142              		.loc 1 1504 0
 143 0020 70E0E000 		e_lis %r7,linflex_initialization@ha
 144 0024 30E70000 		e_lbz %r7,linflex_initialization@l(%r7)
 145 0028 00C7     		se_extzb %r7
 146 002a 2007     		se_addi %r7,1
 147 002c 74E6063F 		e_rlwinm %r6,%r7,0,0xff
 148 0030 70E0E000 		e_lis %r7,linflex_initialization@ha
 149 0034 34C70000 		e_stb %r6,linflex_initialization@l(%r7)
 150              		.loc 1 1513 0
 151 0038 70FEE404 		e_lis %r7,0xf404
 152 003c 70E8C358 		e_or2i %r7,17240
 153 0040 70D07808 		e_li %r6,-32760
 154 0044 B067     		se_sth %r6,0(%r7)
 155              		.loc 1 1514 0
 156 0046 70FEE404 		e_lis %r7,0xf404
 157 004a 70E8C35A 		e_or2i %r7,17242
 158 004e 70D07808 		e_li %r6,-32760
 159 0052 B067     		se_sth %r6,0(%r7)
 160              		.loc 1 1515 0
 161 0054 70FEE404 		e_lis %r7,0xf404
 162 0058 70E8C35C 		e_or2i %r7,17244
 163 005c 70D07808 		e_li %r6,-32760
 164 0060 B067     		se_sth %r6,0(%r7)
 165              	.L4:
 166              		.loc 1 1651 0
 167 0062 0004     		se_blr
 168              		.cfi_endproc
GAS LISTING C:\Users\nascapro\AppData\Local\Temp\cc7zoHbZ.s 			page 4


 169              	.LFE5:
 170              		.size	linflex_lld_init, .-linflex_lld_init
 171              		.section	".text","axv"
 172              	.Letext0:
 173              		.file 2 "c:\\autodevkitstudio-2.1\\eclipse\\plugins\\com.st.tools.spc5.tools.gnu.gcc.ppcvle.win32_
 174              		.file 3 "c:\\autodevkitstudio-2.1\\eclipse\\plugins\\com.st.tools.spc5.tools.gnu.gcc.ppcvle.win32_
 175              		.file 4 "./components/spc582bxx_low_level_drivers_component_rla/lib/include/spc5_linflex.h"