GAS LISTING C:\Users\nascapro\AppData\Local\Temp\cc0qY8Mg.s 			page 1


   1              		.file	"swirq.c"
   2              		.section	".text","axv"
   3              	.Ltext0:
   4              		.cfi_sections	.debug_frame
   5              		.section	.text.swirqInit,"axv",@progbits
   6              		.align 1
   7              		.p2align 4,,15
   8              		.globl swirqInit
   9              		.type	swirqInit, @function
  10              	swirqInit:
  11              	.LFB0:
  12              		.file 1 "./components/spc582bxx_irq_component_rla/lib/src/swirq.c"
  13              		.loc 1 52 0
  14              		.cfi_startproc
  15 0000 182106F8 		e_stwu %r1,-8(%r1)
  16              	.LCFI0:
  17              		.cfi_def_cfa_offset 8
  18 0004 0080     		se_mflr %r0
  19 0006 D301     		se_stw %r0,12(%r1)
  20              		.cfi_offset 65, 4
  21              		.loc 1 55 0
  22 0008 78000001 		e_bl swirq_init_prio
  23              		.loc 1 56 0
  24 000c C301     		se_lwz %r0,12(%r1)
  25 000e 0090     		se_mtlr %r0
  26 0010 2071     		se_addi %r1,8
  27              	.LCFI1:
  28              		.cfi_def_cfa_offset 0
  29 0012 0004     		se_blr
  30              		.cfi_endproc
  31              	.LFE0:
  32              		.size	swirqInit, .-swirqInit
  33              		.section	.text.swirq_enable,"axv",@progbits
  34              		.align 1
  35              		.p2align 4,,15
  36              		.globl swirq_enable
  37              		.type	swirq_enable, @function
  38              	swirq_enable:
  39              	.LFB1:
  40              		.loc 1 72 0
  41              		.cfi_startproc
  42 0000 182106F0 		e_stwu %r1,-16(%r1)
  43              	.LCFI2:
  44              		.cfi_def_cfa_offset 16
  45 0004 0136     		se_mr %r6,%r3
  46 0006 0147     		se_mr %r7,%r4
  47 0008 D351     		se_stw %r5,12(%r1)
  48 000a 9861     		se_stb %r6,8(%r1)
  49 000c 9971     		se_stb %r7,9(%r1)
  50              		.loc 1 73 0
  51 000e 8871     		se_lbz %r7,8(%r1)
  52 0010 2FF7     		se_andi %r7,31
  53 0012 9871     		se_stb %r7,8(%r1)
  54              		.loc 1 74 0
  55 0014 8871     		se_lbz %r7,8(%r1)
  56 0016 00C7     		se_extzb %r7
  57 0018 70CFE202 		e_lis %r6,0x7a02
GAS LISTING C:\Users\nascapro\AppData\Local\Temp\cc0qY8Mg.s 			page 2


  58 001c 70C4C030 		e_or2i %r6,8240
  59 0020 7CE63A14 		add %r7,%r6,%r7
  60 0024 6C17     		se_slwi %r7, 1
  61 0026 0175     		se_mr %r5,%r7
  62 0028 C371     		se_lwz %r7,12(%r1)
  63 002a 74E6043F 		e_rlwinm %r6,%r7,0,0xffff
  64 002e 8971     		se_lbz %r7,9(%r1)
  65 0030 00C7     		se_extzb %r7
  66 0032 00E7     		se_extzh %r7
  67 0034 4467     		se_or %r7,%r6
  68 0036 00E7     		se_extzh %r7
  69 0038 B075     		se_sth %r7,0(%r5)
  70              		.loc 1 75 0
  71 003a 20F1     		se_addi %r1,16
  72              	.LCFI3:
  73              		.cfi_def_cfa_offset 0
  74 003c 0004     		se_blr
  75              		.cfi_endproc
  76              	.LFE1:
  77              		.size	swirq_enable, .-swirq_enable
  78              		.section	.text.swirq_disable,"axv",@progbits
  79              		.align 1
  80              		.p2align 4,,15
  81              		.globl swirq_disable
  82              		.type	swirq_disable, @function
  83              	swirq_disable:
  84              	.LFB2:
  85              		.loc 1 87 0
  86              		.cfi_startproc
  87 0000 182106F0 		e_stwu %r1,-16(%r1)
  88              	.LCFI4:
  89              		.cfi_def_cfa_offset 16
  90 0004 0137     		se_mr %r7,%r3
  91 0006 9871     		se_stb %r7,8(%r1)
  92              		.loc 1 88 0
  93 0008 8871     		se_lbz %r7,8(%r1)
  94 000a 2FF7     		se_andi %r7,31
  95 000c 9871     		se_stb %r7,8(%r1)
  96              		.loc 1 89 0
  97 000e 8871     		se_lbz %r7,8(%r1)
  98 0010 00C7     		se_extzb %r7
  99 0012 70CFE202 		e_lis %r6,0x7a02
 100 0016 70C4C030 		e_or2i %r6,8240
 101 001a 7CE63A14 		add %r7,%r6,%r7
 102 001e 6C17     		se_slwi %r7, 1
 103 0020 0176     		se_mr %r6,%r7
 104 0022 4807     		se_li %r7,0
 105 0024 B076     		se_sth %r7,0(%r6)
 106              		.loc 1 90 0
 107 0026 20F1     		se_addi %r1,16
 108              	.LCFI5:
 109              		.cfi_def_cfa_offset 0
 110 0028 0004     		se_blr
 111              		.cfi_endproc
 112              	.LFE2:
 113              		.size	swirq_disable, .-swirq_disable
 114              		.section	.text.swirq_set,"axv",@progbits
GAS LISTING C:\Users\nascapro\AppData\Local\Temp\cc0qY8Mg.s 			page 3


 115              		.align 1
 116              		.p2align 4,,15
 117              		.globl swirq_set
 118              		.type	swirq_set, @function
 119              	swirq_set:
 120              	.LFB3:
 121              		.loc 1 102 0
 122              		.cfi_startproc
 123 0000 182106F0 		e_stwu %r1,-16(%r1)
 124              	.LCFI6:
 125              		.cfi_def_cfa_offset 16
 126 0004 0137     		se_mr %r7,%r3
 127 0006 9871     		se_stb %r7,8(%r1)
 128              		.loc 1 103 0
 129 0008 8871     		se_lbz %r7,8(%r1)
 130 000a 2FF7     		se_andi %r7,31
 131 000c 9871     		se_stb %r7,8(%r1)
 132              		.loc 1 104 0
 133 000e 8871     		se_lbz %r7,8(%r1)
 134 0010 00C7     		se_extzb %r7
 135 0012 70DEE404 		e_lis %r6,0xf404
 136 0016 70C8C040 		e_or2i %r6,16448
 137 001a 7CE63A14 		add %r7,%r6,%r7
 138 001e 0176     		se_mr %r6,%r7
 139 0020 4827     		se_li %r7,2
 140 0022 9076     		se_stb %r7,0(%r6)
 141              		.loc 1 105 0
 142 0024 20F1     		se_addi %r1,16
 143              	.LCFI7:
 144              		.cfi_def_cfa_offset 0
 145 0026 0004     		se_blr
 146              		.cfi_endproc
 147              	.LFE3:
 148              		.size	swirq_set, .-swirq_set
 149              		.section	.text.swirq_clear,"axv",@progbits
 150              		.align 1
 151              		.p2align 4,,15
 152              		.globl swirq_clear
 153              		.type	swirq_clear, @function
 154              	swirq_clear:
 155              	.LFB4:
 156              		.loc 1 117 0
 157              		.cfi_startproc
 158 0000 182106F0 		e_stwu %r1,-16(%r1)
 159              	.LCFI8:
 160              		.cfi_def_cfa_offset 16
 161 0004 0137     		se_mr %r7,%r3
 162 0006 9871     		se_stb %r7,8(%r1)
 163              		.loc 1 118 0
 164 0008 8871     		se_lbz %r7,8(%r1)
 165 000a 2FF7     		se_andi %r7,31
 166 000c 9871     		se_stb %r7,8(%r1)
 167              		.loc 1 119 0
 168 000e 8871     		se_lbz %r7,8(%r1)
 169 0010 00C7     		se_extzb %r7
 170 0012 70DEE404 		e_lis %r6,0xf404
 171 0016 70C8C040 		e_or2i %r6,16448
GAS LISTING C:\Users\nascapro\AppData\Local\Temp\cc0qY8Mg.s 			page 4


 172 001a 7CE63A14 		add %r7,%r6,%r7
 173 001e 0176     		se_mr %r6,%r7
 174 0020 4817     		se_li %r7,1
 175 0022 9076     		se_stb %r7,0(%r6)
 176              		.loc 1 120 0
 177 0024 20F1     		se_addi %r1,16
 178              	.LCFI9:
 179              		.cfi_def_cfa_offset 0
 180 0026 0004     		se_blr
 181              		.cfi_endproc
 182              	.LFE4:
 183              		.size	swirq_clear, .-swirq_clear
 184              		.section	".text","axv"
 185              	.Letext0:
 186              		.file 2 "c:\\autodevkitstudio-2.1\\eclipse\\plugins\\com.st.tools.spc5.tools.gnu.gcc.ppcvle.win32_
 187              		.file 3 "c:\\autodevkitstudio-2.1\\eclipse\\plugins\\com.st.tools.spc5.tools.gnu.gcc.ppcvle.win32_