GAS LISTING C:\Users\cerru\AppData\Local\Temp\ccGdSeSW.s 			page 1


   1              		.file	"VL53L1X_calibration.c"
   2              		.section	".text","axv"
   3              	.Ltext0:
   4              		.cfi_sections	.debug_frame
   5              		.section	.text.VL53L1X_CalibrateOffset,"axv",@progbits
   6              		.align 1
   7              		.p2align 4,,15
   8              		.globl VL53L1X_CalibrateOffset
   9              		.type	VL53L1X_CalibrateOffset, @function
  10              	VL53L1X_CalibrateOffset:
  11              	.LFB2:
  12              		.file 1 "./components/aek_sns_vl53l1x1_component_rla/lib/src/uld_src/VL53L1X_calibration.c"
  13              		.loc 1 41 0
  14              		.cfi_startproc
  15 0000 182106E0 		e_stwu %r1,-32(%r1)
  16              	.LCFI0:
  17              		.cfi_def_cfa_offset 32
  18 0004 0080     		se_mflr %r0
  19 0006 D901     		se_stw %r0,36(%r1)
  20              		.cfi_offset 65, 4
  21 0008 0136     		se_mr %r6,%r3
  22 000a 0147     		se_mr %r7,%r4
  23 000c D751     		se_stw %r5,28(%r1)
  24 000e 34C10018 		e_stb %r6,24(%r1)
  25 0012 BD71     		se_sth %r7,26(%r1)
  26              		.loc 1 43 0
  27 0014 4807     		se_li %r7,0
  28 0016 B571     		se_sth %r7,10(%r1)
  29              		.loc 1 45 0
  30 0018 4807     		se_li %r7,0
  31 001a D371     		se_stw %r7,12(%r1)
  32              		.loc 1 47 0
  33 001c 30E10018 		e_lbz %r7,24(%r1)
  34 0020 00C7     		se_extzb %r7
  35 0022 0173     		se_mr %r3,%r7
  36 0024 49E4     		se_li %r4,30
  37 0026 4805     		se_li %r5,0
  38 0028 78000001 		e_bl VL53L1X_WrWord
  39 002c D331     		se_stw %r3,12(%r1)
  40              		.loc 1 48 0
  41 002e 30E10018 		e_lbz %r7,24(%r1)
  42 0032 00C7     		se_extzb %r7
  43 0034 0173     		se_mr %r3,%r7
  44 0036 4A04     		se_li %r4,32
  45 0038 4805     		se_li %r5,0
  46 003a 78000001 		e_bl VL53L1X_WrWord
  47 003e D331     		se_stw %r3,12(%r1)
  48              		.loc 1 49 0
  49 0040 30E10018 		e_lbz %r7,24(%r1)
  50 0044 00C7     		se_extzb %r7
  51 0046 0173     		se_mr %r3,%r7
  52 0048 4A24     		se_li %r4,34
  53 004a 4805     		se_li %r5,0
  54 004c 78000001 		e_bl VL53L1X_WrWord
  55 0050 D331     		se_stw %r3,12(%r1)
  56              		.loc 1 50 0
  57 0052 30E10018 		e_lbz %r7,24(%r1)
GAS LISTING C:\Users\cerru\AppData\Local\Temp\ccGdSeSW.s 			page 2


  58 0056 00C7     		se_extzb %r7
  59 0058 0173     		se_mr %r3,%r7
  60 005a 78000001 		e_bl VL53L1X_StartRanging
  61 005e D331     		se_stw %r3,12(%r1)
  62              		.loc 1 51 0
  63 0060 4807     		se_li %r7,0
  64 0062 9871     		se_stb %r7,8(%r1)
  65 0064 7800007E 		e_b .L2
  66              	.L5:
  67              		.loc 1 53 0
  68 0068 4807     		se_li %r7,0
  69 006a 34E10010 		e_stb %r7,16(%r1)
  70              		.loc 1 54 0
  71 006e 7800001A 		e_b .L3
  72              	.L4:
  73              		.loc 1 56 0
  74 0072 30E10018 		e_lbz %r7,24(%r1)
  75 0076 74E6063F 		e_rlwinm %r6,%r7,0,0xff
  76 007a 18E18010 		e_addi %r7,%r1,16
  77 007e 0163     		se_mr %r3,%r6
  78 0080 0174     		se_mr %r4,%r7
  79 0082 78000001 		e_bl VL53L1X_CheckForDataReady
  80 0086 D331     		se_stw %r3,12(%r1)
  81              	.L3:
  82              		.loc 1 54 0
  83 0088 30E10010 		e_lbz %r7,16(%r1)
  84 008c 00C7     		se_extzb %r7
  85 008e 2A07     		se_cmpi %r7,0
  86 0090 7F800020 		e_mcrf %cr7,%cr0
  87 0094 7CE00026 		mfcr %r7
  88 0098 74E7E007 		e_rlwinm %r7,%r7,28,0xf0000000
  89 009c 7CE80120 		mtcrf 128,%r7
  90 00a0 7A12FFD2 		e_beq %cr0,.L4
  91              		.loc 1 58 0 discriminator 2
  92 00a4 30E10018 		e_lbz %r7,24(%r1)
  93 00a8 74E6063F 		e_rlwinm %r6,%r7,0,0xff
  94 00ac 18E18012 		e_addi %r7,%r1,18
  95 00b0 0163     		se_mr %r3,%r6
  96 00b2 0174     		se_mr %r4,%r7
  97 00b4 78000001 		e_bl VL53L1X_GetDistance
  98 00b8 D331     		se_stw %r3,12(%r1)
  99              		.loc 1 59 0 discriminator 2
 100 00ba 30E10018 		e_lbz %r7,24(%r1)
 101 00be 00C7     		se_extzb %r7
 102 00c0 0173     		se_mr %r3,%r7
 103 00c2 78000001 		e_bl VL53L1X_ClearInterrupt
 104 00c6 D331     		se_stw %r3,12(%r1)
 105              		.loc 1 60 0 discriminator 2
 106 00c8 A571     		se_lhz %r7,10(%r1)
 107 00ca 74E6043F 		e_rlwinm %r6,%r7,0,0xffff
 108 00ce A971     		se_lhz %r7,18(%r1)
 109 00d0 00E7     		se_extzh %r7
 110 00d2 7CE63A14 		add %r7,%r6,%r7
 111 00d6 00E7     		se_extzh %r7
 112 00d8 B571     		se_sth %r7,10(%r1)
 113              		.loc 1 51 0 discriminator 2
 114 00da 8871     		se_lbz %r7,8(%r1)
GAS LISTING C:\Users\cerru\AppData\Local\Temp\ccGdSeSW.s 			page 3


 115 00dc 00C7     		se_extzb %r7
 116 00de 2007     		se_addi %r7,1
 117 00e0 9871     		se_stb %r7,8(%r1)
 118              	.L2:
 119              		.loc 1 51 0 is_stmt 0 discriminator 1
 120 00e2 8871     		se_lbz %r7,8(%r1)
 121 00e4 00C7     		se_extzb %r7
 122 00e6 7007A831 		e_cmpl16i %r7,49
 123 00ea 7F800020 		e_mcrf %cr7,%cr0
 124 00ee 7CE00026 		mfcr %r7
 125 00f2 74E7E007 		e_rlwinm %r7,%r7,28,0xf0000000
 126 00f6 7CE80120 		mtcrf 128,%r7
 127 00fa 7A01FF6E 		e_ble %cr0,.L5
 128              		.loc 1 62 0 is_stmt 1
 129 00fe 30E10018 		e_lbz %r7,24(%r1)
 130 0102 00C7     		se_extzb %r7
 131 0104 0173     		se_mr %r3,%r7
 132 0106 78000001 		e_bl VL53L1X_StopRanging
 133 010a D331     		se_stw %r3,12(%r1)
 134              		.loc 1 63 0
 135 010c A571     		se_lhz %r7,10(%r1)
 136 010e 00F7     		se_extsh %r7
 137 0110 70CAE1EB 		e_lis %r6,0x51eb
 138 0114 70D0C51F 		e_or2i %r6,34079
 139 0118 7CC73096 		mulhw %r6,%r7,%r6
 140 011c 6A46     		se_srawi %r6, 4
 141 011e 6BF7     		se_srawi %r7, 31
 142 0120 0767     		se_subf %r7, %r6
 143 0122 B571     		se_sth %r7,10(%r1)
 144              		.loc 1 64 0
 145 0124 A571     		se_lhz %r7,10(%r1)
 146 0126 00E7     		se_extzh %r7
 147 0128 AD61     		se_lhz %r6,26(%r1)
 148 012a 0767     		se_subf %r7, %r6
 149 012c 00E7     		se_extzh %r7
 150 012e 7CE60734 		extsh %r6,%r7
 151 0132 C771     		se_lwz %r7,28(%r1)
 152 0134 B067     		se_sth %r6,0(%r7)
 153              		.loc 1 65 0
 154 0136 C771     		se_lwz %r7,28(%r1)
 155 0138 A077     		se_lhz %r7,0(%r7)
 156 013a 00F7     		se_extsh %r7
 157 013c 00E7     		se_extzh %r7
 158 013e 6C27     		se_slwi %r7, 2
 159 0140 00E7     		se_extzh %r7
 160 0142 30C10018 		e_lbz %r6,24(%r1)
 161 0146 00C6     		se_extzb %r6
 162 0148 0163     		se_mr %r3,%r6
 163 014a 49E4     		se_li %r4,30
 164 014c 0175     		se_mr %r5,%r7
 165 014e 78000001 		e_bl VL53L1X_WrWord
 166 0152 D331     		se_stw %r3,12(%r1)
 167              		.loc 1 66 0
 168 0154 C371     		se_lwz %r7,12(%r1)
 169              		.loc 1 67 0
 170 0156 0173     		se_mr %r3,%r7
 171 0158 C901     		se_lwz %r0,36(%r1)
GAS LISTING C:\Users\cerru\AppData\Local\Temp\ccGdSeSW.s 			page 4


 172 015a 0090     		se_mtlr %r0
 173 015c 21F1     		se_addi %r1,32
 174              	.LCFI1:
 175              		.cfi_def_cfa_offset 0
 176 015e 0004     		se_blr
 177              		.cfi_endproc
 178              	.LFE2:
 179              		.size	VL53L1X_CalibrateOffset, .-VL53L1X_CalibrateOffset
 180              		.globl __floatsisf
 181              		.globl __addsf3
 182              		.globl __divsf3
 183              		.globl __subsf3
 184              		.globl __mulsf3
 185              		.globl __fixunssfsi
 186              		.section	.text.VL53L1X_CalibrateXtalk,"axv",@progbits
 187              		.align 1
 188              		.p2align 4,,15
 189              		.globl VL53L1X_CalibrateXtalk
 190              		.type	VL53L1X_CalibrateXtalk, @function
 191              	VL53L1X_CalibrateXtalk:
 192              	.LFB3:
 193              		.loc 1 81 0
 194              		.cfi_startproc
 195 0000 182106D0 		e_stwu %r1,-48(%r1)
 196              	.LCFI2:
 197              		.cfi_def_cfa_offset 48
 198 0004 0080     		se_mflr %r0
 199 0006 DD01     		se_stw %r0,52(%r1)
 200              		.cfi_offset 65, 4
 201 0008 0136     		se_mr %r6,%r3
 202 000a 0147     		se_mr %r7,%r4
 203 000c DB51     		se_stw %r5,44(%r1)
 204 000e 34C10028 		e_stb %r6,40(%r1)
 205 0012 5CE1002A 		e_sth %r7,42(%r1)
 206              		.loc 1 83 0
 207 0016 4807     		se_li %r7,0
 208 0018 54E1000C 		e_stw %r7,12(%r1)
 209              		.loc 1 84 0
 210 001c 4807     		se_li %r7,0
 211 001e 54E10010 		e_stw %r7,16(%r1)
 212              		.loc 1 85 0
 213 0022 4807     		se_li %r7,0
 214 0024 54E10014 		e_stw %r7,20(%r1)
 215              		.loc 1 86 0
 216 0028 4807     		se_li %r7,0
 217 002a 5CE10022 		e_sth %r7,34(%r1)
 218              		.loc 1 88 0
 219 002e 4807     		se_li %r7,0
 220 0030 D671     		se_stw %r7,24(%r1)
 221              		.loc 1 91 0
 222 0032 30E10028 		e_lbz %r7,40(%r1)
 223 0036 00C7     		se_extzb %r7
 224 0038 0173     		se_mr %r3,%r7
 225 003a 4964     		se_li %r4,22
 226 003c 4805     		se_li %r5,0
 227 003e 78000001 		e_bl VL53L1X_WrWord
 228 0042 D631     		se_stw %r3,24(%r1)
GAS LISTING C:\Users\cerru\AppData\Local\Temp\ccGdSeSW.s 			page 5


 229              		.loc 1 92 0
 230 0044 30E10028 		e_lbz %r7,40(%r1)
 231 0048 00C7     		se_extzb %r7
 232 004a 0173     		se_mr %r3,%r7
 233 004c 78000001 		e_bl VL53L1X_StartRanging
 234 0050 D631     		se_stw %r3,24(%r1)
 235              		.loc 1 93 0
 236 0052 4807     		se_li %r7,0
 237 0054 9871     		se_stb %r7,8(%r1)
 238 0056 780000F2 		e_b .L8
 239              	.L11:
 240              		.loc 1 94 0
 241 005a 4807     		se_li %r7,0
 242 005c 34E10020 		e_stb %r7,32(%r1)
 243              		.loc 1 95 0
 244 0060 7800001A 		e_b .L9
 245              	.L10:
 246              		.loc 1 96 0
 247 0064 30E10028 		e_lbz %r7,40(%r1)
 248 0068 74E6063F 		e_rlwinm %r6,%r7,0,0xff
 249 006c 18E18020 		e_addi %r7,%r1,32
 250 0070 0163     		se_mr %r3,%r6
 251 0072 0174     		se_mr %r4,%r7
 252 0074 78000001 		e_bl VL53L1X_CheckForDataReady
 253 0078 D631     		se_stw %r3,24(%r1)
 254              	.L9:
 255              		.loc 1 95 0
 256 007a 30E10020 		e_lbz %r7,32(%r1)
 257 007e 00C7     		se_extzb %r7
 258 0080 2A07     		se_cmpi %r7,0
 259 0082 7F800020 		e_mcrf %cr7,%cr0
 260 0086 7CE00026 		mfcr %r7
 261 008a 74E7E007 		e_rlwinm %r7,%r7,28,0xf0000000
 262 008e 7CE80120 		mtcrf 128,%r7
 263 0092 7A12FFD2 		e_beq %cr0,.L10
 264              		.loc 1 98 0 discriminator 2
 265 0096 30E10028 		e_lbz %r7,40(%r1)
 266 009a 74E6063F 		e_rlwinm %r6,%r7,0,0xff
 267 009e 18E18026 		e_addi %r7,%r1,38
 268 00a2 0163     		se_mr %r3,%r6
 269 00a4 0174     		se_mr %r4,%r7
 270 00a6 78000001 		e_bl VL53L1X_GetSignalRate
 271 00aa D631     		se_stw %r3,24(%r1)
 272              		.loc 1 99 0 discriminator 2
 273 00ac 30E10028 		e_lbz %r7,40(%r1)
 274 00b0 74E6063F 		e_rlwinm %r6,%r7,0,0xff
 275 00b4 18E18022 		e_addi %r7,%r1,34
 276 00b8 0163     		se_mr %r3,%r6
 277 00ba 0174     		se_mr %r4,%r7
 278 00bc 78000001 		e_bl VL53L1X_GetDistance
 279 00c0 D631     		se_stw %r3,24(%r1)
 280              		.loc 1 100 0 discriminator 2
 281 00c2 30E10028 		e_lbz %r7,40(%r1)
 282 00c6 00C7     		se_extzb %r7
 283 00c8 0173     		se_mr %r3,%r7
 284 00ca 78000001 		e_bl VL53L1X_ClearInterrupt
 285 00ce D631     		se_stw %r3,24(%r1)
GAS LISTING C:\Users\cerru\AppData\Local\Temp\ccGdSeSW.s 			page 6


 286              		.loc 1 101 0 discriminator 2
 287 00d0 58E10022 		e_lhz %r7,34(%r1)
 288 00d4 00E7     		se_extzh %r7
 289 00d6 0173     		se_mr %r3,%r7
 290 00d8 78000001 		e_bl __floatsisf
 291 00dc 0137     		se_mr %r7,%r3
 292 00de 50610010 		e_lwz %r3,16(%r1)
 293 00e2 0174     		se_mr %r4,%r7
 294 00e4 78000001 		e_bl __addsf3
 295 00e8 0137     		se_mr %r7,%r3
 296 00ea 54E10010 		e_stw %r7,16(%r1)
 297              		.loc 1 102 0 discriminator 2
 298 00ee 30E10028 		e_lbz %r7,40(%r1)
 299 00f2 74E6063F 		e_rlwinm %r6,%r7,0,0xff
 300 00f6 18E18024 		e_addi %r7,%r1,36
 301 00fa 0163     		se_mr %r3,%r6
 302 00fc 0174     		se_mr %r4,%r7
 303 00fe 78000001 		e_bl VL53L1X_GetSpadNb
 304 0102 D631     		se_stw %r3,24(%r1)
 305              		.loc 1 103 0 discriminator 2
 306 0104 58E10024 		e_lhz %r7,36(%r1)
 307 0108 00E7     		se_extzh %r7
 308 010a 0173     		se_mr %r3,%r7
 309 010c 78000001 		e_bl __floatsisf
 310 0110 0137     		se_mr %r7,%r3
 311 0112 50610014 		e_lwz %r3,20(%r1)
 312 0116 0174     		se_mr %r4,%r7
 313 0118 78000001 		e_bl __addsf3
 314 011c 0137     		se_mr %r7,%r3
 315 011e 54E10014 		e_stw %r7,20(%r1)
 316              		.loc 1 105 0 discriminator 2
 317 0122 58E10026 		e_lhz %r7,38(%r1)
 318 0126 00E7     		se_extzh %r7
 319 0128 0173     		se_mr %r3,%r7
 320 012a 78000001 		e_bl __floatsisf
 321 012e 0137     		se_mr %r7,%r3
 322              		.loc 1 104 0 discriminator 2
 323 0130 5061000C 		e_lwz %r3,12(%r1)
 324 0134 0174     		se_mr %r4,%r7
 325 0136 78000001 		e_bl __addsf3
 326 013a 0137     		se_mr %r7,%r3
 327 013c 54E1000C 		e_stw %r7,12(%r1)
 328              		.loc 1 93 0 discriminator 2
 329 0140 8871     		se_lbz %r7,8(%r1)
 330 0142 00C7     		se_extzb %r7
 331 0144 2007     		se_addi %r7,1
 332 0146 9871     		se_stb %r7,8(%r1)
 333              	.L8:
 334              		.loc 1 93 0 is_stmt 0 discriminator 1
 335 0148 8871     		se_lbz %r7,8(%r1)
 336 014a 00C7     		se_extzb %r7
 337 014c 7007A831 		e_cmpl16i %r7,49
 338 0150 7F800020 		e_mcrf %cr7,%cr0
 339 0154 7CE00026 		mfcr %r7
 340 0158 74E7E007 		e_rlwinm %r7,%r7,28,0xf0000000
 341 015c 7CE80120 		mtcrf 128,%r7
 342 0160 7A01FEFA 		e_ble %cr0,.L11
GAS LISTING C:\Users\cerru\AppData\Local\Temp\ccGdSeSW.s 			page 7


 343              		.loc 1 107 0 is_stmt 1
 344 0164 30E10028 		e_lbz %r7,40(%r1)
 345 0168 00C7     		se_extzb %r7
 346 016a 0173     		se_mr %r3,%r7
 347 016c 78000001 		e_bl VL53L1X_StopRanging
 348 0170 D631     		se_stw %r3,24(%r1)
 349              		.loc 1 108 0
 350 0172 50610010 		e_lwz %r3,16(%r1)
 351 0176 7088E248 		e_lis %r4,0x4248
 352 017a 78000001 		e_bl __divsf3
 353 017e 0137     		se_mr %r7,%r3
 354 0180 54E10010 		e_stw %r7,16(%r1)
 355              		.loc 1 109 0
 356 0184 50610014 		e_lwz %r3,20(%r1)
 357 0188 7088E248 		e_lis %r4,0x4248
 358 018c 78000001 		e_bl __divsf3
 359 0190 0137     		se_mr %r7,%r3
 360 0192 54E10014 		e_stw %r7,20(%r1)
 361              		.loc 1 110 0
 362 0196 5061000C 		e_lwz %r3,12(%r1)
 363 019a 7088E248 		e_lis %r4,0x4248
 364 019e 78000001 		e_bl __divsf3
 365 01a2 0137     		se_mr %r7,%r3
 366 01a4 54E1000C 		e_stw %r7,12(%r1)
 367              		.loc 1 112 0
 368 01a8 58E1002A 		e_lhz %r7,42(%r1)
 369 01ac 00E7     		se_extzh %r7
 370 01ae 0173     		se_mr %r3,%r7
 371 01b0 78000001 		e_bl __floatsisf
 372 01b4 0137     		se_mr %r7,%r3
 373 01b6 50610010 		e_lwz %r3,16(%r1)
 374 01ba 0174     		se_mr %r4,%r7
 375 01bc 78000001 		e_bl __divsf3
 376 01c0 0137     		se_mr %r7,%r3
 377 01c2 7067E780 		e_lis %r3,0x3f80
 378 01c6 0174     		se_mr %r4,%r7
 379 01c8 78000001 		e_bl __subsf3
 380 01cc 0137     		se_mr %r7,%r3
 381 01ce 0173     		se_mr %r3,%r7
 382 01d0 5081000C 		e_lwz %r4,12(%r1)
 383 01d4 78000001 		e_bl __mulsf3
 384 01d8 0137     		se_mr %r7,%r3
 385 01da 0173     		se_mr %r3,%r7
 386 01dc 7088E400 		e_lis %r4,0x4400
 387 01e0 78000001 		e_bl __mulsf3
 388 01e4 0137     		se_mr %r7,%r3
 389 01e6 0173     		se_mr %r3,%r7
 390 01e8 50810014 		e_lwz %r4,20(%r1)
 391 01ec 78000001 		e_bl __divsf3
 392 01f0 0137     		se_mr %r7,%r3
 393 01f2 0173     		se_mr %r3,%r7
 394 01f4 78000001 		e_bl __fixunssfsi
 395 01f8 0137     		se_mr %r7,%r3
 396 01fa 00E7     		se_extzh %r7
 397 01fc D771     		se_stw %r7,28(%r1)
 398              		.loc 1 113 0
 399 01fe C771     		se_lwz %r7,28(%r1)
GAS LISTING C:\Users\cerru\AppData\Local\Temp\ccGdSeSW.s 			page 8


 400 0200 00E7     		se_extzh %r7
 401 0202 7007A3E8 		e_mull2i %r7,1000
 402 0206 00E7     		se_extzh %r7
 403 0208 6897     		se_srwi %r7,9
 404 020a 74E6043F 		e_rlwinm %r6,%r7,0,0xffff
 405 020e CB71     		se_lwz %r7,44(%r1)
 406 0210 B067     		se_sth %r6,0(%r7)
 407              		.loc 1 114 0
 408 0212 C771     		se_lwz %r7,28(%r1)
 409 0214 00E7     		se_extzh %r7
 410 0216 30C10028 		e_lbz %r6,40(%r1)
 411 021a 00C6     		se_extzb %r6
 412 021c 0163     		se_mr %r3,%r6
 413 021e 4964     		se_li %r4,22
 414 0220 0175     		se_mr %r5,%r7
 415 0222 78000001 		e_bl VL53L1X_WrWord
 416 0226 D631     		se_stw %r3,24(%r1)
 417              		.loc 1 115 0
 418 0228 C671     		se_lwz %r7,24(%r1)
 419              		.loc 1 116 0
 420 022a 0173     		se_mr %r3,%r7
 421 022c CD01     		se_lwz %r0,52(%r1)
 422 022e 0090     		se_mtlr %r0
 423 0230 18218030 		e_addi %r1,%r1,48
 424              	.LCFI3:
 425              		.cfi_def_cfa_offset 0
 426 0234 0004     		se_blr
 427              		.cfi_endproc
 428              	.LFE3:
 429              		.size	VL53L1X_CalibrateXtalk, .-VL53L1X_CalibrateXtalk
 430              		.section	".text","axv"
 431              	.Letext0:
 432              		.file 2 "c:\\autodevkitstudio-2.1\\eclipse\\plugins\\com.st.tools.spc5.tools.gnu.gcc.ppcvle.win32_
 433              		.file 3 "c:\\autodevkitstudio-2.1\\eclipse\\plugins\\com.st.tools.spc5.tools.gnu.gcc.ppcvle.win32_
 434              		.file 4 "./components/spc582bxx_low_level_drivers_component_rla/lib/include/i2c_lld.h"