GAS LISTING C:\Users\cerru\AppData\Local\Temp\ccXxmKur.s 			page 1


   1              		.file	"VL53L1X_support.c"
   2              		.section	".text","axv"
   3              	.Ltext0:
   4              		.cfi_sections	.debug_frame
   5              		.globl ULD_I2CBuffer
   6              		.section	.bss.ULD_I2CBuffer,"aw",@nobits
   7              		.align 2
   8              		.type	ULD_I2CBuffer, @object
   9              		.size	ULD_I2CBuffer, 256
  10              	ULD_I2CBuffer:
  11 0000 00000000 		.zero	256
  11      00000000 
  11      00000000 
  11      00000000 
  11      00000000 
  12              		.section	.text.VL53L1X_WrByte,"axv",@progbits
  13              		.align 1
  14              		.p2align 4,,15
  15              		.globl VL53L1X_WrByte
  16              		.type	VL53L1X_WrByte, @function
  17              	VL53L1X_WrByte:
  18              	.LFB2:
  19              		.file 1 "./components/aek_sns_vl53l1x1_component_rla/lib/src/uld_src/VL53L1X_support.c"
  20              		.loc 1 47 0
  21              		.cfi_startproc
  22 0000 182106F0 		e_stwu %r1,-16(%r1)
  23              	.LCFI0:
  24              		.cfi_def_cfa_offset 16
  25 0004 0080     		se_mflr %r0
  26 0006 D501     		se_stw %r0,20(%r1)
  27              		.cfi_offset 65, 4
  28 0008 0146     		se_mr %r6,%r4
  29 000a 0157     		se_mr %r7,%r5
  30 000c 9831     		se_stb %r3,8(%r1)
  31 000e B561     		se_sth %r6,10(%r1)
  32 0010 9971     		se_stb %r7,9(%r1)
  33              		.loc 1 48 0
  34 0012 70E0E000 		e_lis %r7,AEK_SNS_VL53L1X_I2C_ARRAY_DRIVER@ha
  35 0016 50870000 		e_lwz %r4,AEK_SNS_VL53L1X_I2C_ARRAY_DRIVER@l(%r7)
  36 001a 8871     		se_lbz %r7,8(%r1)
  37 001c 74E5063F 		e_rlwinm %r5,%r7,0,0xff
  38 0020 A571     		se_lhz %r7,10(%r1)
  39 0022 74E6043F 		e_rlwinm %r6,%r7,0,0xffff
  40 0026 18E18009 		e_addi %r7,%r1,9
  41 002a 0143     		se_mr %r3,%r4
  42 002c 0154     		se_mr %r4,%r5
  43 002e 0165     		se_mr %r5,%r6
  44 0030 0176     		se_mr %r6,%r7
  45 0032 4817     		se_li %r7,1
  46 0034 78000001 		e_bl i2c_lld_write16
  47 0038 0136     		se_mr %r6,%r3
  48 003a 70E0E000 		e_lis %r7,status@ha
  49 003e 54C70000 		e_stw %r6,status@l(%r7)
  50              		.loc 1 50 0
  51 0042 70E0E000 		e_lis %r7,status@ha
  52 0046 50E70000 		e_lwz %r7,status@l(%r7)
  53              		.loc 1 51 0
GAS LISTING C:\Users\cerru\AppData\Local\Temp\ccXxmKur.s 			page 2


  54 004a 0173     		se_mr %r3,%r7
  55 004c C501     		se_lwz %r0,20(%r1)
  56 004e 0090     		se_mtlr %r0
  57 0050 20F1     		se_addi %r1,16
  58              	.LCFI1:
  59              		.cfi_def_cfa_offset 0
  60 0052 0004     		se_blr
  61              		.cfi_endproc
  62              	.LFE2:
  63              		.size	VL53L1X_WrByte, .-VL53L1X_WrByte
  64              		.section	.text.VL53L1X_WrWord,"axv",@progbits
  65              		.align 1
  66              		.p2align 4,,15
  67              		.globl VL53L1X_WrWord
  68              		.type	VL53L1X_WrWord, @function
  69              	VL53L1X_WrWord:
  70              	.LFB3:
  71              		.loc 1 64 0
  72              		.cfi_startproc
  73 0000 182106E0 		e_stwu %r1,-32(%r1)
  74              	.LCFI2:
  75              		.cfi_def_cfa_offset 32
  76 0004 0080     		se_mflr %r0
  77 0006 D901     		se_stw %r0,36(%r1)
  78              		.cfi_offset 65, 4
  79 0008 0146     		se_mr %r6,%r4
  80 000a 0157     		se_mr %r7,%r5
  81 000c 34610018 		e_stb %r3,24(%r1)
  82 0010 BD61     		se_sth %r6,26(%r1)
  83 0012 BE71     		se_sth %r7,28(%r1)
  84              		.loc 1 67 0
  85 0014 AE71     		se_lhz %r7,28(%r1)
  86 0016 00E7     		se_extzh %r7
  87 0018 6887     		se_srwi %r7,8
  88 001a 00E7     		se_extzh %r7
  89 001c 00C7     		se_extzb %r7
  90 001e 9871     		se_stb %r7,8(%r1)
  91              		.loc 1 68 0
  92 0020 AE71     		se_lhz %r7,28(%r1)
  93 0022 00C7     		se_extzb %r7
  94 0024 9971     		se_stb %r7,9(%r1)
  95              		.loc 1 70 0
  96 0026 70E0E000 		e_lis %r7,AEK_SNS_VL53L1X_I2C_ARRAY_DRIVER@ha
  97 002a 50A70000 		e_lwz %r5,AEK_SNS_VL53L1X_I2C_ARRAY_DRIVER@l(%r7)
  98 002e 30E10018 		e_lbz %r7,24(%r1)
  99 0032 74E6063F 		e_rlwinm %r6,%r7,0,0xff
 100 0036 AD71     		se_lhz %r7,26(%r1)
 101 0038 00E7     		se_extzh %r7
 102 003a 0153     		se_mr %r3,%r5
 103 003c 0164     		se_mr %r4,%r6
 104 003e 0175     		se_mr %r5,%r7
 105 0040 18E18008 		e_addi %r7,%r1,8
 106 0044 0176     		se_mr %r6,%r7
 107 0046 4827     		se_li %r7,2
 108 0048 78000001 		e_bl i2c_lld_write16
 109 004c 0136     		se_mr %r6,%r3
 110 004e 70E0E000 		e_lis %r7,status@ha
GAS LISTING C:\Users\cerru\AppData\Local\Temp\ccXxmKur.s 			page 3


 111 0052 54C70000 		e_stw %r6,status@l(%r7)
 112              		.loc 1 72 0
 113 0056 70E0E000 		e_lis %r7,status@ha
 114 005a 50E70000 		e_lwz %r7,status@l(%r7)
 115              		.loc 1 73 0
 116 005e 0173     		se_mr %r3,%r7
 117 0060 C901     		se_lwz %r0,36(%r1)
 118 0062 0090     		se_mtlr %r0
 119 0064 21F1     		se_addi %r1,32
 120              	.LCFI3:
 121              		.cfi_def_cfa_offset 0
 122 0066 0004     		se_blr
 123              		.cfi_endproc
 124              	.LFE3:
 125              		.size	VL53L1X_WrWord, .-VL53L1X_WrWord
 126              		.section	.text.VL53L1X_WrDWord,"axv",@progbits
 127              		.align 1
 128              		.p2align 4,,15
 129              		.globl VL53L1X_WrDWord
 130              		.type	VL53L1X_WrDWord, @function
 131              	VL53L1X_WrDWord:
 132              	.LFB4:
 133              		.loc 1 86 0
 134              		.cfi_startproc
 135 0000 182106E0 		e_stwu %r1,-32(%r1)
 136              	.LCFI4:
 137              		.cfi_def_cfa_offset 32
 138 0004 0080     		se_mflr %r0
 139 0006 D901     		se_stw %r0,36(%r1)
 140              		.cfi_offset 65, 4
 141 0008 0136     		se_mr %r6,%r3
 142 000a 0147     		se_mr %r7,%r4
 143 000c D751     		se_stw %r5,28(%r1)
 144 000e 34C10018 		e_stb %r6,24(%r1)
 145 0012 BD71     		se_sth %r7,26(%r1)
 146              		.loc 1 89 0
 147 0014 C771     		se_lwz %r7,28(%r1)
 148 0016 6987     		se_srwi %r7,24
 149 0018 00C7     		se_extzb %r7
 150 001a 9871     		se_stb %r7,8(%r1)
 151              		.loc 1 90 0
 152 001c C771     		se_lwz %r7,28(%r1)
 153 001e 6907     		se_srwi %r7,16
 154 0020 00C7     		se_extzb %r7
 155 0022 9971     		se_stb %r7,9(%r1)
 156              		.loc 1 91 0
 157 0024 C771     		se_lwz %r7,28(%r1)
 158 0026 6887     		se_srwi %r7,8
 159 0028 00C7     		se_extzb %r7
 160 002a 9A71     		se_stb %r7,10(%r1)
 161              		.loc 1 92 0
 162 002c C771     		se_lwz %r7,28(%r1)
 163 002e 00C7     		se_extzb %r7
 164 0030 9B71     		se_stb %r7,11(%r1)
 165              		.loc 1 94 0
 166 0032 70E0E000 		e_lis %r7,AEK_SNS_VL53L1X_I2C_ARRAY_DRIVER@ha
 167 0036 50A70000 		e_lwz %r5,AEK_SNS_VL53L1X_I2C_ARRAY_DRIVER@l(%r7)
GAS LISTING C:\Users\cerru\AppData\Local\Temp\ccXxmKur.s 			page 4


 168 003a 30E10018 		e_lbz %r7,24(%r1)
 169 003e 74E6063F 		e_rlwinm %r6,%r7,0,0xff
 170 0042 AD71     		se_lhz %r7,26(%r1)
 171 0044 00E7     		se_extzh %r7
 172 0046 0153     		se_mr %r3,%r5
 173 0048 0164     		se_mr %r4,%r6
 174 004a 0175     		se_mr %r5,%r7
 175 004c 18E18008 		e_addi %r7,%r1,8
 176 0050 0176     		se_mr %r6,%r7
 177 0052 4847     		se_li %r7,4
 178 0054 78000001 		e_bl i2c_lld_write16
 179 0058 0136     		se_mr %r6,%r3
 180 005a 70E0E000 		e_lis %r7,status@ha
 181 005e 54C70000 		e_stw %r6,status@l(%r7)
 182              		.loc 1 96 0
 183 0062 70E0E000 		e_lis %r7,status@ha
 184 0066 50E70000 		e_lwz %r7,status@l(%r7)
 185              		.loc 1 97 0
 186 006a 0173     		se_mr %r3,%r7
 187 006c C901     		se_lwz %r0,36(%r1)
 188 006e 0090     		se_mtlr %r0
 189 0070 21F1     		se_addi %r1,32
 190              	.LCFI5:
 191              		.cfi_def_cfa_offset 0
 192 0072 0004     		se_blr
 193              		.cfi_endproc
 194              	.LFE4:
 195              		.size	VL53L1X_WrDWord, .-VL53L1X_WrDWord
 196              		.section	.text.VL53L1X_UpdateByte,"axv",@progbits
 197              		.align 1
 198              		.p2align 4,,15
 199              		.globl VL53L1X_UpdateByte
 200              		.type	VL53L1X_UpdateByte, @function
 201              	VL53L1X_UpdateByte:
 202              	.LFB5:
 203              		.loc 1 112 0
 204              		.cfi_startproc
 205 0000 182106E0 		e_stwu %r1,-32(%r1)
 206              	.LCFI6:
 207              		.cfi_def_cfa_offset 32
 208 0004 0080     		se_mflr %r0
 209 0006 D901     		se_stw %r0,36(%r1)
 210              		.cfi_offset 65, 4
 211 0008 0167     		se_mr %r7,%r6
 212 000a 34610018 		e_stb %r3,24(%r1)
 213 000e BD41     		se_sth %r4,26(%r1)
 214 0010 34A10019 		e_stb %r5,25(%r1)
 215 0014 34E1001C 		e_stb %r7,28(%r1)
 216              		.loc 1 115 0
 217 0018 30E10018 		e_lbz %r7,24(%r1)
 218 001c 74E6063F 		e_rlwinm %r6,%r7,0,0xff
 219 0020 AD71     		se_lhz %r7,26(%r1)
 220 0022 00E7     		se_extzh %r7
 221 0024 0163     		se_mr %r3,%r6
 222 0026 0174     		se_mr %r4,%r7
 223 0028 18E18008 		e_addi %r7,%r1,8
 224 002c 0175     		se_mr %r5,%r7
GAS LISTING C:\Users\cerru\AppData\Local\Temp\ccXxmKur.s 			page 5


 225 002e 78000001 		e_bl VL53L1X_RdByte
 226 0032 0136     		se_mr %r6,%r3
 227 0034 70E0E000 		e_lis %r7,status@ha
 228 0038 54C70000 		e_stw %r6,status@l(%r7)
 229              		.loc 1 116 0
 230 003c 70E0E000 		e_lis %r7,status@ha
 231 0040 50E70000 		e_lwz %r7,status@l(%r7)
 232 0044 2A07     		se_cmpi %r7,0
 233 0046 7F800020 		e_mcrf %cr7,%cr0
 234 004a 7CE00026 		mfcr %r7
 235 004e 74E7E007 		e_rlwinm %r7,%r7,28,0xf0000000
 236 0052 7CE80120 		mtcrf 128,%r7
 237 0056 7A120008 		e_beq %cr0,.L8
 238              		.loc 1 118 0
 239 005a 78000042 		e_b .L9
 240              	.L8:
 241              		.loc 1 120 0
 242 005e 8871     		se_lbz %r7,8(%r1)
 243 0060 74E6063F 		e_rlwinm %r6,%r7,0,0xff
 244 0064 30E10019 		e_lbz %r7,25(%r1)
 245 0068 4667     		se_and %r7,%r6
 246 006a 74E6063F 		e_rlwinm %r6,%r7,0,0xff
 247 006e 30E1001C 		e_lbz %r7,28(%r1)
 248 0072 4467     		se_or %r7,%r6
 249 0074 00C7     		se_extzb %r7
 250 0076 9871     		se_stb %r7,8(%r1)
 251              		.loc 1 121 0
 252 0078 8871     		se_lbz %r7,8(%r1)
 253 007a 00C7     		se_extzb %r7
 254 007c 30C10018 		e_lbz %r6,24(%r1)
 255 0080 74C5063F 		e_rlwinm %r5,%r6,0,0xff
 256 0084 AD61     		se_lhz %r6,26(%r1)
 257 0086 00E6     		se_extzh %r6
 258 0088 0153     		se_mr %r3,%r5
 259 008a 0164     		se_mr %r4,%r6
 260 008c 0175     		se_mr %r5,%r7
 261 008e 78000001 		e_bl VL53L1X_WrByte
 262 0092 0136     		se_mr %r6,%r3
 263 0094 70E0E000 		e_lis %r7,status@ha
 264 0098 54C70000 		e_stw %r6,status@l(%r7)
 265              	.L9:
 266              		.loc 1 124 0
 267 009c 70E0E000 		e_lis %r7,status@ha
 268 00a0 50E70000 		e_lwz %r7,status@l(%r7)
 269              		.loc 1 125 0
 270 00a4 0173     		se_mr %r3,%r7
 271 00a6 C901     		se_lwz %r0,36(%r1)
 272 00a8 0090     		se_mtlr %r0
 273 00aa 21F1     		se_addi %r1,32
 274              	.LCFI7:
 275              		.cfi_def_cfa_offset 0
 276 00ac 0004     		se_blr
 277              		.cfi_endproc
 278              	.LFE5:
 279              		.size	VL53L1X_UpdateByte, .-VL53L1X_UpdateByte
 280              		.section	.text.VL53L1X_RdByte,"axv",@progbits
 281              		.align 1
GAS LISTING C:\Users\cerru\AppData\Local\Temp\ccXxmKur.s 			page 6


 282              		.p2align 4,,15
 283              		.globl VL53L1X_RdByte
 284              		.type	VL53L1X_RdByte, @function
 285              	VL53L1X_RdByte:
 286              	.LFB6:
 287              		.loc 1 138 0
 288              		.cfi_startproc
 289 0000 182106F0 		e_stwu %r1,-16(%r1)
 290              	.LCFI8:
 291              		.cfi_def_cfa_offset 16
 292 0004 0080     		se_mflr %r0
 293 0006 D501     		se_stw %r0,20(%r1)
 294              		.cfi_offset 65, 4
 295 0008 0136     		se_mr %r6,%r3
 296 000a 0147     		se_mr %r7,%r4
 297 000c D351     		se_stw %r5,12(%r1)
 298 000e 9861     		se_stb %r6,8(%r1)
 299 0010 B571     		se_sth %r7,10(%r1)
 300              		.loc 1 139 0
 301 0012 70E0E000 		e_lis %r7,AEK_SNS_VL53L1X_I2C_ARRAY_DRIVER@ha
 302 0016 50A70000 		e_lwz %r5,AEK_SNS_VL53L1X_I2C_ARRAY_DRIVER@l(%r7)
 303 001a 8871     		se_lbz %r7,8(%r1)
 304 001c 74E6063F 		e_rlwinm %r6,%r7,0,0xff
 305 0020 A571     		se_lhz %r7,10(%r1)
 306 0022 00E7     		se_extzh %r7
 307 0024 0153     		se_mr %r3,%r5
 308 0026 0164     		se_mr %r4,%r6
 309 0028 0175     		se_mr %r5,%r7
 310 002a C361     		se_lwz %r6,12(%r1)
 311 002c 4817     		se_li %r7,1
 312 002e 78000001 		e_bl i2c_lld_read16
 313 0032 0136     		se_mr %r6,%r3
 314 0034 70E0E000 		e_lis %r7,status@ha
 315 0038 54C70000 		e_stw %r6,status@l(%r7)
 316              		.loc 1 141 0
 317 003c 70E0E000 		e_lis %r7,status@ha
 318 0040 50E70000 		e_lwz %r7,status@l(%r7)
 319 0044 2A07     		se_cmpi %r7,0
 320 0046 7F800020 		e_mcrf %cr7,%cr0
 321 004a 7CE00026 		mfcr %r7
 322 004e 74E7E007 		e_rlwinm %r7,%r7,28,0xf0000000
 323 0052 7CE80120 		mtcrf 128,%r7
 324 0056 7A120006 		e_beq %cr0,.L12
 325              		.loc 1 143 0
 326 005a 4400     		se_nop
 327              	.L12:
 328              		.loc 1 146 0
 329 005c 70E0E000 		e_lis %r7,status@ha
 330 0060 50E70000 		e_lwz %r7,status@l(%r7)
 331              		.loc 1 147 0
 332 0064 0173     		se_mr %r3,%r7
 333 0066 C501     		se_lwz %r0,20(%r1)
 334 0068 0090     		se_mtlr %r0
 335 006a 20F1     		se_addi %r1,16
 336              	.LCFI9:
 337              		.cfi_def_cfa_offset 0
 338 006c 0004     		se_blr
GAS LISTING C:\Users\cerru\AppData\Local\Temp\ccXxmKur.s 			page 7


 339              		.cfi_endproc
 340              	.LFE6:
 341              		.size	VL53L1X_RdByte, .-VL53L1X_RdByte
 342              		.section	.text.VL53L1X_RdWord,"axv",@progbits
 343              		.align 1
 344              		.p2align 4,,15
 345              		.globl VL53L1X_RdWord
 346              		.type	VL53L1X_RdWord, @function
 347              	VL53L1X_RdWord:
 348              	.LFB7:
 349              		.loc 1 160 0
 350              		.cfi_startproc
 351 0000 182106F0 		e_stwu %r1,-16(%r1)
 352              	.LCFI10:
 353              		.cfi_def_cfa_offset 16
 354 0004 0080     		se_mflr %r0
 355 0006 D501     		se_stw %r0,20(%r1)
 356              		.cfi_offset 65, 4
 357 0008 0136     		se_mr %r6,%r3
 358 000a 0147     		se_mr %r7,%r4
 359 000c D351     		se_stw %r5,12(%r1)
 360 000e 9861     		se_stb %r6,8(%r1)
 361 0010 B571     		se_sth %r7,10(%r1)
 362              		.loc 1 161 0
 363 0012 70E0E000 		e_lis %r7,AEK_SNS_VL53L1X_I2C_ARRAY_DRIVER@ha
 364 0016 50A70000 		e_lwz %r5,AEK_SNS_VL53L1X_I2C_ARRAY_DRIVER@l(%r7)
 365 001a 8871     		se_lbz %r7,8(%r1)
 366 001c 74E6063F 		e_rlwinm %r6,%r7,0,0xff
 367 0020 A571     		se_lhz %r7,10(%r1)
 368 0022 00E7     		se_extzh %r7
 369 0024 0153     		se_mr %r3,%r5
 370 0026 0164     		se_mr %r4,%r6
 371 0028 0175     		se_mr %r5,%r7
 372 002a 70E0E000 		e_lis %r7,ULD_I2CBuffer@ha
 373 002e 1CC70000 		e_la %r6,ULD_I2CBuffer@l(%r7)
 374 0032 4827     		se_li %r7,2
 375 0034 78000001 		e_bl i2c_lld_read16
 376 0038 0136     		se_mr %r6,%r3
 377 003a 70E0E000 		e_lis %r7,status@ha
 378 003e 54C70000 		e_stw %r6,status@l(%r7)
 379              		.loc 1 162 0
 380 0042 70E0E000 		e_lis %r7,status@ha
 381 0046 50E70000 		e_lwz %r7,status@l(%r7)
 382 004a 2A07     		se_cmpi %r7,0
 383 004c 7F800020 		e_mcrf %cr7,%cr0
 384 0050 7CE00026 		mfcr %r7
 385 0054 74E7E007 		e_rlwinm %r7,%r7,28,0xf0000000
 386 0058 7CE80120 		mtcrf 128,%r7
 387 005c 7A120008 		e_beq %cr0,.L15
 388              		.loc 1 164 0
 389 0060 78000032 		e_b .L16
 390              	.L15:
 391              		.loc 1 167 0
 392 0064 70E0E000 		e_lis %r7,ULD_I2CBuffer@ha
 393 0068 1CE70000 		e_la %r7,ULD_I2CBuffer@l(%r7)
 394 006c 8077     		se_lbz %r7,0(%r7)
 395 006e 00C7     		se_extzb %r7
GAS LISTING C:\Users\cerru\AppData\Local\Temp\ccXxmKur.s 			page 8


 396 0070 00E7     		se_extzh %r7
 397 0072 6C87     		se_slwi %r7, 8
 398 0074 74E6043F 		e_rlwinm %r6,%r7,0,0xffff
 399 0078 70E0E000 		e_lis %r7,ULD_I2CBuffer@ha
 400 007c 1CE70000 		e_la %r7,ULD_I2CBuffer@l(%r7)
 401 0080 8177     		se_lbz %r7,1(%r7)
 402 0082 00C7     		se_extzb %r7
 403 0084 00E7     		se_extzh %r7
 404 0086 7CE63A14 		add %r7,%r6,%r7
 405 008a 74E6043F 		e_rlwinm %r6,%r7,0,0xffff
 406 008e C371     		se_lwz %r7,12(%r1)
 407 0090 B067     		se_sth %r6,0(%r7)
 408              	.L16:
 409              		.loc 1 170 0
 410 0092 70E0E000 		e_lis %r7,status@ha
 411 0096 50E70000 		e_lwz %r7,status@l(%r7)
 412              		.loc 1 171 0
 413 009a 0173     		se_mr %r3,%r7
 414 009c C501     		se_lwz %r0,20(%r1)
 415 009e 0090     		se_mtlr %r0
 416 00a0 20F1     		se_addi %r1,16
 417              	.LCFI11:
 418              		.cfi_def_cfa_offset 0
 419 00a2 0004     		se_blr
 420              		.cfi_endproc
 421              	.LFE7:
 422              		.size	VL53L1X_RdWord, .-VL53L1X_RdWord
 423              		.section	.text.VL53L1X_RdDWord,"axv",@progbits
 424              		.align 1
 425              		.p2align 4,,15
 426              		.globl VL53L1X_RdDWord
 427              		.type	VL53L1X_RdDWord, @function
 428              	VL53L1X_RdDWord:
 429              	.LFB8:
 430              		.loc 1 184 0
 431              		.cfi_startproc
 432 0000 182106F0 		e_stwu %r1,-16(%r1)
 433              	.LCFI12:
 434              		.cfi_def_cfa_offset 16
 435 0004 0080     		se_mflr %r0
 436 0006 D501     		se_stw %r0,20(%r1)
 437              		.cfi_offset 65, 4
 438 0008 0136     		se_mr %r6,%r3
 439 000a 0147     		se_mr %r7,%r4
 440 000c D351     		se_stw %r5,12(%r1)
 441 000e 9861     		se_stb %r6,8(%r1)
 442 0010 B571     		se_sth %r7,10(%r1)
 443              		.loc 1 186 0
 444 0012 70E0E000 		e_lis %r7,AEK_SNS_VL53L1X_I2C_ARRAY_DRIVER@ha
 445 0016 50A70000 		e_lwz %r5,AEK_SNS_VL53L1X_I2C_ARRAY_DRIVER@l(%r7)
 446 001a 8871     		se_lbz %r7,8(%r1)
 447 001c 74E6063F 		e_rlwinm %r6,%r7,0,0xff
 448 0020 A571     		se_lhz %r7,10(%r1)
 449 0022 00E7     		se_extzh %r7
 450 0024 0153     		se_mr %r3,%r5
 451 0026 0164     		se_mr %r4,%r6
 452 0028 0175     		se_mr %r5,%r7
GAS LISTING C:\Users\cerru\AppData\Local\Temp\ccXxmKur.s 			page 9


 453 002a 70E0E000 		e_lis %r7,ULD_I2CBuffer@ha
 454 002e 1CC70000 		e_la %r6,ULD_I2CBuffer@l(%r7)
 455 0032 4847     		se_li %r7,4
 456 0034 78000001 		e_bl i2c_lld_read16
 457 0038 0136     		se_mr %r6,%r3
 458 003a 70E0E000 		e_lis %r7,status@ha
 459 003e 54C70000 		e_stw %r6,status@l(%r7)
 460              		.loc 1 187 0
 461 0042 70E0E000 		e_lis %r7,status@ha
 462 0046 50E70000 		e_lwz %r7,status@l(%r7)
 463 004a 2A07     		se_cmpi %r7,0
 464 004c 7F800020 		e_mcrf %cr7,%cr0
 465 0050 7CE00026 		mfcr %r7
 466 0054 74E7E007 		e_rlwinm %r7,%r7,28,0xf0000000
 467 0058 7CE80120 		mtcrf 128,%r7
 468 005c 7A120008 		e_beq %cr0,.L19
 469              		.loc 1 189 0
 470 0060 7800004A 		e_b .L20
 471              	.L19:
 472              		.loc 1 192 0
 473 0064 70E0E000 		e_lis %r7,ULD_I2CBuffer@ha
 474 0068 1CE70000 		e_la %r7,ULD_I2CBuffer@l(%r7)
 475 006c 8077     		se_lbz %r7,0(%r7)
 476 006e 00C7     		se_extzb %r7
 477 0070 7CE6C070 		e_slwi %r6,%r7,24
 478 0074 70E0E000 		e_lis %r7,ULD_I2CBuffer@ha
 479 0078 1CE70000 		e_la %r7,ULD_I2CBuffer@l(%r7)
 480 007c 8177     		se_lbz %r7,1(%r7)
 481 007e 00C7     		se_extzb %r7
 482 0080 6D07     		se_slwi %r7, 16
 483 0082 0476     		se_add %r6,%r7
 484 0084 70E0E000 		e_lis %r7,ULD_I2CBuffer@ha
 485 0088 1CE70000 		e_la %r7,ULD_I2CBuffer@l(%r7)
 486 008c 8277     		se_lbz %r7,2(%r7)
 487 008e 00C7     		se_extzb %r7
 488 0090 6C87     		se_slwi %r7, 8
 489 0092 7CE63A14 		add %r7,%r6,%r7
 490 0096 70C0E000 		e_lis %r6,ULD_I2CBuffer@ha
 491 009a 1CC60000 		e_la %r6,ULD_I2CBuffer@l(%r6)
 492 009e 8366     		se_lbz %r6,3(%r6)
 493 00a0 00C6     		se_extzb %r6
 494 00a2 7CC73214 		add %r6,%r7,%r6
 495 00a6 C371     		se_lwz %r7,12(%r1)
 496 00a8 D067     		se_stw %r6,0(%r7)
 497              	.L20:
 498              		.loc 1 195 0
 499 00aa 70E0E000 		e_lis %r7,status@ha
 500 00ae 50E70000 		e_lwz %r7,status@l(%r7)
 501              		.loc 1 196 0
 502 00b2 0173     		se_mr %r3,%r7
 503 00b4 C501     		se_lwz %r0,20(%r1)
 504 00b6 0090     		se_mtlr %r0
 505 00b8 20F1     		se_addi %r1,16
 506              	.LCFI13:
 507              		.cfi_def_cfa_offset 0
 508 00ba 0004     		se_blr
 509              		.cfi_endproc
GAS LISTING C:\Users\cerru\AppData\Local\Temp\ccXxmKur.s 			page 10


 510              	.LFE8:
 511              		.size	VL53L1X_RdDWord, .-VL53L1X_RdDWord
 512              		.section	".text","axv"
 513              	.Letext0:
 514              		.file 2 "c:\\autodevkitstudio-2.1\\eclipse\\plugins\\com.st.tools.spc5.tools.gnu.gcc.ppcvle.win32_
 515              		.file 3 "c:\\autodevkitstudio-2.1\\eclipse\\plugins\\com.st.tools.spc5.tools.gnu.gcc.ppcvle.win32_
 516              		.file 4 "./components/spc582bxx_low_level_drivers_component_rla/lib/include/i2c_lld.h"